Archive member included to satisfy reference by file (symbol)

arch/arm/lib/lib.a(lib1funcs.o)
                              arch/arm/mach-omap2/built-in.o (__aeabi_uidiv)
arch/arm/lib/lib.a(uldivmod.o)
                              fs/built-in.o (__aeabi_uldivmod)
arch/arm/lib/lib.a(div0.o)    arch/arm/lib/lib.a(lib1funcs.o) (__div0)

Discarded input sections

 .data          0x00000000        0x0 arch/arm/cpu/armv7/start.o
 .bss           0x00000000        0x0 arch/arm/cpu/armv7/start.o
 .text          0x00000000        0x0 board/ti/am335x/built-in.o
 .text.do_board_detect
                0x00000000       0x20 board/ti/am335x/built-in.o
 .text.rtc32k_enable
                0x00000000       0x64 board/ti/am335x/built-in.o
 .text.Write_Gpio_Value
                0x00000000       0x34 board/ti/am335x/built-in.o
 .text.Write_Gpio_Value_Control
                0x00000000       0x34 board/ti/am335x/built-in.o
 .text.HD44780_EN
                0x00000000       0x24 board/ti/am335x/built-in.o
 .text.HD44780_PutChar
                0x00000000        0x4 board/ti/am335x/built-in.o
 .rodata.do_board_detect.str1.1
                0x00000000       0x1b board/ti/am335x/built-in.o
 .data          0x00000000        0x0 board/ti/am335x/built-in.o
 .bss           0x00000000        0x0 board/ti/am335x/built-in.o
 .text.mmu_page_table_flush
                0x00000000       0x1e arch/arm/cpu/armv7/built-in.o
 .text.v7_arch_cp15_set_l2aux_ctrl
                0x00000000        0x6 arch/arm/cpu/armv7/built-in.o
 .text.sdelay   0x00000000        0x6 arch/arm/cpu/armv7/built-in.o
 .text.wait_on_value
                0x00000000       0x1e arch/arm/cpu/armv7/built-in.o
 .data          0x00000000        0x0 arch/arm/cpu/armv7/built-in.o
 .bss           0x00000000        0x0 arch/arm/cpu/armv7/built-in.o
 .text.armv7_boot_nonsec_default
                0x00000000        0x4 arch/arm/lib/built-in.o
 .text.enable_caches
                0x00000000        0xc arch/arm/lib/built-in.o
 .text.invalidate_dcache_range
                0x00000000        0x2 arch/arm/lib/built-in.o
 .text.flush_dcache_range
                0x00000000        0x2 arch/arm/lib/built-in.o
 .text.flush_dcache_all
                0x00000000        0xa arch/arm/lib/built-in.o
 .text.invalidate_l2_cache
                0x00000000        0xc arch/arm/lib/built-in.o
 .text.arm_init_before_mmu
                0x00000000        0x2 arch/arm/lib/built-in.o
 .text.arm_init_domains
                0x00000000        0x2 arch/arm/lib/built-in.o
 .text.mmu_page_table_flush
                0x00000000        0x2 arch/arm/lib/built-in.o
 .text.mmu_set_region_dcache_behaviour
                0x00000000       0x3e arch/arm/lib/built-in.o
 .text.dram_bank_mmu_setup
                0x00000000       0x28 arch/arm/lib/built-in.o
 .text.fdt_psci
                0x00000000        0x4 arch/arm/lib/built-in.o
 .rodata.enable_caches.str1.1
                0x00000000       0x1d arch/arm/lib/built-in.o
 .data          0x00000000        0x0 arch/arm/lib/built-in.o
 .__secure_stack_end
                0x00000000        0x0 arch/arm/lib/built-in.o
 .__secure_stack_start
                0x00000000        0x0 arch/arm/lib/built-in.o
 .__secure_end  0x00000000        0x0 arch/arm/lib/built-in.o
 .__secure_start
                0x00000000        0x0 arch/arm/lib/built-in.o
 .bss           0x00000000        0x0 arch/arm/lib/built-in.o
 .text.get_dpll_mpu_params
                0x00000000        0x8 arch/arm/mach-omap2/built-in.o
 .text.get_dpll_core_params
                0x00000000       0x14 arch/arm/mach-omap2/built-in.o
 .text.get_dpll_per_params
                0x00000000       0x14 arch/arm/mach-omap2/built-in.o
 .text.setup_clocks_for_console
                0x00000000       0x74 arch/arm/mach-omap2/built-in.o
 .text.enable_basic_clocks
                0x00000000       0x44 arch/arm/mach-omap2/built-in.o
 .text.set_mpu_spreadspectrum
                0x00000000       0xc8 arch/arm/mach-omap2/built-in.o
 .text.do_setup_dpll
                0x00000000       0xcc arch/arm/mach-omap2/built-in.o
 .text.do_enable_clocks
                0x00000000       0x68 arch/arm/mach-omap2/built-in.o
 .text.do_disable_clocks
                0x00000000       0x6c arch/arm/mach-omap2/built-in.o
 .text.scale_vcores
                0x00000000        0x2 arch/arm/mach-omap2/built-in.o
 .text.setup_early_clocks
                0x00000000       0x12 arch/arm/mach-omap2/built-in.o
 .text.prcm_init
                0x00000000       0x5c arch/arm/mach-omap2/built-in.o
 .text.rtc_only_prcm_init
                0x00000000       0x1c arch/arm/mach-omap2/built-in.o
 .text.get_sysboot_value
                0x00000000       0x14 arch/arm/mach-omap2/built-in.o
 .text.get_sys_clk_index
                0x00000000       0x14 arch/arm/mach-omap2/built-in.o
 .text.am335x_get_efuse_mpu_max_freq
                0x00000000       0x76 arch/arm/mach-omap2/built-in.o
 .text.am335x_get_tps65910_mpu_vdd
                0x00000000       0x3c arch/arm/mach-omap2/built-in.o
 .text.am335x_get_mpu_vdd
                0x00000000       0x20 arch/arm/mach-omap2/built-in.o
 .text.configure_mr
                0x00000000       0x88 arch/arm/mach-omap2/built-in.o
 .text.config_sdram_emif4d5
                0x00000000      0x15c arch/arm/mach-omap2/built-in.o
 .text.config_sdram
                0x00000000       0x80 arch/arm/mach-omap2/built-in.o
 .text.set_sdram_timings
                0x00000000       0x3c arch/arm/mach-omap2/built-in.o
 .text.config_ddr_phy
                0x00000000      0x1ac arch/arm/mach-omap2/built-in.o
 .text.config_cmd_ctrl
                0x00000000       0x44 arch/arm/mach-omap2/built-in.o
 .text.config_ddr_data
                0x00000000       0x4c arch/arm/mach-omap2/built-in.o
 .text.config_io_ctrl
                0x00000000       0x3c arch/arm/mach-omap2/built-in.o
 .text.configure_module_pin_mux
                0x00000000       0x20 arch/arm/mach-omap2/built-in.o
 .text.set_uart_mux_conf
                0x00000000        0x2 arch/arm/mach-omap2/built-in.o
 .text.set_mux_conf_regs
                0x00000000        0x2 arch/arm/mach-omap2/built-in.o
 .text.ft_cpu_setup
                0x00000000        0x2 arch/arm/mach-omap2/built-in.o
 .text.warm_reset
                0x00000000       0x1c arch/arm/mach-omap2/built-in.o
 .text.setup_warmreset_time
                0x00000000        0x2 arch/arm/mach-omap2/built-in.o
 .text.do_cancel_out
                0x00000000       0x2e arch/arm/mach-omap2/built-in.o
 .text.omap_set_fastboot_vars
                0x00000000      0x148 arch/arm/mach-omap2/built-in.o
 .text.cancel_out
                0x00000000       0x62 arch/arm/mach-omap2/built-in.o
 .text.omap_die_id
                0x00000000        0xc arch/arm/mach-omap2/built-in.o
 .text.omap_die_id_serial
                0x00000000       0x4c arch/arm/mach-omap2/built-in.o
 .text.omap_die_id_get_board_serial
                0x00000000       0x20 arch/arm/mach-omap2/built-in.o
 .text.omap_die_id_usbethaddr
                0x00000000       0x68 arch/arm/mach-omap2/built-in.o
 .text.omap_die_id_display
                0x00000000       0x2c arch/arm/mach-omap2/built-in.o
 .text.omap_sys_boot_device
                0x00000000        0x4 arch/arm/mach-omap2/built-in.o
 .text.save_omap_boot_params
                0x00000000       0x78 arch/arm/mach-omap2/built-in.o
 .text.enable_gpmc_cs_config
                0x00000000       0x6c arch/arm/mach-omap2/built-in.o
 .text.set_gpmc_cs0
                0x00000000       0x18 arch/arm/mach-omap2/built-in.o
 .text.gpmc_init
                0x00000000       0x50 arch/arm/mach-omap2/built-in.o
 .rodata        0x00000000       0x8c arch/arm/mach-omap2/built-in.o
 .rodata.set_mpu_spreadspectrum.str1.1
                0x00000000       0x31 arch/arm/mach-omap2/built-in.o
 .rodata.dpll_ddr2_266MHz
                0x00000000       0x40 arch/arm/mach-omap2/built-in.o
 .rodata.dpll_ddr3_400MHz
                0x00000000       0x40 arch/arm/mach-omap2/built-in.o
 .rodata.dpll_ddr3_303MHz
                0x00000000       0x40 arch/arm/mach-omap2/built-in.o
 .rodata.dpll_per_192MHz
                0x00000000       0x40 arch/arm/mach-omap2/built-in.o
 .rodata.dpll_core_1000MHz
                0x00000000       0x40 arch/arm/mach-omap2/built-in.o
 .rodata.dpll_mpu_opp
                0x00000000      0x180 arch/arm/mach-omap2/built-in.o
 .rodata.dpll_core_opp100
                0x00000000       0x10 arch/arm/mach-omap2/built-in.o
 .rodata.dpll_disp_regs
                0x00000000       0x24 arch/arm/mach-omap2/built-in.o
 .rodata.dpll_ddr_regs
                0x00000000       0x24 arch/arm/mach-omap2/built-in.o
 .rodata.dpll_per_regs
                0x00000000       0x24 arch/arm/mach-omap2/built-in.o
 .rodata.dpll_core_regs
                0x00000000       0x24 arch/arm/mach-omap2/built-in.o
 .rodata.dpll_mpu_regs
                0x00000000       0x24 arch/arm/mach-omap2/built-in.o
 .rodata.cmrtc  0x00000000        0x4 arch/arm/mach-omap2/built-in.o
 .rodata.cmdpll
                0x00000000        0x4 arch/arm/mach-omap2/built-in.o
 .rodata.cmwkup
                0x00000000        0x4 arch/arm/mach-omap2/built-in.o
 .rodata.cmper  0x00000000        0x4 arch/arm/mach-omap2/built-in.o
 .rodata.do_setup_dpll.str1.1
                0x00000000       0x3a arch/arm/mach-omap2/built-in.o
 .rodata.do_enable_clocks.str1.1
                0x00000000       0x2a arch/arm/mach-omap2/built-in.o
 .rodata.do_disable_clocks.str1.1
                0x00000000       0x2b arch/arm/mach-omap2/built-in.o
 .rodata.CSWTCH.9
                0x00000000       0x4c arch/arm/mach-omap2/built-in.o
 .rodata.config_sdram_emif4d5.str1.1
                0x00000000       0x2a arch/arm/mach-omap2/built-in.o
 .rodata.ddr_data_reg
                0x00000000        0x8 arch/arm/mach-omap2/built-in.o
 .rodata.ddr_cmd_reg
                0x00000000        0x8 arch/arm/mach-omap2/built-in.o
 .rodata.emif_reg
                0x00000000        0x8 arch/arm/mach-omap2/built-in.o
 .rodata.omap_set_fastboot_vars.str1.1
                0x00000000      0x11a arch/arm/mach-omap2/built-in.o
 .rodata.omap_die_id_serial.str1.1
                0x00000000       0x11 arch/arm/mach-omap2/built-in.o
 .rodata.omap_die_id_usbethaddr.str1.1
                0x00000000       0x13 arch/arm/mach-omap2/built-in.o
 .rodata.omap_die_id_display.str1.1
                0x00000000       0x1f arch/arm/mach-omap2/built-in.o
 .rodata.CSWTCH.5
                0x00000000        0xc arch/arm/mach-omap2/built-in.o
 .data          0x00000000        0x0 arch/arm/mach-omap2/built-in.o
 .data.dpll_mpu_opp100
                0x00000000       0x10 arch/arm/mach-omap2/built-in.o
 .data.cstat    0x00000000        0x4 arch/arm/mach-omap2/built-in.o
 .data.gpmc_cs0_flash
                0x00000000        0x1 arch/arm/mach-omap2/built-in.o
 .data.gpmc_cfg
                0x00000000        0x4 arch/arm/mach-omap2/built-in.o
 .bss           0x00000000        0x0 arch/arm/mach-omap2/built-in.o
 .text          0x00000000        0x0 board/ti/common/built-in.o
 .text.ti_i2c_eeprom_get
                0x00000000       0x98 board/ti/common/built-in.o
 .text.ti_eeprom_string_cleanup
                0x00000000       0x22 board/ti/common/built-in.o
 .text.gpi2c_init
                0x00000000        0x2 board/ti/common/built-in.o
 .text.ti_i2c_eeprom_am_set
                0x00000000       0x64 board/ti/common/built-in.o
 .text.ti_i2c_eeprom_am_get
                0x00000000       0xcc board/ti/common/built-in.o
 .text.ti_i2c_eeprom_dra7_get
                0x00000000       0xb8 board/ti/common/built-in.o
 .text.board_ti_rev_is
                0x00000000       0x34 board/ti/common/built-in.o
 .text.board_ti_get_name
                0x00000000        0x8 board/ti/common/built-in.o
 .text.board_ti_get_eth_mac_addr
                0x00000000       0x34 board/ti/common/built-in.o
 .text.board_ti_get_emif1_size
                0x00000000       0x20 board/ti/common/built-in.o
 .text.board_ti_get_emif2_size
                0x00000000       0x20 board/ti/common/built-in.o
 .text.board_ti_set_ethaddr
                0x00000000      0x120 board/ti/common/built-in.o
 .text.board_ti_was_eeprom_read
                0x00000000       0x18 board/ti/common/built-in.o
 .rodata.ti_i2c_eeprom_am_set.str1.1
                0x00000000        0x5 board/ti/common/built-in.o
 .rodata.ti_i2c_eeprom_am_get.str1.1
                0x00000000        0x5 board/ti/common/built-in.o
 .rodata.ti_i2c_eeprom_dra7_get.str1.1
                0x00000000        0x6 board/ti/common/built-in.o
 .rodata.board_ti_set_ethaddr.str1.1
                0x00000000       0x34 board/ti/common/built-in.o
 .rodata.__func__.0
                0x00000000       0x15 board/ti/common/built-in.o
 .data          0x00000000        0x0 board/ti/common/built-in.o
 .bss           0x00000000        0x0 board/ti/common/built-in.o
 .text          0x00000000        0x0 cmd/built-in.o
 .text.allow_unaligned
                0x00000000        0x2 cmd/built-in.o
 .text.bootz_setup
                0x00000000       0x14 cmd/built-in.o
 .text.eeprom_init
                0x00000000        0x2 cmd/built-in.o
 .text.name_to_gpio
                0x00000000        0x8 cmd/built-in.o
 .text.i2c_init_board
                0x00000000        0x2 cmd/built-in.o
 .rodata.bootz_setup.str1.1
                0x00000000       0x34 cmd/built-in.o
 .data          0x00000000        0x0 cmd/built-in.o
 .bss           0x00000000        0x0 cmd/built-in.o
 .text          0x00000000        0x0 common/built-in.o
 .text.hash_progressive_lookup_algo
                0x00000000       0x3c common/built-in.o
 .text.hash_parse_string
                0x00000000       0x3c common/built-in.o
 .text.hash_block
                0x00000000       0x4a common/built-in.o
 .text.unset_local_var
                0x00000000       0x5c common/built-in.o
 .text.dram_init_banksize
                0x00000000       0x1a common/built-in.o
 .text.arch_cpu_init_dm
                0x00000000        0x4 common/built-in.o
 .text.red_led_off
                0x00000000        0x2 common/built-in.o
 .text.green_led_on
                0x00000000        0x2 common/built-in.o
 .text.green_led_off
                0x00000000        0x2 common/built-in.o
 .text.yellow_led_on
                0x00000000        0x2 common/built-in.o
 .text.yellow_led_off
                0x00000000        0x2 common/built-in.o
 .text.blue_led_on
                0x00000000        0x2 common/built-in.o
 .text.blue_led_off
                0x00000000        0x2 common/built-in.o
 .text.arch_reserve_stacks
                0x00000000        0x4 common/built-in.o
 .text.board_flash_wp_on
                0x00000000        0x4 common/built-in.o
 .text.fixup_cpu
                0x00000000        0x4 common/built-in.o
 .text.board_quiesce_devices
                0x00000000        0x2 common/built-in.o
 .text.fdt_read_prop
                0x00000000       0x38 common/built-in.o
 .text.fdt_getprop_u32_default_node
                0x00000000       0x24 common/built-in.o
 .text.fdt_getprop_u32_default
                0x00000000       0x24 common/built-in.o
 .text.do_fixup_by_path_u32
                0x00000000       0x1a common/built-in.o
 .text.do_fixup_by_prop
                0x00000000       0x64 common/built-in.o
 .text.do_fixup_by_prop_u32
                0x00000000       0x22 common/built-in.o
 .text.do_fixup_by_compat
                0x00000000       0x50 common/built-in.o
 .text.do_fixup_by_compat_u32
                0x00000000       0x1a common/built-in.o
 .text.fdt_record_loadable
                0x00000000       0xe8 common/built-in.o
 .text.fdt_increase_size
                0x00000000       0x10 common/built-in.o
 .text.fdt_del_node_and_alias
                0x00000000       0x30 common/built-in.o
 .text.fdt_node_offset_by_compat_reg
                0x00000000       0x58 common/built-in.o
 .text.fdt_alloc_phandle
                0x00000000       0x36 common/built-in.o
 .text.fdt_set_phandle
                0x00000000       0x38 common/built-in.o
 .text.fdt_create_phandle
                0x00000000       0x40 common/built-in.o
 .text.fdt_set_node_status
                0x00000000       0x90 common/built-in.o
 .text.fdt_set_status_by_alias
                0x00000000       0x1c common/built-in.o
 .text.fdt_verify_alias_address
                0x00000000       0x88 common/built-in.o
 .text.fdt_get_base_address
                0x00000000       0x28 common/built-in.o
 .text.fdt_read_range
                0x00000000       0xc8 common/built-in.o
 .text.fdt_setup_simplefb_node
                0x00000000      0x144 common/built-in.o
 .text.fdt_fixup_display
                0x00000000       0x84 common/built-in.o
 .text.mdio_register_seq
                0x00000000       0x24 common/built-in.o
 .text.mdio_unregister
                0x00000000       0x24 common/built-in.o
 .text.mdio_get_list_head
                0x00000000        0x8 common/built-in.o
 .text.usb_detect_change
                0x00000000       0x44 common/built-in.o
 .text.usb_submit_int_msg
                0x00000000        0x4 common/built-in.o
 .text.usb_set_protocol
                0x00000000       0x2e common/built-in.o
 .text.usb_set_idle
                0x00000000       0x32 common/built-in.o
 .text.usb_get_report
                0x00000000       0x3a common/built-in.o
 .text.usb_get_class_descriptor
                0x00000000       0x3a common/built-in.o
 .text.usb_stor_reset
                0x00000000        0xc common/built-in.o
 .text.splash_screen_prepare
                0x00000000        0x4 common/built-in.o
 .text.menu_default_choice
                0x00000000       0x12 common/built-in.o
 .text.cli_simple_parse_line
                0x00000000       0x54 common/built-in.o
 .text.cli_simple_run_command
                0x00000000       0xcc common/built-in.o
 .text.cli_simple_loop
                0x00000000       0x54 common/built-in.o
 .text.cli_simple_run_command_list
                0x00000000       0x3a common/built-in.o
 .text.serial_printf
                0x00000000       0x32 common/built-in.o
 .text.fgetc    0x00000000        0xe common/built-in.o
 .text.fputc    0x00000000       0x14 common/built-in.o
 .text.fprintf  0x00000000       0x36 common/built-in.o
 .text.confirm_yesno
                0x00000000       0x84 common/built-in.o
 .text.console_announce_r
                0x00000000       0x48 common/built-in.o
 .text.stdio_print_current_devices
                0x00000000       0x78 common/built-in.o
 .text.valloc   0x00000000        0xa common/built-in.o
 .text.pvalloc  0x00000000       0x10 common/built-in.o
 .text.cfree    0x00000000        0x4 common/built-in.o
 .text.malloc_usable_size
                0x00000000       0x2c common/built-in.o
 .text.mallopt  0x00000000       0x30 common/built-in.o
 .text.memalign_simple
                0x00000000        0xa common/built-in.o
 .text.malloc_simple_info
                0x00000000        0x2 common/built-in.o
 .text.genimg_get_short_name
                0x00000000       0x14 common/built-in.o
 .text.genimg_get_cat_name
                0x00000000       0x3c common/built-in.o
 .text.genimg_get_cat_short_name
                0x00000000       0x3c common/built-in.o
 .text.genimg_get_cat_count
                0x00000000       0x10 common/built-in.o
 .text.genimg_get_cat_desc
                0x00000000       0x10 common/built-in.o
 .text.genimg_get_type_short_name
                0x00000000        0xc common/built-in.o
 .text.genimg_get_comp_short_name
                0x00000000        0xc common/built-in.o
 .text.genimg_get_os_short_name
                0x00000000        0xc common/built-in.o
 .text.genimg_get_arch_short_name
                0x00000000        0xc common/built-in.o
 .text.arch_fixup_fdt
                0x00000000        0x4 common/built-in.o
 .text.fit_get_subimage_count
                0x00000000       0x2c common/built-in.o
 .text.fit_set_timestamp
                0x00000000       0x2c common/built-in.o
 .text.fit_conf_find_compat
                0x00000000       0xec common/built-in.o
 .text.fit_conf_get_prop_node_count
                0x00000000        0x4 common/built-in.o
 .text.stdio_init
                0x00000000        0xe common/built-in.o
 .text.run_command_repeatable
                0x00000000       0x12 common/built-in.o
 .text.cmd_discard_repeatable
                0x00000000        0xe common/built-in.o
 .rodata.fdt_record_loadable.str1.1
                0x00000000       0x2e common/built-in.o
 .rodata.fdt_set_phandle.str1.1
                0x00000000       0x16 common/built-in.o
 .rodata.fdt_create_phandle.str1.1
                0x00000000       0x1a common/built-in.o
 .rodata.fdt_set_node_status.str1.1
                0x00000000       0x3a common/built-in.o
 .rodata.fdt_verify_alias_address.str1.1
                0x00000000       0xcc common/built-in.o
 .rodata.fdt_read_range.str1.1
                0x00000000        0xf common/built-in.o
 .rodata.fdt_setup_simplefb_node.str1.1
                0x00000000       0x2c common/built-in.o
 .rodata.fdt_fixup_display.str1.1
                0x00000000       0x1c common/built-in.o
 .rodata.__func__.1
                0x00000000       0x14 common/built-in.o
 .rodata.mdio_register_seq.str1.1
                0x00000000        0x6 common/built-in.o
 .rodata.cli_simple_parse_line.str1.1
                0x00000000       0x1f common/built-in.o
 .rodata.cli_simple_run_command.str1.1
                0x00000000       0x16 common/built-in.o
 .rodata.cli_simple_loop.str1.1
                0x00000000       0x13 common/built-in.o
 .rodata.confirm_yesno.str1.1
                0x00000000       0x10 common/built-in.o
 .rodata.console_announce_r.str1.1
                0x00000000        0x7 common/built-in.o
 .rodata.stdio_print_current_devices.str1.1
                0x00000000       0x74 common/built-in.o
 .rodata.genimg_get_short_name.str1.1
                0x00000000        0x8 common/built-in.o
 .rodata.unknown_str.0
                0x00000000        0x9 common/built-in.o
 .rodata.table_info
                0x00000000       0x30 common/built-in.o
 .rodata.fit_conf_find_compat.str1.1
                0x00000000        0xb common/built-in.o
 .data          0x00000000        0x0 common/built-in.o
 .bss           0x00000000        0x0 common/built-in.o
 .bss.lastcommand.0
                0x00000000      0x401 common/built-in.o
 .bss.msg.1     0x00000000       0x1e common/built-in.o
 .bss.save_size
                0x00000000        0x4 common/built-in.o
 .bss.save_addr
                0x00000000        0x4 common/built-in.o
 .text          0x00000000        0x0 disk/built-in.o
 .data          0x00000000        0x0 disk/built-in.o
 .bss           0x00000000        0x0 disk/built-in.o
 .text          0x00000000        0x0 drivers/built-in.o
 .text._device_find_global_by_ofnode
                0x00000000       0x2e drivers/built-in.o
 .text.device_bind
                0x00000000       0x16 drivers/built-in.o
 .text.device_bind_ofnode
                0x00000000       0x16 drivers/built-in.o
 .text.dev_get_parent_priv
                0x00000000       0x20 drivers/built-in.o
 .text.device_get_child
                0x00000000       0x30 drivers/built-in.o
 .text.device_find_child_by_seq
                0x00000000       0x3a drivers/built-in.o
 .text.device_get_child_by_seq
                0x00000000       0x30 drivers/built-in.o
 .text.device_find_child_by_of_offset
                0x00000000       0x2e drivers/built-in.o
 .text.device_get_child_by_of_offset
                0x00000000       0x20 drivers/built-in.o
 .text.device_find_global_by_ofnode
                0x00000000       0x1e drivers/built-in.o
 .text.device_get_global_by_ofnode
                0x00000000       0x24 drivers/built-in.o
 .text.device_find_first_inactive_child
                0x00000000       0x3a drivers/built-in.o
 .text.device_find_first_child_by_uclass
                0x00000000       0x32 drivers/built-in.o
 .text.device_find_child_by_name
                0x00000000       0x32 drivers/built-in.o
 .text.dev_get_driver_ops
                0x00000000        0x8 drivers/built-in.o
 .text.device_get_uclass_id
                0x00000000        0x8 drivers/built-in.o
 .text.dev_get_uclass_name
                0x00000000        0xa drivers/built-in.o
 .text.device_has_children
                0x00000000        0xe drivers/built-in.o
 .text.device_has_active_children
                0x00000000       0x24 drivers/built-in.o
 .text.device_is_last_sibling
                0x00000000       0x14 drivers/built-in.o
 .text.device_set_name_alloced
                0x00000000        0xa drivers/built-in.o
 .text.device_set_name
                0x00000000       0x20 drivers/built-in.o
 .text.device_is_compatible
                0x00000000       0x10 drivers/built-in.o
 .text.of_machine_is_compatible
                0x00000000       0x16 drivers/built-in.o
 .text.dev_disable_by_path
                0x00000000        0xc drivers/built-in.o
 .text.dev_enable_by_path
                0x00000000       0x10 drivers/built-in.o
 .text.devfdt_get_addr_size_index
                0x00000000       0x2c drivers/built-in.o
 .text.devfdt_get_addr_name
                0x00000000       0x28 drivers/built-in.o
 .text.devfdt_get_addr_ptr
                0x00000000        0x6 drivers/built-in.o
 .text.devfdt_remap_addr_index
                0x00000000        0xe drivers/built-in.o
 .text.devfdt_remap_addr_name
                0x00000000        0xe drivers/built-in.o
 .text.devfdt_remap_addr
                0x00000000        0x6 drivers/built-in.o
 .text.devfdt_map_physmem
                0x00000000        0xe drivers/built-in.o
 .text.dm_fixup_for_gd_move
                0x00000000       0x14 drivers/built-in.o
 .text.dm_set_translation_offset
                0x00000000       0x10 drivers/built-in.o
 .text.dm_uninit
                0x00000000       0x1c drivers/built-in.o
 .text.uclass_destroy
                0x00000000       0x52 drivers/built-in.o
 .text.uclass_get_name
                0x00000000       0x1a drivers/built-in.o
 .text.uclass_get_by_name
                0x00000000       0x2a drivers/built-in.o
 .text.uclass_find_device_by_name
                0x00000000       0x54 drivers/built-in.o
 .text.uclass_find_device_by_phandle
                0x00000000       0x64 drivers/built-in.o
 .text.uclass_get_device_by_driver
                0x00000000       0x40 drivers/built-in.o
 .text.uclass_get_device_by_name
                0x00000000       0x1e drivers/built-in.o
 .text.uclass_get_device_by_phandle_id
                0x00000000       0x4a drivers/built-in.o
 .text.uclass_get_device_by_phandle
                0x00000000       0x1e drivers/built-in.o
 .text.uclass_first_device_err
                0x00000000       0x16 drivers/built-in.o
 .text.uclass_next_device_err
                0x00000000       0x16 drivers/built-in.o
 .text.uclass_first_device_check
                0x00000000       0x1e drivers/built-in.o
 .text.uclass_next_device_check
                0x00000000       0x1a drivers/built-in.o
 .text.list_count_items
                0x00000000       0x14 drivers/built-in.o
 .text.dm_fdt_pre_reloc
                0x00000000       0x44 drivers/built-in.o
 .text.simple_bus_translate
                0x00000000       0x20 drivers/built-in.o
 .text.ofnode_read_fmap_entry
                0x00000000       0x9c drivers/built-in.o
 .text.ofnode_decode_region
                0x00000000       0x2c drivers/built-in.o
 .text.ofnode_decode_memory_region
                0x00000000       0xac drivers/built-in.o
 .text.ofnode_read_s32_default
                0x00000000       0x12 drivers/built-in.o
 .text.ofnode_read_u64
                0x00000000       0x34 drivers/built-in.o
 .text.ofnode_read_u64_default
                0x00000000       0x14 drivers/built-in.o
 .text.ofnode_read_string
                0x00000000       0x32 drivers/built-in.o
 .text.ofnode_find_subnode
                0x00000000       0x12 drivers/built-in.o
 .text.ofnode_first_subnode
                0x00000000        0xe drivers/built-in.o
 .text.ofnode_next_subnode
                0x00000000        0xe drivers/built-in.o
 .text.ofnode_get_parent
                0x00000000        0xe drivers/built-in.o
 .text.ofnode_get_by_phandle
                0x00000000        0xe drivers/built-in.o
 .text.ofnode_read_size
                0x00000000       0x20 drivers/built-in.o
 .text.decode_timing_property
                0x00000000       0x42 drivers/built-in.o
 .text.ofnode_stringlist_search
                0x00000000       0x26 drivers/built-in.o
 .text.ofnode_read_string_index
                0x00000000       0x2c drivers/built-in.o
 .text.ofnode_read_string_count
                0x00000000        0xe drivers/built-in.o
 .text.ofnode_count_phandle_with_args
                0x00000000       0x24 drivers/built-in.o
 .text.ofnode_get_chosen_prop
                0x00000000       0x18 drivers/built-in.o
 .text.ofnode_get_chosen_node
                0x00000000       0x16 drivers/built-in.o
 .text.ofnode_decode_display_timing
                0x00000000      0x1f4 drivers/built-in.o
 .text.ofnode_is_available
                0x00000000       0x14 drivers/built-in.o
 .text.ofnode_get_addr_size
                0x00000000       0x14 drivers/built-in.o
 .text.ofnode_read_u8_array_ptr
                0x00000000       0x14 drivers/built-in.o
 .text.ofnode_read_pci_addr
                0x00000000       0x70 drivers/built-in.o
 .text.ofnode_read_pci_vendev
                0x00000000       0x90 drivers/built-in.o
 .text.ofnode_read_addr_cells
                0x00000000        0xa drivers/built-in.o
 .text.ofnode_read_size_cells
                0x00000000        0xa drivers/built-in.o
 .text.ofnode_get_addr_index
                0x00000000       0x40 drivers/built-in.o
 .text.ofnode_get_addr
                0x00000000        0x6 drivers/built-in.o
 .text.ofnode_read_simple_addr_cells
                0x00000000        0x4 drivers/built-in.o
 .text.ofnode_read_simple_size_cells
                0x00000000        0x4 drivers/built-in.o
 .text.ofnode_pre_reloc
                0x00000000       0x40 drivers/built-in.o
 .text.ofnode_read_resource
                0x00000000       0x40 drivers/built-in.o
 .text.ofnode_read_resource_byname
                0x00000000       0x24 drivers/built-in.o
 .text.ofnode_translate_address
                0x00000000        0xe drivers/built-in.o
 .text.ofnode_device_is_compatible
                0x00000000       0x18 drivers/built-in.o
 .text.ofnode_by_compatible
                0x00000000       0x12 drivers/built-in.o
 .text.ofnode_by_prop_value
                0x00000000       0x18 drivers/built-in.o
 .text.ofnode_write_prop
                0x00000000        0x6 drivers/built-in.o
 .text.ofnode_write_string
                0x00000000        0x6 drivers/built-in.o
 .text.ofnode_set_enabled
                0x00000000        0x6 drivers/built-in.o
 .text._input_send_keycodes
                0x00000000      0x2bc drivers/built-in.o
 .text.input_tstc
                0x00000000       0x28 drivers/built-in.o
 .text.input_getc
                0x00000000       0x34 drivers/built-in.o
 .text.input_send_keycodes
                0x00000000        0x6 drivers/built-in.o
 .text.input_add_keycode
                0x00000000       0x58 drivers/built-in.o
 .text.input_add_table
                0x00000000       0x28 drivers/built-in.o
 .text.input_set_delays
                0x00000000        0xa drivers/built-in.o
 .text.input_allow_repeats
                0x00000000        0x6 drivers/built-in.o
 .text.input_leds_changed
                0x00000000        0xe drivers/built-in.o
 .text.input_add_tables
                0x00000000       0x30 drivers/built-in.o
 .text.input_init
                0x00000000       0x14 drivers/built-in.o
 .text.input_stdio_register
                0x00000000       0x34 drivers/built-in.o
 .text.create_keymap
                0x00000000       0x5a drivers/built-in.o
 .text.key_matrix_decode
                0x00000000       0x98 drivers/built-in.o
 .text.key_matrix_decode_fdt
                0x00000000       0x6c drivers/built-in.o
 .text.key_matrix_init
                0x00000000       0x20 drivers/built-in.o
 .text.fastboot_get_progress_callback
                0x00000000        0xc drivers/built-in.o
 .text.fastboot_set_progress_callback
                0x00000000        0xc drivers/built-in.o
 .text.cpu_mmc_init
                0x00000000        0x6 drivers/built-in.o
 .text.mmc_set_preinit
                0x00000000        0x6 drivers/built-in.o
 .text.mmc_destroy
                0x00000000        0x4 drivers/built-in.o
 .text.rtc_calc_weekday
                0x00000000       0x94 drivers/built-in.o
 .text.rtc_mktime
                0x00000000       0x80 drivers/built-in.o
 .rodata.devfdt_get_addr_name.str1.1
                0x00000000        0xa drivers/built-in.o
 .rodata.ofnode_read_fmap_entry.str1.1
                0x00000000       0x32 drivers/built-in.o
 .rodata.ofnode_decode_memory_region.str1.1
                0x00000000       0x2d drivers/built-in.o
 .rodata.ofnode_get_chosen_prop.str1.1
                0x00000000        0x8 drivers/built-in.o
 .rodata.ofnode_decode_display_timing.str1.1
                0x00000000       0xca drivers/built-in.o
 .rodata.ofnode_read_pci_vendev.str1.1
                0x00000000       0x1c drivers/built-in.o
 .rodata.ofnode_get_addr_index.str1.1
                0x00000000        0x4 drivers/built-in.o
 .rodata.ofnode_pre_reloc.str1.1
                0x00000000       0x45 drivers/built-in.o
 .rodata.ofnode_read_resource_byname.str1.1
                0x00000000        0xa drivers/built-in.o
 .rodata.input_stdio_register.str1.1
                0x00000000        0x6 drivers/built-in.o
 .rodata.kbd_to_ansi364
                0x00000000       0x20 drivers/built-in.o
 .rodata.kbd_plain_xlate_german
                0x00000000       0x84 drivers/built-in.o
 .rodata.kbd_plain_xlate
                0x00000000       0x64 drivers/built-in.o
 .rodata.key_matrix_decode_fdt.str1.1
                0x00000000       0x1d drivers/built-in.o
 .rodata.month_offset
                0x00000000       0x30 drivers/built-in.o
 .data          0x00000000        0x0 drivers/built-in.o
 .data.kbd_entry
                0x00000000       0x8c drivers/built-in.o
 .data.kbd_right_alt_xlate_german
                0x00000000       0x58 drivers/built-in.o
 .data.kbd_shift_xlate_german
                0x00000000       0x84 drivers/built-in.o
 .data.kbd_ctrl_xlate
                0x00000000       0x64 drivers/built-in.o
 .data.kbd_shift_xlate
                0x00000000       0x64 drivers/built-in.o
 .bss           0x00000000        0x0 drivers/built-in.o
 .text          0x00000000        0x0 drivers/gpio/built-in.o
 .text.gpio_requestf
                0x00000000       0x2a drivers/gpio/built-in.o
 .text.dm_gpio_get_open_drain
                0x00000000       0x2c drivers/gpio/built-in.o
 .text.dm_gpio_set_open_drain
                0x00000000       0x2c drivers/gpio/built-in.o
 .text.dm_gpio_set_dir
                0x00000000        0x6 drivers/gpio/built-in.o
 .text.gpio_claim_vector
                0x00000000       0x52 drivers/gpio/built-in.o
 .text.gpio_get_values_as_int
                0x00000000       0x2c drivers/gpio/built-in.o
 .text.dm_gpio_get_values_as_int
                0x00000000       0x32 drivers/gpio/built-in.o
 .text.gpio_request_by_name_nodev
                0x00000000       0x44 drivers/gpio/built-in.o
 .text.gpio_request_by_name
                0x00000000       0x48 drivers/gpio/built-in.o
 .text.gpio_get_list_count
                0x00000000       0x28 drivers/gpio/built-in.o
 .text.gpio_get_number
                0x00000000       0x14 drivers/gpio/built-in.o
 .text.gpio_is_valid
                0x00000000        0xa drivers/gpio/built-in.o
 .rodata.dm_gpio_get_open_drain.str1.1
                0x00000000        0xf drivers/gpio/built-in.o
 .rodata.dm_gpio_set_open_drain.str1.1
                0x00000000        0xf drivers/gpio/built-in.o
 .data          0x00000000        0x0 drivers/gpio/built-in.o
 .bss           0x00000000        0x0 drivers/gpio/built-in.o
 .text          0x00000000        0x0 drivers/i2c/built-in.o
 .text.i2c_dump_msgs
                0x00000000       0x64 drivers/i2c/built-in.o
 .text.dm_i2c_xfer
                0x00000000       0x22 drivers/i2c/built-in.o
 .text.i2c_get_bus_num_fdt
                0x00000000       0x18 drivers/i2c/built-in.o
 .text.i2c_get_bus_num
                0x00000000        0xc drivers/i2c/built-in.o
 .text.i2c_init
                0x00000000        0x2 drivers/i2c/built-in.o
 .text.board_i2c_init
                0x00000000        0x2 drivers/i2c/built-in.o
 .text.i2c_reg_read
                0x00000000       0x20 drivers/i2c/built-in.o
 .text.i2c_reg_write
                0x00000000       0x1e drivers/i2c/built-in.o
 .rodata.i2c_dump_msgs.str1.1
                0x00000000       0x1b drivers/i2c/built-in.o
 .bss           0x00000000        0x0 drivers/i2c/built-in.o
 .text          0x00000000        0x0 drivers/mtd/built-in.o
 .text.mtd_ooblayout_count_bytes
                0x00000000       0x2a drivers/mtd/built-in.o
 .text.mtd_ooblayout_ecc
                0x00000000       0x3c drivers/mtd/built-in.o
 .text.mtd_ooblayout_free
                0x00000000       0x3c drivers/mtd/built-in.o
 .text.mtd_ooblayout_find_region
                0x00000000       0x4c drivers/mtd/built-in.o
 .text.mtd_ooblayout_get_bytes
                0x00000000       0x54 drivers/mtd/built-in.o
 .text.mtd_ooblayout_set_bytes
                0x00000000       0x54 drivers/mtd/built-in.o
 .text.mtd_check_oob_ops.constprop.0
                0x00000000       0xdc drivers/mtd/built-in.o
 .text.idr_remove
                0x00000000       0x14 drivers/mtd/built-in.o
 .text.idr_find
                0x00000000        0xe drivers/mtd/built-in.o
 .text.idr_get_next
                0x00000000       0x22 drivers/mtd/built-in.o
 .text.idr_alloc
                0x00000000       0x2a drivers/mtd/built-in.o
 .text.__mtd_next_device
                0x00000000       0x18 drivers/mtd/built-in.o
 .text.mtd_dev_list_updated
                0x00000000       0x14 drivers/mtd/built-in.o
 .text.del_mtd_device
                0x00000000       0x40 drivers/mtd/built-in.o
 .text.__get_mtd_device
                0x00000000       0x20 drivers/mtd/built-in.o
 .text.get_mtd_device
                0x00000000       0x4c drivers/mtd/built-in.o
 .text.get_mtd_device_nm
                0x00000000       0x34 drivers/mtd/built-in.o
 .text.__put_mtd_device
                0x00000000       0x44 drivers/mtd/built-in.o
 .text.put_mtd_device
                0x00000000        0x4 drivers/mtd/built-in.o
 .text.mtd_erase
                0x00000000       0x66 drivers/mtd/built-in.o
 .text.mtd_get_unmapped_area
                0x00000000       0x34 drivers/mtd/built-in.o
 .text.mtd_read
                0x00000000       0xa4 drivers/mtd/built-in.o
 .text.mtd_write
                0x00000000       0x98 drivers/mtd/built-in.o
 .text.mtd_panic_write
                0x00000000       0x5c drivers/mtd/built-in.o
 .text.mtd_read_oob
                0x00000000       0x6e drivers/mtd/built-in.o
 .text.mtd_write_oob
                0x00000000       0x62 drivers/mtd/built-in.o
 .text.mtd_ooblayout_find_eccregion
                0x00000000       0x14 drivers/mtd/built-in.o
 .text.mtd_ooblayout_get_eccbytes
                0x00000000       0x18 drivers/mtd/built-in.o
 .text.mtd_ooblayout_set_eccbytes
                0x00000000       0x18 drivers/mtd/built-in.o
 .text.mtd_ooblayout_get_databytes
                0x00000000       0x18 drivers/mtd/built-in.o
 .text.mtd_ooblayout_set_databytes
                0x00000000       0x18 drivers/mtd/built-in.o
 .text.mtd_ooblayout_count_freebytes
                0x00000000        0xc drivers/mtd/built-in.o
 .text.mtd_ooblayout_count_eccbytes
                0x00000000        0xc drivers/mtd/built-in.o
 .text.mtd_get_fact_prot_info
                0x00000000       0x1a drivers/mtd/built-in.o
 .text.mtd_read_fact_prot_reg
                0x00000000       0x22 drivers/mtd/built-in.o
 .text.mtd_get_user_prot_info
                0x00000000       0x1a drivers/mtd/built-in.o
 .text.mtd_read_user_prot_reg
                0x00000000       0x24 drivers/mtd/built-in.o
 .text.mtd_write_user_prot_reg
                0x00000000       0x38 drivers/mtd/built-in.o
 .text.mtd_lock_user_prot_reg
                0x00000000       0x1e drivers/mtd/built-in.o
 .text.mtd_lock
                0x00000000       0x4e drivers/mtd/built-in.o
 .text.mtd_unlock
                0x00000000       0x4e drivers/mtd/built-in.o
 .text.add_mtd_device
                0x00000000      0x124 drivers/mtd/built-in.o
 .text.mtd_is_locked
                0x00000000       0x4e drivers/mtd/built-in.o
 .text.mtd_block_isreserved
                0x00000000       0x26 drivers/mtd/built-in.o
 .text.mtd_block_isbad
                0x00000000       0x26 drivers/mtd/built-in.o
 .text.mtd_block_markbad
                0x00000000       0x3a drivers/mtd/built-in.o
 .text.mtd_search_alternate_name
                0x00000000       0x7c drivers/mtd/built-in.o
 .text.mtd_probe_devices
                0x00000000        0x4 drivers/mtd/built-in.o
 .rodata.del_mtd_device.str1.1
                0x00000000       0x30 drivers/mtd/built-in.o
 .rodata.__put_mtd_device.str1.1
                0x00000000       0x2f drivers/mtd/built-in.o
 .rodata.add_mtd_device.str1.1
                0x00000000       0x28 drivers/mtd/built-in.o
 .rodata.__func__.0
                0x00000000       0x11 drivers/mtd/built-in.o
 .rodata.__func__.1
                0x00000000        0xf drivers/mtd/built-in.o
 .rodata.mtd_search_alternate_name.str1.1
                0x00000000        0x7 drivers/mtd/built-in.o
 .data          0x00000000        0x0 drivers/mtd/built-in.o
 .bss           0x00000000        0x0 drivers/mtd/built-in.o
 .bss.mtd_idr   0x00000000      0x204 drivers/mtd/built-in.o
 .bss.mtd_table
                0x00000000       0x80 drivers/mtd/built-in.o
 .text          0x00000000        0x0 drivers/mtd/spi/built-in.o
 .text.spi_flash_cmd_get_sw_write_prot
                0x00000000       0x10 drivers/mtd/spi/built-in.o
 .data          0x00000000        0x0 drivers/mtd/spi/built-in.o
 .bss           0x00000000        0x0 drivers/mtd/spi/built-in.o
 .text          0x00000000        0x0 drivers/net/built-in.o
 .text.enc_miiphy_read
                0x00000000       0x4c drivers/net/built-in.o
 .text.enc_miiphy_write
                0x00000000       0x4c drivers/net/built-in.o
 .text.cpsw_am33xx_cm_get_macid.isra.0
                0x00000000       0x78 drivers/net/built-in.o
 .text.davinci_emac_3517_get_macid.isra.0
                0x00000000       0x78 drivers/net/built-in.o
 .text.ti_cm_get_macid
                0x00000000       0xa0 drivers/net/built-in.o
 .text.cpsw_mdio_free
                0x00000000       0x2e drivers/net/built-in.o
 .rodata.cpsw_am33xx_cm_get_macid.isra.0.str1.1
                0x00000000       0x59 drivers/net/built-in.o
 .rodata.ti_cm_get_macid.str1.1
                0x00000000       0x7b drivers/net/built-in.o
 .data          0x00000000        0x0 drivers/net/built-in.o
 .bss           0x00000000        0x0 drivers/net/built-in.o
 .text          0x00000000        0x0 drivers/net/phy/built-in.o
 .text.phy_set_supported
                0x00000000       0x38 drivers/net/phy/built-in.o
 .text.miiphy_reset
                0x00000000       0x1a drivers/net/phy/built-in.o
 .text.phy_shutdown
                0x00000000        0xe drivers/net/phy/built-in.o
 .text.phy_get_interface_by_name
                0x00000000       0x28 drivers/net/phy/built-in.o
 .rodata.phy_interface_strings
                0x00000000       0x58 drivers/net/phy/built-in.o
 .data          0x00000000        0x0 drivers/net/phy/built-in.o
 .bss           0x00000000        0x0 drivers/net/phy/built-in.o
 .text          0x00000000        0x0 drivers/power/pmic/built-in.o
 .text.tps65217_reg_read
                0x00000000       0x14 drivers/power/pmic/built-in.o
 .text.tps65217_reg_write
                0x00000000       0x98 drivers/power/pmic/built-in.o
 .text.tps65217_voltage_update
                0x00000000       0x32 drivers/power/pmic/built-in.o
 .text.power_tps65217_init
                0x00000000       0x24 drivers/power/pmic/built-in.o
 .text.power_tps65910_init
                0x00000000       0x24 drivers/power/pmic/built-in.o
 .text.tps65910_set_i2c_control
                0x00000000       0x28 drivers/power/pmic/built-in.o
 .text.tps65910_voltage_update
                0x00000000       0x64 drivers/power/pmic/built-in.o
 .data          0x00000000        0x8 drivers/power/pmic/built-in.o
 .bss           0x00000000        0x0 drivers/power/pmic/built-in.o
 .comment       0x00000000       0xcc drivers/power/pmic/built-in.o
 .note.GNU-stack
                0x00000000        0x0 drivers/power/pmic/built-in.o
 .ARM.attributes
                0x00000000       0x2d drivers/power/pmic/built-in.o
 .debug_aranges
                0x00000000       0x68 drivers/power/pmic/built-in.o
 .debug_info    0x00000000      0xe2a drivers/power/pmic/built-in.o
 .debug_abbrev  0x00000000      0x405 drivers/power/pmic/built-in.o
 .debug_line    0x00000000      0x4a2 drivers/power/pmic/built-in.o
 .debug_frame   0x00000000       0xdc drivers/power/pmic/built-in.o
 .debug_str     0x00000000     0x155a drivers/power/pmic/built-in.o
 .debug_loclists
                0x00000000      0x3b9 drivers/power/pmic/built-in.o
 .debug_rnglists
                0x00000000       0x78 drivers/power/pmic/built-in.o
 .text          0x00000000        0x0 drivers/serial/built-in.o
 .text.serial_getconfig
                0x00000000        0xe drivers/serial/built-in.o
 .text.serial_setconfig
                0x00000000        0xe drivers/serial/built-in.o
 .text.serial_getinfo
                0x00000000       0x1e drivers/serial/built-in.o
 .text.ns16550_calc_divisor
                0x00000000       0x10 drivers/serial/built-in.o
 .text.NS16550_reinit
                0x00000000       0x38 drivers/serial/built-in.o
 .text.NS16550_putc
                0x00000000       0x2a drivers/serial/built-in.o
 .text.NS16550_getc
                0x00000000       0x22 drivers/serial/built-in.o
 .text.NS16550_tstc
                0x00000000       0x10 drivers/serial/built-in.o
 .data          0x00000000        0x0 drivers/serial/built-in.o
 .bss           0x00000000        0x0 drivers/serial/built-in.o
 .text          0x00000000        0x0 drivers/spi/built-in.o
 .text.spi_set_wordlen
                0x00000000       0x20 drivers/spi/built-in.o
 .rodata.spi_set_wordlen.str1.1
                0x00000000       0x19 drivers/spi/built-in.o
 .data          0x00000000        0x0 drivers/spi/built-in.o
 .bss           0x00000000        0x0 drivers/spi/built-in.o
 .text          0x00000000        0x0 drivers/usb/gadget/built-in.o
 .text.usb_function_deactivate
                0x00000000       0x2a drivers/usb/gadget/built-in.o
 .text.usb_function_activate
                0x00000000       0x2a drivers/usb/gadget/built-in.o
 .text.usb_string_ids_tab
                0x00000000       0x28 drivers/usb/gadget/built-in.o
 .text.usb_string_ids_n
                0x00000000       0x1c drivers/usb/gadget/built-in.o
 .text.board_usb_init
                0x00000000        0x4 drivers/usb/gadget/built-in.o
 .text.board_usb_cleanup
                0x00000000        0x4 drivers/usb/gadget/built-in.o
 .data          0x00000000        0x0 drivers/usb/gadget/built-in.o
 .bss           0x00000000        0x0 drivers/usb/gadget/built-in.o
 .text          0x00000000        0x0 drivers/usb/gadget/udc/built-in.o
 .data          0x00000000        0x0 drivers/usb/gadget/udc/built-in.o
 .bss           0x00000000        0x0 drivers/usb/gadget/udc/built-in.o
 .text          0x00000000        0x0 drivers/usb/musb-new/built-in.o
 .text.musb_gadget_cleanup
                0x00000000        0x2 drivers/usb/musb-new/built-in.o
 .text.musb_g_resume
                0x00000000        0x2 drivers/usb/musb-new/built-in.o
 .text.musb_g_suspend
                0x00000000        0x2 drivers/usb/musb-new/built-in.o
 .text.musb_g_wakeup
                0x00000000        0x2 drivers/usb/musb-new/built-in.o
 .text.musb_g_disconnect
                0x00000000       0x38 drivers/usb/musb-new/built-in.o
 .text.musb_g_reset
                0x00000000       0x66 drivers/usb/musb-new/built-in.o
 .text.create_int_queue
                0x00000000       0xa8 drivers/usb/musb-new/built-in.o
 .text.poll_int_queue
                0x00000000       0x28 drivers/usb/musb-new/built-in.o
 .text.destroy_int_queue
                0x00000000       0x44 drivers/usb/musb-new/built-in.o
 .rodata.create_int_queue.str1.1
                0x00000000       0x5e drivers/usb/musb-new/built-in.o
 .data          0x00000000        0x0 drivers/usb/musb-new/built-in.o
 .bss           0x00000000        0x0 drivers/usb/musb-new/built-in.o
 .text          0x00000000        0x0 dts/built-in.o
 .data          0x00000000        0x0 dts/built-in.o
 .bss           0x00000000        0x0 dts/built-in.o
 .text          0x00000000        0x0 env/built-in.o
 .text.env_flags_parse_varaccess_from_binflags
                0x00000000       0x30 env/built-in.o
 .rodata.env_flags_parse_varaccess_from_binflags.str1.1
                0x00000000       0x2c env/built-in.o
 .data          0x00000000        0x0 env/built-in.o
 .bss           0x00000000        0x0 env/built-in.o
 .text          0x00000000        0x0 fs/built-in.o
 .text.fs_uuid  0x00000000       0x1c fs/built-in.o
 .text.do_fs_uuid
                0x00000000       0x58 fs/built-in.o
 .text.print_revoke_blks
                0x00000000       0x34 fs/built-in.o
 .text.fat_register_device
                0x00000000       0x54 fs/built-in.o
 .text.file_fat_read
                0x00000000       0x22 fs/built-in.o
 .rodata.print_revoke_blks.str1.1
                0x00000000       0x25 fs/built-in.o
 .rodata.fat_register_device.str1.1
                0x00000000       0x2b fs/built-in.o
 .data          0x00000000        0x0 fs/built-in.o
 .bss           0x00000000        0x0 fs/built-in.o
 .bss.ext4fs_symlinknest
                0x00000000        0x4 fs/built-in.o
 .text          0x00000000        0x0 lib/built-in.o
 .text.efi_serialize_load_option
                0x00000000       0x7a lib/built-in.o
 .text.indent_string
                0x00000000       0x20 lib/built-in.o
 .text.__efi_nesting
                0x00000000        0xc lib/built-in.o
 .text.__efi_nesting_inc
                0x00000000       0x10 lib/built-in.o
 .text.__efi_nesting_dec
                0x00000000       0x10 lib/built-in.o
 .text.dp_fill  0x00000000       0x8c lib/built-in.o
 .text.efi_dp_from_dev
                0x00000000       0x54 lib/built-in.o
 .text.efi_hii_packagelist_exists
                0x00000000       0x1c lib/built-in.o
 .text.efi_hii_package_len
                0x00000000       0x10 lib/built-in.o
 .text.get_package_list_handle
                0x00000000       0x44 lib/built-in.o
 .text.unregister_package_notify
                0x00000000       0x14 lib/built-in.o
 .text.register_package_notify
                0x00000000       0x34 lib/built-in.o
 .text.export_package_lists
                0x00000000       0x28 lib/built-in.o
 .text.list_package_lists
                0x00000000       0xa8 lib/built-in.o
 .text.find_keyboard_layouts
                0x00000000       0x80 lib/built-in.o
 .text.get_keyboard_layout
                0x00000000       0x90 lib/built-in.o
 .text.remove_guid_package
                0x00000000       0x24 lib/built-in.o
 .text.free_keyboard_layouts
                0x00000000       0x30 lib/built-in.o
 .text.remove_keyboard_package
                0x00000000       0x2c lib/built-in.o
 .text.add_packages
                0x00000000      0x25c lib/built-in.o
 .text.language_match
                0x00000000       0x2e lib/built-in.o
 .text.get_secondary_languages
                0x00000000       0x5c lib/built-in.o
 .text.get_string
                0x00000000       0x8c lib/built-in.o
 .text.set_string
                0x00000000       0xc0 lib/built-in.o
 .text.new_string
                0x00000000       0xb8 lib/built-in.o
 .text.get_languages
                0x00000000       0xa4 lib/built-in.o
 .text.remove_strings_package
                0x00000000       0x4a lib/built-in.o
 .text.free_packagelist
                0x00000000       0x2c lib/built-in.o
 .text.remove_package_list
                0x00000000       0x2c lib/built-in.o
 .text.new_package_list
                0x00000000       0x7c lib/built-in.o
 .text.set_keyboard_layout
                0x00000000       0x14 lib/built-in.o
 .text.update_package_list
                0x00000000       0xc4 lib/built-in.o
 .text.form_callback
                0x00000000       0x14 lib/built-in.o
 .text.get_alt_config
                0x00000000       0x14 lib/built-in.o
 .text.config_to_block
                0x00000000       0x14 lib/built-in.o
 .text.block_to_config
                0x00000000       0x14 lib/built-in.o
 .text.route_config
                0x00000000       0x14 lib/built-in.o
 .text.export_config
                0x00000000       0x14 lib/built-in.o
 .text.extract_config
                0x00000000       0x14 lib/built-in.o
 .text.extract_config_access
                0x00000000       0x14 lib/built-in.o
 .text.route_config_access
                0x00000000       0x14 lib/built-in.o
 .text.invalidate_icache_all
                0x00000000        0x2 lib/built-in.o
 .text.efi_add_runtime_mmio
                0x00000000       0x74 lib/built-in.o
 .text.fdt_nop_property
                0x00000000       0x2c lib/built-in.o
 .text.fdt_nop_node
                0x00000000       0x30 lib/built-in.o
 .text.fdt_sw_check_header_
                0x00000000       0x14 lib/built-in.o
 .text.fdt_grab_space_
                0x00000000       0x2e lib/built-in.o
 .text.fdt_create
                0x00000000       0x40 lib/built-in.o
 .text.fdt_resize
                0x00000000       0x78 lib/built-in.o
 .text.fdt_add_reservemap_entry
                0x00000000       0x50 lib/built-in.o
 .text.fdt_finish_reservemap
                0x00000000       0x14 lib/built-in.o
 .text.fdt_begin_node
                0x00000000       0x42 lib/built-in.o
 .text.fdt_end_node
                0x00000000       0x26 lib/built-in.o
 .text.fdt_property_placeholder
                0x00000000       0xa6 lib/built-in.o
 .text.fdt_property
                0x00000000       0x22 lib/built-in.o
 .text.fdt_finish
                0x00000000       0x94 lib/built-in.o
 .text.fdt_set_name
                0x00000000       0x5a lib/built-in.o
 .text.fdt_appendprop
                0x00000000       0x86 lib/built-in.o
 .text.fdt_create_empty_tree
                0x00000000       0x44 lib/built-in.o
 .text.fdt_get_alias
                0x00000000       0x1a lib/built-in.o
 .text.fdt_node_offset_by_prop_value
                0x00000000       0x58 lib/built-in.o
 .text.fdt_stringlist_contains
                0x00000000       0x46 lib/built-in.o
 .text.fdt_stringlist_search
                0x00000000       0x66 lib/built-in.o
 .text.fdt_node_check_compatible
                0x00000000       0x28 lib/built-in.o
 .text.fdt_node_offset_by_compatible
                0x00000000       0x34 lib/built-in.o
 .text.fdt_add_region
                0x00000000       0x56 lib/built-in.o
 .text.fdt_find_regions
                0x00000000      0x214 lib/built-in.o
 .text.fdt_add_alias_regions
                0x00000000      0x120 lib/built-in.o
 .text.fdt_next_region
                0x00000000      0x330 lib/built-in.o
 .text.fdt_first_region
                0x00000000       0x3a lib/built-in.o
 .text.u16_strnlen
                0x00000000       0x14 lib/built-in.o
 .text.u16_strcpy
                0x00000000       0x12 lib/built-in.o
 .text.u16_strdup
                0x00000000       0x24 lib/built-in.o
 .text.crc7     0x00000000       0x1c lib/built-in.o
 .text.crc8     0x00000000       0x2e lib/built-in.o
 .text.fdtdec_get_uint
                0x00000000       0x1c lib/built-in.o
 .text.ldiv     0x00000000       0x14 lib/built-in.o
 .text.byteReverse
                0x00000000        0x2 lib/built-in.o
 .text.md5      0x00000000       0x44 lib/built-in.o
 .text.rc4_encode
                0x00000000       0x90 lib/built-in.o
 .text.__rb_erase_color
                0x00000000      0x16c lib/built-in.o
 .text.rb_erase
                0x00000000      0x1d0 lib/built-in.o
 .text.__rb_insert_augmented
                0x00000000       0xec lib/built-in.o
 .text.rb_first
                0x00000000       0x10 lib/built-in.o
 .text.rb_last  0x00000000       0x10 lib/built-in.o
 .text.rb_next  0x00000000       0x2c lib/built-in.o
 .text.rb_prev  0x00000000       0x2c lib/built-in.o
 .text.rb_replace_node
                0x00000000       0x3e lib/built-in.o
 .text.sha1_csum
                0x00000000       0x22 lib/built-in.o
 .text.sha1_hmac
                0x00000000       0xb6 lib/built-in.o
 .text.sha1_self_test
                0x00000000        0x4 lib/built-in.o
 .text.inflateInit_
                0x00000000        0xa lib/built-in.o
 .text.fdtdec_get_compatible
                0x00000000        0xc lib/built-in.o
 .text.fdtdec_get_uint64
                0x00000000       0x24 lib/built-in.o
 .text.get_next_memory_node
                0x00000000       0x38 lib/built-in.o
 .text.fdtdec_lookup
                0x00000000       0x28 lib/built-in.o
 .text.fdtdec_next_compatible
                0x00000000       0x10 lib/built-in.o
 .text.fdtdec_next_compatible_subnode
                0x00000000       0x3c lib/built-in.o
 .text.fdtdec_next_alias
                0x00000000       0x5c lib/built-in.o
 .text.fdtdec_add_aliases_for_id
                0x00000000      0x170 lib/built-in.o
 .text.fdtdec_find_aliases_for_id
                0x00000000       0x30 lib/built-in.o
 .text.fdtdec_check_fdt
                0x00000000        0xa lib/built-in.o
 .text.fdtdec_lookup_phandle
                0x00000000       0x20 lib/built-in.o
 .text.decode_timing_property
                0x00000000       0x4a lib/built-in.o
 .text.fdtdec_get_int_array_count
                0x00000000       0x38 lib/built-in.o
 .text.fdtdec_locate_array
                0x00000000       0x18 lib/built-in.o
 .text.fdtdec_get_bool
                0x00000000       0x14 lib/built-in.o
 .text.fdtdec_get_child_count
                0x00000000       0x20 lib/built-in.o
 .text.fdtdec_get_byte_array
                0x00000000       0x24 lib/built-in.o
 .text.fdtdec_locate_byte_array
                0x00000000       0x16 lib/built-in.o
 .text.fdtdec_get_config_bool
                0x00000000       0x2c lib/built-in.o
 .text.fdtdec_get_addr_size_fixed
                0x00000000       0x6c lib/built-in.o
 .text.fdtdec_get_addr_size_auto_parent
                0x00000000       0x46 lib/built-in.o
 .text.fdtdec_get_addr_size_auto_noparent
                0x00000000       0x34 lib/built-in.o
 .text.fdtdec_get_addr_size
                0x00000000       0x1e lib/built-in.o
 .text.fdtdec_get_addr
                0x00000000        0x6 lib/built-in.o
 .text.fdt_get_named_resource
                0x00000000       0x2c lib/built-in.o
 .text.fdtdec_decode_display_timing
                0x00000000      0x20c lib/built-in.o
 .text.fdtdec_setup_mem_size_base
                0x00000000       0x48 lib/built-in.o
 .text.fdtdec_setup_memory_banksize
                0x00000000       0x9c lib/built-in.o
 .text.fdtdec_decode_ram_size
                0x00000000      0x168 lib/built-in.o
 .text.print_freq
                0x00000000      0x118 lib/built-in.o
 .text.div_s64_rem
                0x00000000       0x6a lib/built-in.o
 .text.div64_u64_rem
                0x00000000       0xee lib/built-in.o
 .text.div64_u64
                0x00000000       0xda lib/built-in.o
 .text.div64_s64
                0x00000000       0x30 lib/built-in.o
 .text.iter_div_u64_rem
                0x00000000       0x24 lib/built-in.o
 .text.copy_from_user
                0x00000000        0xa lib/built-in.o
 .text.get_mem  0x00000000       0x10 lib/built-in.o
 .text.kmem_cache_alloc
                0x00000000        0xe lib/built-in.o
 .text.lmb_init
                0x00000000        0xc lib/built-in.o
 .text.lmb_is_reserved
                0x00000000       0x28 lib/built-in.o
 .text.arch_lmb_reserve
                0x00000000        0x2 lib/built-in.o
 .text.membuff_purge
                0x00000000        0x8 lib/built-in.o
 .text.membuff_putraw
                0x00000000       0x68 lib/built-in.o
 .text.membuff_putbyte
                0x00000000       0x1c lib/built-in.o
 .text.membuff_getraw
                0x00000000       0x50 lib/built-in.o
 .text.membuff_getbyte
                0x00000000       0x22 lib/built-in.o
 .text.membuff_peekbyte
                0x00000000       0x20 lib/built-in.o
 .text.membuff_get
                0x00000000       0x46 lib/built-in.o
 .text.membuff_put
                0x00000000       0x3e lib/built-in.o
 .text.membuff_isempty
                0x00000000        0xc lib/built-in.o
 .text.membuff_avail
                0x00000000       0x2a lib/built-in.o
 .text.membuff_size
                0x00000000        0x8 lib/built-in.o
 .text.membuff_makecontig
                0x00000000       0x44 lib/built-in.o
 .text.membuff_free
                0x00000000       0x1a lib/built-in.o
 .text.membuff_readline
                0x00000000       0x68 lib/built-in.o
 .text.membuff_extend_by
                0x00000000       0x78 lib/built-in.o
 .text.membuff_init
                0x00000000        0xc lib/built-in.o
 .text.membuff_new
                0x00000000       0x22 lib/built-in.o
 .text.membuff_uninit
                0x00000000        0xc lib/built-in.o
 .text.membuff_dispose
                0x00000000       0x14 lib/built-in.o
 .text.strchrnul
                0x00000000       0x14 lib/built-in.o
 .text.strcspn  0x00000000       0x20 lib/built-in.o
 .text.strswab  0x00000000       0x26 lib/built-in.o
 .text.memscan  0x00000000       0x16 lib/built-in.o
 .text.memchr_inv
                0x00000000       0x8e lib/built-in.o
 .text.table_compute_checksum
                0x00000000       0x18 lib/built-in.o
 .text.get_ticks
                0x00000000       0x26 lib/built-in.o
 .text.timer_init
                0x00000000        0x4 lib/built-in.o
 .text.get_timer
                0x00000000       0x10 lib/built-in.o
 .text.__udelay
                0x00000000       0x68 lib/built-in.o
 .text.print_hex_dump_bytes
                0x00000000       0x16 lib/built-in.o
 .text.srand    0x00000000        0xc lib/built-in.o
 .text.__assert_fail
                0x00000000       0x10 lib/built-in.o
 .text.scnprintf
                0x00000000       0x1a lib/built-in.o
 .text.print_grouped_ull
                0x00000000       0x5c lib/built-in.o
 .text.str2long
                0x00000000       0x22 lib/built-in.o
 .text.strmhz   0x00000000       0x4c lib/built-in.o
 .rodata.indent_string.str1.1
                0x00000000       0x15 lib/built-in.o
 .rodata.efi_guid_event_group_ready_to_boot
                0x00000000       0x10 lib/built-in.o
 .rodata.efi_guid_event_group_memory_map_change
                0x00000000       0x10 lib/built-in.o
 .rodata.efi_guid_event_group_virtual_address_change
                0x00000000       0x10 lib/built-in.o
 .rodata.efi_hii_string
                0x00000000       0x14 lib/built-in.o
 .rodata.efi_hii_database
                0x00000000       0x2c lib/built-in.o
 .rodata.efi_guid_hii_string_protocol
                0x00000000       0x10 lib/built-in.o
 .rodata.efi_guid_hii_database_protocol
                0x00000000       0x10 lib/built-in.o
 .rodata.efi_hii_config_access
                0x00000000        0xc lib/built-in.o
 .rodata.efi_hii_config_routing
                0x00000000       0x18 lib/built-in.o
 .rodata.efi_guid_hii_config_access_protocol
                0x00000000       0x10 lib/built-in.o
 .rodata.efi_guid_hii_config_routing_protocol
                0x00000000       0x10 lib/built-in.o
 .rodata.fdt_create_empty_tree.str1.1
                0x00000000        0x1 lib/built-in.o
 .rodata.fdt_node_check_compatible.str1.1
                0x00000000        0xb lib/built-in.o
 .rodata.fdt_add_alias_regions.str1.1
                0x00000000        0x8 lib/built-in.o
 .rodata.crc7_syndrome_table
                0x00000000      0x100 lib/built-in.o
 .rodata.sha1_der_prefix
                0x00000000        0xf lib/built-in.o
 .rodata.sha256_der_prefix
                0x00000000       0x13 lib/built-in.o
 .rodata.z_errmsg
                0x00000000       0x28 lib/built-in.o
 .rodata.get_next_memory_node.str1.1
                0x00000000       0x13 lib/built-in.o
 .rodata.fdtdec_next_alias.str1.1
                0x00000000        0x7 lib/built-in.o
 .rodata.fdtdec_decode_display_timing.str1.1
                0x00000000       0xca lib/built-in.o
 .rodata.fdtdec_setup_mem_size_base.str1.1
                0x00000000        0xc lib/built-in.o
 .rodata.fdtdec_decode_ram_size.str1.1
                0x00000000       0x21 lib/built-in.o
 .rodata.compat_names
                0x00000000       0x8c lib/built-in.o
 .rodata.names.1
                0x00000000        0x3 lib/built-in.o
 .rodata.hex_asc_upper
                0x00000000       0x11 lib/built-in.o
 .rodata.__assert_fail.str1.1
                0x00000000       0x22 lib/built-in.o
 .rodata.print_grouped_ull.str1.1
                0x00000000        0xb lib/built-in.o
 .rodata.strmhz.str1.1
                0x00000000        0xb lib/built-in.o
 .data          0x00000000        0x0 lib/built-in.o
 .data.efi_keyboard_layout_list
                0x00000000        0x8 lib/built-in.o
 .data.efi_package_lists
                0x00000000        0x8 lib/built-in.o
 .data.current  0x00000000        0x4 lib/built-in.o
 .data.cur      0x00000000        0x4 lib/built-in.o
 .bss           0x00000000        0x0 lib/built-in.o
 .bss.nesting_level
                0x00000000        0x4 lib/built-in.o
 .text          0x00000000        0x0 net/built-in.o
 .text.add_ip_checksums
                0x00000000       0x2c net/built-in.o
 .text.eth_mcast_join
                0x00000000       0x40 net/built-in.o
 .text.eth_is_active
                0x00000000        0xc net/built-in.o
 .text.net_get_udp_handler
                0x00000000        0xc net/built-in.o
 .text.net_set_arp_handler
                0x00000000       0x18 net/built-in.o
 .text.random_port
                0x00000000       0x12 net/built-in.o
 .text.vlan_to_string
                0x00000000       0x30 net/built-in.o
 .text.env_get_vlan
                0x00000000        0xe net/built-in.o
 .rodata.vlan_to_string.str1.1
                0x00000000        0x8 net/built-in.o
 .data          0x00000000        0x0 net/built-in.o
 .bss           0x00000000        0x0 net/built-in.o
 .bss.net_busy_flag
                0x00000000        0x4 net/built-in.o
 .text          0x00000000        0x0 arch/arm/lib/eabi_compat.o
 .data          0x00000000        0x0 arch/arm/lib/eabi_compat.o
 .bss           0x00000000        0x0 arch/arm/lib/eabi_compat.o
 .rodata.raise.str1.1
                0x00000000       0x1b arch/arm/lib/eabi_compat.o
 .text.raise    0x00000000       0x14 arch/arm/lib/eabi_compat.o
 .text.__aeabi_unwind_cpp_pr0
                0x00000000        0x2 arch/arm/lib/eabi_compat.o
 .text.__aeabi_unwind_cpp_pr1
                0x00000000        0x2 arch/arm/lib/eabi_compat.o
 .text.__aeabi_memcpy
                0x00000000        0x4 arch/arm/lib/eabi_compat.o
 .text.__aeabi_memset
                0x00000000        0xa arch/arm/lib/eabi_compat.o
 .debug_info    0x00000000      0x269 arch/arm/lib/eabi_compat.o
 .debug_abbrev  0x00000000      0x12e arch/arm/lib/eabi_compat.o
 .debug_loclists
                0x00000000       0xec arch/arm/lib/eabi_compat.o
 .debug_aranges
                0x00000000       0x40 arch/arm/lib/eabi_compat.o
 .debug_rnglists
                0x00000000       0x2b arch/arm/lib/eabi_compat.o
 .debug_line    0x00000000      0x114 arch/arm/lib/eabi_compat.o
 .debug_str     0x00000000      0x366 arch/arm/lib/eabi_compat.o
 .comment       0x00000000       0x66 arch/arm/lib/eabi_compat.o
 .note.GNU-stack
                0x00000000        0x0 arch/arm/lib/eabi_compat.o
 .debug_frame   0x00000000       0x68 arch/arm/lib/eabi_compat.o
 .ARM.attributes
                0x00000000       0x2d arch/arm/lib/eabi_compat.o
 .text          0x00000000        0x0 arch/arm/lib/lib.a(lib1funcs.o)
 .data          0x00000000        0x0 arch/arm/lib/lib.a(lib1funcs.o)
 .bss           0x00000000        0x0 arch/arm/lib/lib.a(lib1funcs.o)
 .text.__umodsi3
                0x00000000       0xa0 arch/arm/lib/lib.a(lib1funcs.o)
 .text.__modsi3
                0x00000000       0xb8 arch/arm/lib/lib.a(lib1funcs.o)
 .text          0x00000000        0x0 arch/arm/lib/lib.a(uldivmod.o)
 .data          0x00000000        0x0 arch/arm/lib/lib.a(uldivmod.o)
 .bss           0x00000000        0x0 arch/arm/lib/lib.a(uldivmod.o)
 .text          0x00000000        0x0 arch/arm/lib/lib.a(div0.o)
 .data          0x00000000        0x0 arch/arm/lib/lib.a(div0.o)
 .bss           0x00000000        0x0 arch/arm/lib/lib.a(div0.o)

Memory Configuration

Name             Origin             Length             Attributes
*default*        0x00000000         0xffffffff

Linker script and memory map

Address of section .text set to 0x80800000
                0x00000000                        . = 0x0
                0x00000000                        . = ALIGN (0x4)

.text           0x80800000     0x17f8
 *(.__image_copy_start)
 .__image_copy_start
                0x80800000        0x0 arch/arm/lib/built-in.o
                0x80800000                __image_copy_start
 *(.vectors)
 .vectors       0x80800000      0x2e8 arch/arm/lib/built-in.o
                0x80800000                _start
                0x80800020                _undefined_instruction
                0x80800024                _software_interrupt
                0x80800028                _prefetch_abort
                0x8080002c                _data_abort
                0x80800030                _not_used
                0x80800034                _irq
                0x80800038                _fiq
                0x80800040                IRQ_STACK_START_IN
 arch/arm/cpu/armv7/start.o(.text*)
 .text          0x808002e8       0xc8 arch/arm/cpu/armv7/start.o
                0x808002e8                reset
                0x808002ec                save_boot_params_ret
                0x80800320                c_runtime_cpu_setup
                0x80800334                cpu_init_cp15
 board/ti/am335x/built-in.o(.text*)
 .text.cpsw_control
                0x808003b0        0x2 board/ti/am335x/built-in.o
 *fill*         0x808003b2        0x2 
 .text.request_and_set_gpio
                0x808003b4       0x58 board/ti/am335x/built-in.o
 .text.do_cape_detect
                0x8080040c      0x674 board/ti/am335x/built-in.o
                0x8080040c                do_cape_detect
 .text.board_init
                0x80800a80      0x1f8 board/ti/am335x/built-in.o
                0x80800a80                board_init
 .text.board_late_init
                0x80800c78      0x250 board/ti/am335x/built-in.o
                0x80800c78                board_late_init
 .text.board_eth_init
                0x80800ec8      0x1d0 board/ti/am335x/built-in.o
                0x80800ec8                board_eth_init
 .text.Gpio_Init
                0x80801098       0x40 board/ti/am335x/built-in.o
                0x80801098                Gpio_Init
 .text.Delay_HD44780
                0x808010d8       0x18 board/ti/am335x/built-in.o
                0x808010d8                Delay_HD44780
 .text.LCD_Write_High_Nibble
                0x808010f0       0x9c board/ti/am335x/built-in.o
                0x808010f0                LCD_Write_High_Nibble
 .text.LCD_Write_Low_Nibble
                0x8080118c       0xa4 board/ti/am335x/built-in.o
                0x8080118c                LCD_Write_Low_Nibble
 .text.hd44780_write
                0x80801230       0x12 board/ti/am335x/built-in.o
                0x80801230                hd44780_write
 *fill*         0x80801242        0x2 
 .text.hd44780_wr_cmd
                0x80801244       0x14 board/ti/am335x/built-in.o
                0x80801244                hd44780_wr_cmd
 .text.hd44780_wr_data
                0x80801258       0x18 board/ti/am335x/built-in.o
                0x80801258                hd44780_wr_data
 .text.HD44780_GotoXY
                0x80801270       0x16 board/ti/am335x/built-in.o
                0x80801270                HD44780_GotoXY
 .text.HD44780_PutStr
                0x80801286       0x14 board/ti/am335x/built-in.o
                0x80801286                HD44780_PutStr
 .text.HD44780_ClrScr
                0x8080129a        0x6 board/ti/am335x/built-in.o
                0x8080129a                HD44780_ClrScr
 .text.Lcd_Init
                0x808012a0       0x94 board/ti/am335x/built-in.o
                0x808012a0                Lcd_Init
 .text.HD44780_Str_XY
                0x80801334       0x12 board/ti/am335x/built-in.o
                0x80801334                HD44780_Str_XY
 *fill*         0x80801346        0x2 
 .text.lcd_bootmenu
                0x80801348      0x190 board/ti/am335x/built-in.o
                0x80801348                lcd_bootmenu
 .text.gpio_output_testcase
                0x808014d8       0x40 board/ti/am335x/built-in.o
                0x808014d8                gpio_output_testcase
 .text.gpio_input_testcase
                0x80801518       0x70 board/ti/am335x/built-in.o
                0x80801518                gpio_input_testcase
 .text.All_Test_Cases
                0x80801588      0x270 board/ti/am335x/built-in.o
                0x80801588                All_Test_Cases

.glue_7         0x808017f8        0x0
 .glue_7        0x808017f8        0x0 linker stubs

.glue_7t        0x808017f8        0x0
 .glue_7t       0x808017f8        0x0 linker stubs

.vfp11_veneer   0x808017f8        0x0
 .vfp11_veneer  0x808017f8        0x0 linker stubs

.v4_bx          0x808017f8        0x0
 .v4_bx         0x808017f8        0x0 linker stubs

.iplt           0x808017f8        0x0
 .iplt          0x808017f8        0x0 arch/arm/cpu/armv7/start.o

.__efi_runtime_start
                0x808017f8        0x0
 *(.__efi_runtime_start)
 .__efi_runtime_start
                0x808017f8        0x0 arch/arm/lib/built-in.o

.efi_runtime    0x808017f8      0x720
 *(.text.efi_runtime*)
 .text.efi_runtime
                0x808017f8       0xec lib/built-in.o
                0x808017f8                efi_reset_system
                0x808017fa                efi_get_time
                0x8080181c                efi_update_capsule
                0x80801824                efi_query_capsule_caps
                0x8080182c                efi_query_variable_info
                0x80801834                efi_update_table_header_crc32
                0x80801848                crc32_no_comp
                0x808018d8                crc32
 .text.efi_runtime_relocate
                0x808018e4       0xdc lib/built-in.o
                0x808018e4                efi_runtime_relocate
 *(.rodata.efi_runtime*)
 .rodata.efi_runtime_relocate.str1.1
                0x808019c0       0x4e lib/built-in.o
 *fill*         0x80801a0e        0x2 
 .rodata.efi_runtime_detach_list
                0x80801a10       0x50 lib/built-in.o
 *(.data.efi_runtime*)
 .data.efi_runtime
                0x80801a60      0x4b0 lib/built-in.o
                0x80801a60                systab
                0x80801ac0                efi_runtime_services
 .data.efi_runtime_mmio
                0x80801f10        0x8 lib/built-in.o
                0x80801f10                efi_runtime_mmio

.__efi_runtime_stop
                0x80801f18        0x0
 *(.__efi_runtime_stop)
 .__efi_runtime_stop
                0x80801f18        0x0 arch/arm/lib/built-in.o

.text_rest      0x80801f20    0x46638
 *(.text*)
 .text          0x80801f20      0x168 arch/arm/cpu/armv7/built-in.o
                0x80801f20                __v7_flush_dcache_all
                0x80801fbc                v7_flush_dcache_all
                0x80801fcc                __v7_invalidate_dcache_all
                0x80802068                v7_invalidate_dcache_all
                0x80802078                allow_unaligned
 .text.invalidate_icache_all
                0x80802088       0x14 arch/arm/cpu/armv7/built-in.o
                0x80802088                invalidate_icache_all
 .text.v7_outer_cache_enable
                0x8080209c        0x2 arch/arm/cpu/armv7/built-in.o
                0x8080209c                v7_outer_cache_enable
 .text.v7_outer_cache_disable
                0x8080209e        0x2 arch/arm/cpu/armv7/built-in.o
                0x8080209e                v7_outer_cache_disable
 .text.v7_outer_cache_flush_all
                0x808020a0        0x2 arch/arm/cpu/armv7/built-in.o
                0x808020a0                v7_outer_cache_flush_all
 .text.flush_dcache_all
                0x808020a2        0xe arch/arm/cpu/armv7/built-in.o
                0x808020a2                flush_dcache_all
 .text.v7_outer_cache_inval_all
                0x808020b0        0x2 arch/arm/cpu/armv7/built-in.o
                0x808020b0                v7_outer_cache_inval_all
 .text.invalidate_dcache_all
                0x808020b2        0xe arch/arm/cpu/armv7/built-in.o
                0x808020b2                invalidate_dcache_all
 .text.arm_init_before_mmu
                0x808020c0       0x22 arch/arm/cpu/armv7/built-in.o
                0x808020c0                arm_init_before_mmu
 .text.v7_outer_cache_flush_range
                0x808020e2        0x2 arch/arm/cpu/armv7/built-in.o
                0x808020e2                v7_outer_cache_flush_range
 .text.flush_dcache_range
                0x808020e4       0x38 arch/arm/cpu/armv7/built-in.o
                0x808020e4                flush_dcache_range
 .text.v7_outer_cache_inval_range
                0x8080211c        0x2 arch/arm/cpu/armv7/built-in.o
                0x8080211c                v7_outer_cache_inval_range
 .text.invalidate_dcache_range
                0x8080211e       0x40 arch/arm/cpu/armv7/built-in.o
                0x8080211e                invalidate_dcache_range
 .text.cpu_cache_initialization
                0x8080215e        0x2 arch/arm/cpu/armv7/built-in.o
                0x8080215e                cpu_cache_initialization
 .text.cleanup_before_linux_select
                0x80802160       0x3e arch/arm/cpu/armv7/built-in.o
                0x80802160                cleanup_before_linux_select
 .text.cleanup_before_linux
                0x8080219e        0x6 arch/arm/cpu/armv7/built-in.o
                0x8080219e                cleanup_before_linux
 .text.v7_arch_cp15_set_acr
                0x808021a4        0x6 arch/arm/cpu/armv7/built-in.o
                0x808021a4                v7_arch_cp15_set_acr
 *fill*         0x808021aa       0x16 
 .text          0x808021c0      0x424 arch/arm/lib/built-in.o
                0x808021c0                _main
                0x80802260                memset
                0x80802300                memcpy
 .text.setjmp   0x808025e4       0x10 arch/arm/lib/built-in.o
                0x808025e4                setjmp
 .text.longjmp  0x808025f4       0x1c arch/arm/lib/built-in.o
                0x808025f4                longjmp
 .text.relocate_vectors
                0x80802610       0x70 arch/arm/lib/built-in.o
                0x80802610                relocate_vectors
                0x8080261c                relocate_code
 .text.arch_fixup_fdt
                0x80802680       0x3a arch/arm/lib/built-in.o
                0x80802680                arch_fixup_fdt
 .text.arch_lmb_reserve
                0x808026ba       0x50 arch/arm/lib/built-in.o
                0x808026ba                arch_lmb_reserve
 .text.board_quiesce_devices
                0x8080270a        0x2 arch/arm/lib/built-in.o
                0x8080270a                board_quiesce_devices
 .text.boot_jump_linux
                0x8080270c       0x90 arch/arm/lib/built-in.o
 .text.setup_board_tags
                0x8080279c        0x2 arch/arm/lib/built-in.o
                0x8080279c                setup_board_tags
 *fill*         0x8080279e        0x2 
 .text.boot_prep_linux
                0x808027a0      0x124 arch/arm/lib/built-in.o
 .text.do_bootm_linux
                0x808028c4       0x38 arch/arm/lib/built-in.o
                0x808028c4                do_bootm_linux
 .text.boot_prep_vxworks
                0x808028fc       0x34 arch/arm/lib/built-in.o
                0x808028fc                boot_prep_vxworks
 .text.boot_jump_vxworks
                0x80802930        0xa arch/arm/lib/built-in.o
                0x80802930                boot_jump_vxworks
 *fill*         0x8080293a        0x2 
 .text.bootz_setup
                0x8080293c       0x6c arch/arm/lib/built-in.o
                0x8080293c                bootz_setup
 .text.arch_reserve_stacks
                0x808029a8       0x16 arch/arm/lib/built-in.o
                0x808029a8                arch_reserve_stacks
 .text.show_efi_loaded_images.isra.0
                0x808029be        0x4 arch/arm/lib/built-in.o
 *fill*         0x808029c2        0x2 
 .text.interrupt_init
                0x808029c4       0x14 arch/arm/lib/built-in.o
                0x808029c4                interrupt_init
 .text.enable_interrupts
                0x808029d8        0x2 arch/arm/lib/built-in.o
                0x808029d8                enable_interrupts
 .text.disable_interrupts
                0x808029da        0x4 arch/arm/lib/built-in.o
                0x808029da                disable_interrupts
 *fill*         0x808029de        0x2 
 .text.bad_mode
                0x808029e0        0xc arch/arm/lib/built-in.o
                0x808029e0                bad_mode
 .text.show_regs
                0x808029ec      0x14c arch/arm/lib/built-in.o
                0x808029ec                show_regs
 .text.do_undefined_instruction
                0x80802b38       0x28 arch/arm/lib/built-in.o
                0x80802b38                do_undefined_instruction
 .text.do_software_interrupt
                0x80802b60       0x28 arch/arm/lib/built-in.o
                0x80802b60                do_software_interrupt
 .text.do_prefetch_abort
                0x80802b88       0x28 arch/arm/lib/built-in.o
                0x80802b88                do_prefetch_abort
 .text.do_data_abort
                0x80802bb0       0x28 arch/arm/lib/built-in.o
                0x80802bb0                do_data_abort
 .text.do_not_used
                0x80802bd8       0x28 arch/arm/lib/built-in.o
                0x80802bd8                do_not_used
 .text.do_fiq   0x80802c00       0x28 arch/arm/lib/built-in.o
                0x80802c00                do_fiq
 .text.do_irq   0x80802c28       0x28 arch/arm/lib/built-in.o
                0x80802c28                do_irq
 .text.reset_misc
                0x80802c50        0x2 arch/arm/lib/built-in.o
                0x80802c50                reset_misc
 *fill*         0x80802c52        0x2 
 .text.do_reset
                0x80802c54       0x28 arch/arm/lib/built-in.o
                0x80802c54                do_reset
 .text.flush_cache
                0x80802c7c        0x6 arch/arm/lib/built-in.o
                0x80802c7c                flush_cache
 *fill*         0x80802c82        0x2 
 .text.check_cache_range
                0x80802c84       0x20 arch/arm/lib/built-in.o
                0x80802c84                check_cache_range
 .text.set_section_dcache
                0x80802ca4       0x12 arch/arm/lib/built-in.o
                0x80802ca4                set_section_dcache
 .text.icache_enable
                0x80802cb6       0x12 arch/arm/lib/built-in.o
                0x80802cb6                icache_enable
 .text.icache_disable
                0x80802cc8       0x16 arch/arm/lib/built-in.o
                0x80802cc8                icache_disable
 .text.icache_status
                0x80802cde        0xa arch/arm/lib/built-in.o
                0x80802cde                icache_status
 .text.dcache_enable
                0x80802ce8       0x7c arch/arm/lib/built-in.o
                0x80802ce8                dcache_enable
 .text.dcache_disable
                0x80802d64       0x20 arch/arm/lib/built-in.o
                0x80802d64                dcache_disable
 .text.dcache_status
                0x80802d84        0xa arch/arm/lib/built-in.o
                0x80802d84                dcache_status
 *fill*         0x80802d8e        0x2 
 .text          0x80802d90       0x60 arch/arm/mach-omap2/built-in.o
                0x80802d90                save_boot_params
                0x80802d9c                omap_smc1
                0x80802db8                omap_smc_sec
 .text.get_cpu_rev
                0x80802df0       0x14 arch/arm/mach-omap2/built-in.o
                0x80802df0                get_cpu_rev
 .text.get_cpu_type
                0x80802e04       0x14 arch/arm/mach-omap2/built-in.o
                0x80802e04                get_cpu_type
 .text.print_cpuinfo
                0x80802e18       0x9c arch/arm/mach-omap2/built-in.o
                0x80802e18                print_cpuinfo
 .text.am33xx_otg0_set_phy_power
                0x80802eb4       0x24 arch/arm/mach-omap2/built-in.o
 .text.am33xx_otg1_set_phy_power
                0x80802ed8       0x24 arch/arm/mach-omap2/built-in.o
 .text.dram_init
                0x80802efc       0x16 arch/arm/mach-omap2/built-in.o
                0x80802efc                dram_init
 .text.dram_init_banksize
                0x80802f12       0x18 arch/arm/mach-omap2/built-in.o
                0x80802f12                dram_init_banksize
 .text.cpu_mmc_init
                0x80802f2a       0x28 arch/arm/mach-omap2/built-in.o
                0x80802f2a                cpu_mmc_init
 *fill*         0x80802f52        0x2 
 .text.arch_misc_init
                0x80802f54       0x34 arch/arm/mach-omap2/built-in.o
                0x80802f54                arch_misc_init
 .text.arch_cpu_init_dm
                0x80802f88        0xa arch/arm/mach-omap2/built-in.o
                0x80802f88                arch_cpu_init_dm
 *fill*         0x80802f92        0x2 
 .text.hw_data_init
                0x80802f94       0x14 arch/arm/mach-omap2/built-in.o
                0x80802f94                hw_data_init
 .text.clk_synthesizer_reg_write
                0x80802fa8       0x30 arch/arm/mach-omap2/built-in.o
 .text.setup_clock_synthesizer
                0x80802fd8       0x90 arch/arm/mach-omap2/built-in.o
                0x80802fd8                setup_clock_synthesizer
 .text.reset_cpu
                0x80803068       0x14 arch/arm/mach-omap2/built-in.o
                0x80803068                reset_cpu
 .text.get_timer_masked
                0x8080307c       0x58 arch/arm/mach-omap2/built-in.o
 .text.timer_init
                0x808030d4       0x18 arch/arm/mach-omap2/built-in.o
                0x808030d4                timer_init
 .text.get_timer
                0x808030ec        0xc arch/arm/mach-omap2/built-in.o
                0x808030ec                get_timer
 .text.__udelay
                0x808030f8       0x34 arch/arm/mach-omap2/built-in.o
                0x808030f8                __udelay
 .text.get_ticks
                0x8080312c        0xa arch/arm/mach-omap2/built-in.o
                0x8080312c                get_ticks
 .text.get_tbclk
                0x80803136        0x6 arch/arm/mach-omap2/built-in.o
                0x80803136                get_tbclk
 .text.get_device_type
                0x8080313c       0x18 arch/arm/mach-omap2/built-in.o
                0x8080313c                get_device_type
 .text.enable_caches
                0x80803154       0x14 arch/arm/mach-omap2/built-in.o
                0x80803154                enable_caches
 .text.dram_bank_mmu_setup
                0x80803168       0x28 arch/arm/mach-omap2/built-in.o
                0x80803168                dram_bank_mmu_setup
 .text.arm_init_domains
                0x80803190       0x16 arch/arm/mach-omap2/built-in.o
                0x80803190                arm_init_domains
 *fill*         0x808031a6        0x2 
 .text.board_ti_is
                0x808031a8       0x30 board/ti/common/built-in.o
                0x808031a8                board_ti_is
 .text.board_ti_get_rev
                0x808031d8        0x8 board/ti/common/built-in.o
                0x808031d8                board_ti_get_rev
 .text.board_ti_get_config
                0x808031e0        0x8 board/ti/common/built-in.o
                0x808031e0                board_ti_get_config
 .text.set_board_info_env
                0x808031e8       0x3c board/ti/common/built-in.o
                0x808031e8                set_board_info_env
 .text.do_go_exec
                0x80803224        0x8 cmd/built-in.o
                0x80803224                do_go_exec
 .text.do_go    0x8080322c       0x4c cmd/built-in.o
 .text.do_bootm
                0x80803278       0xa0 cmd/built-in.o
                0x80803278                do_bootm
 .text.do_bootd
                0x80803318       0x18 cmd/built-in.o
                0x80803318                do_bootd
 .text.image_info
                0x80803330       0xd0 cmd/built-in.o
 .text.do_iminfo
                0x80803400       0x40 cmd/built-in.o
 .text.bootm_maybe_autostart
                0x80803440       0x4c cmd/built-in.o
                0x80803440                bootm_maybe_autostart
 .text.do_lcd   0x8080348c       0x50 cmd/built-in.o
 .text.do_autoboot_menu
                0x808034dc        0xa cmd/built-in.o
 *fill*         0x808034e6        0x2 
 .text.do_help  0x808034e8       0x30 cmd/built-in.o
 .text.do_version
                0x80803518       0x30 cmd/built-in.o
 .text.blk_common_cmd
                0x80803548      0x1f4 cmd/built-in.o
                0x80803548                blk_common_cmd
 .text.source   0x8080373c      0x134 cmd/built-in.o
                0x8080373c                source
 .text.do_source
                0x80803870       0x50 cmd/built-in.o
 .text.print_num
                0x808038c0       0x10 cmd/built-in.o
 .text.do_bdinfo
                0x808038d0      0x160 cmd/built-in.o
 .text.efi_install_fdt
                0x80803a30      0x17c cmd/built-in.o
 .text.do_bootefi_exec
                0x80803bac      0x174 cmd/built-in.o
 .text.do_bootefi
                0x80803d20       0xf0 cmd/built-in.o
 .text.efi_set_bootdev
                0x80803e10       0x50 cmd/built-in.o
                0x80803e10                efi_set_bootdev
 .text.do_bootz
                0x80803e60       0x9c cmd/built-in.o
                0x80803e60                do_bootz
 .text.do_btrsubvol
                0x80803efc       0x26 cmd/built-in.o
                0x80803efc                do_btrsubvol
 *fill*         0x80803f22        0x2 
 .text.do_coninfo
                0x80803f24       0x88 cmd/built-in.o
 .text.do_dm_dump_devres
                0x80803fac        0x4 cmd/built-in.o
 .text.do_dm    0x80803fb0       0x44 cmd/built-in.o
 .text.do_dm_dump_uclass
                0x80803ff4        0xa cmd/built-in.o
 .text.do_dm_dump_all
                0x80803ffe        0xa cmd/built-in.o
 .text.do_echo  0x80804008       0x80 cmd/built-in.o
 .text.parse_numeric_param
                0x80804088       0x1c cmd/built-in.o
 .text.parse_i2c_bus_addr.constprop.0
                0x808040a4       0x42 cmd/built-in.o
 .text.eeprom_write_enable
                0x808040e6        0x4 cmd/built-in.o
                0x808040e6                eeprom_write_enable
 .text.eeprom_read
                0x808040ea       0x4a cmd/built-in.o
                0x808040ea                eeprom_read
 .text.eeprom_write
                0x80804134       0x6a cmd/built-in.o
                0x80804134                eeprom_write
 *fill*         0x8080419e        0x2 
 .text.do_eeprom
                0x808041a0       0xd0 cmd/built-in.o
                0x808041a0                do_eeprom
 .text.load_elf_image_phdr
                0x80804270       0xc4 cmd/built-in.o
 .text.valid_elf_image
                0x80804334       0x30 cmd/built-in.o
                0x80804334                valid_elf_image
 .text.do_bootelf
                0x80804364      0x190 cmd/built-in.o
                0x80804364                do_bootelf
 .text.do_bootvx
                0x808044f4      0x230 cmd/built-in.o
                0x808044f4                do_bootvx
 .text.do_exit  0x80804724       0x20 cmd/built-in.o
 .text.do_ext4_size
                0x80804744        0xe cmd/built-in.o
                0x80804744                do_ext4_size
 .text.do_ext4_load
                0x80804752        0xe cmd/built-in.o
                0x80804752                do_ext4_load
 .text.do_ext4_ls
                0x80804760        0xe cmd/built-in.o
                0x80804760                do_ext4_ls
 .text.do_ext4_write
                0x8080476e        0xe cmd/built-in.o
                0x8080476e                do_ext4_write
 .text.do_ext2load
                0x8080477c        0xe cmd/built-in.o
                0x8080477c                do_ext2load
 .text.do_ext2ls
                0x8080478a        0xe cmd/built-in.o
 .text.do_fat_size
                0x80804798        0xe cmd/built-in.o
                0x80804798                do_fat_size
 .text.do_fat_fsload
                0x808047a6        0xe cmd/built-in.o
                0x808047a6                do_fat_fsload
 .text.do_fat_ls
                0x808047b4        0xe cmd/built-in.o
 *fill*         0x808047c2        0x2 
 .text.do_fat_fsinfo
                0x808047c4       0x54 cmd/built-in.o
 .text.do_fat_fswrite
                0x80804818       0xd0 cmd/built-in.o
 .text.do_fat_rm
                0x808048e8        0xe cmd/built-in.o
 .text.do_fat_mkdir
                0x808048f6        0xe cmd/built-in.o
 .text.fdt_valid
                0x80804904       0x74 cmd/built-in.o
 .text.is_printable_string
                0x80804978       0x4c cmd/built-in.o
 .text.print_data.part.0
                0x808049c4      0x100 cmd/built-in.o
 .text.set_working_fdt_addr
                0x80804ac4       0x14 cmd/built-in.o
                0x80804ac4                set_working_fdt_addr
 .text.do_fdt   0x80804ad8      0xa2c cmd/built-in.o
 .text.do_size_wrapper
                0x80805504        0xe cmd/built-in.o
 *fill*         0x80805512        0x2 
 .text.do_load_wrapper
                0x80805514       0x40 cmd/built-in.o
 .text.do_save_wrapper
                0x80805554        0xe cmd/built-in.o
 .text.do_ls_wrapper
                0x80805562        0xe cmd/built-in.o
 .text.do_fstype_wrapper
                0x80805570        0x4 cmd/built-in.o
 .text.gpio_get_description
                0x80805574       0x84 cmd/built-in.o
 .text.do_gpio  0x808055f8      0x268 cmd/built-in.o
 .text.do_i2c   0x80805860       0x3c cmd/built-in.o
 .text.i2c_get_cur_bus
                0x8080589c       0x48 cmd/built-in.o
 .text.do_i2c_bus_speed
                0x808058e4       0x6c cmd/built-in.o
 .text.do_i2c_reset
                0x80805950       0x24 cmd/built-in.o
 .text.i2c_get_cur_bus_chip
                0x80805974       0x24 cmd/built-in.o
 .text.do_i2c_probe
                0x80805998       0x74 cmd/built-in.o
 .text.show_bus
                0x80805a0c       0x64 cmd/built-in.o
 .text.do_i2c_show_bus
                0x80805a70       0x64 cmd/built-in.o
 .text.do_i2c_olen
                0x80805ad4       0x74 cmd/built-in.o
 .text.do_i2c_flags
                0x80805b48       0x7c cmd/built-in.o
 .text.get_alen.constprop.0
                0x80805bc4       0x1e cmd/built-in.o
 *fill*         0x80805be2        0x2 
 .text.mod_i2c_mem.constprop.0
                0x80805be4      0x154 cmd/built-in.o
 .text.do_i2c_mm
                0x80805d38        0x6 cmd/built-in.o
 .text.do_i2c_nm
                0x80805d3e        0x6 cmd/built-in.o
 .text.do_i2c_write
                0x80805d44      0x108 cmd/built-in.o
 .text.do_i2c_md
                0x80805e4c      0x164 cmd/built-in.o
 .text.do_i2c_read
                0x80805fb0       0x94 cmd/built-in.o
 .text.do_i2c_mw
                0x80806044       0xbc cmd/built-in.o
 .text.do_i2c_crc
                0x80806100       0xe0 cmd/built-in.o
 .text.do_i2c_loop
                0x808061e0       0xc0 cmd/built-in.o
 .text.do_i2c_bus_num
                0x808062a0       0x70 cmd/built-in.o
 .text.evalexp  0x80806310       0x4a cmd/built-in.o
 .text.evalstr  0x8080635a       0x3c cmd/built-in.o
 *fill*         0x80806396        0x2 
 .text.binary_test
                0x80806398       0xec cmd/built-in.o
 .text.do_itest
                0x80806484       0x4c cmd/built-in.o
 .text.bin_data_init
                0x808064d0       0x1c cmd/built-in.o
 .text.k_data_save
                0x808064ec       0x34 cmd/built-in.o
 .text.k_data_restore
                0x80806520       0x34 cmd/built-in.o
 .text.getcxmodem
                0x80806554       0x16 cmd/built-in.o
 *fill*         0x8080656a        0x2 
 .text.bin_data_char
                0x8080656c       0x1c cmd/built-in.o
 .text.chk1.constprop.0
                0x80806588       0x20 cmd/built-in.o
 .text.s1_sendpacket.constprop.0
                0x808065a8       0x34 cmd/built-in.o
 .text.load_serial
                0x808065dc      0x11c cmd/built-in.o
 .text.do_load_serial
                0x808066f8       0x8c cmd/built-in.o
 .text.load_serial_ymodem.isra.0
                0x80806784       0x8c cmd/built-in.o
 .text.do_load_serial_bin
                0x80806810      0x51c cmd/built-in.o
 .text.do_mem_md
                0x80806d2c       0xa0 cmd/built-in.o
 .text.do_mem_base
                0x80806dcc       0x28 cmd/built-in.o
 .text.do_mem_crc
                0x80806df4       0x2c cmd/built-in.o
 .text.do_mem_mw
                0x80806e20       0x78 cmd/built-in.o
 .text.do_mem_loop
                0x80806e98       0x82 cmd/built-in.o
 *fill*         0x80806f1a        0x2 
 .text.mod_mem.part.0
                0x80806f1c       0xf4 cmd/built-in.o
 .text.do_mem_mm
                0x80807010       0x12 cmd/built-in.o
 .text.do_mem_nm
                0x80807022       0x12 cmd/built-in.o
 .text.do_mem_cp
                0x80807034       0x70 cmd/built-in.o
 .text.do_mem_cmp
                0x808070a4       0xe8 cmd/built-in.o
 .text.extract_range
                0x8080718c       0x78 cmd/built-in.o
 .text.do_mii   0x80807204      0x5cc cmd/built-in.o
 .text.do_mdio  0x808077d0      0x300 cmd/built-in.o
 .text.do_sleep
                0x80807ad0       0x88 cmd/built-in.o
 .text.do_mmcops
                0x80807b58       0x84 cmd/built-in.o
 .text.do_mmc_setdsr
                0x80807bdc       0x70 cmd/built-in.o
 .text.init_mmc_device
                0x80807c4c       0x38 cmd/built-in.o
 .text.do_mmc_rescan
                0x80807c84       0x18 cmd/built-in.o
 .text.do_mmc_hwpartition
                0x80807c9c      0x3b4 cmd/built-in.o
 .text.do_mmc_list
                0x80808050        0xc cmd/built-in.o
 .text.do_mmc_dev
                0x8080805c       0xc4 cmd/built-in.o
 .text.do_mmc_part
                0x80808120       0x38 cmd/built-in.o
 .text.do_mmcinfo
                0x80808158      0x2c0 cmd/built-in.o
 .text.do_mmc_read
                0x80808418       0x9c cmd/built-in.o
 .text.do_mmc_erase
                0x808084b4       0x98 cmd/built-in.o
 .text.do_mmc_write
                0x8080854c       0xb0 cmd/built-in.o
 .text.netboot_common
                0x808085fc      0x1f8 cmd/built-in.o
 .text.do_bootp
                0x808087f4        0x8 cmd/built-in.o
 .text.do_dhcp  0x808087fc        0x8 cmd/built-in.o
 .text.do_nfs   0x80808804        0x8 cmd/built-in.o
 .text.do_tftpb
                0x8080880c       0x26 cmd/built-in.o
                0x8080880c                do_tftpb
 *fill*         0x80808832        0x2 
 .text.do_ping  0x80808834       0x48 cmd/built-in.o
 .text.efi_dump_single_var
                0x8080887c       0xd4 cmd/built-in.o
 .text.do_env_print_efi
                0x80808950      0x114 cmd/built-in.o
                0x80808950                do_env_print_efi
 .text.do_env_set_efi
                0x80808a64      0x264 cmd/built-in.o
                0x80808a64                do_env_set_efi
 .text.do_part_list
                0x80808cc8       0xf4 cmd/built-in.o
 .text.do_part_info
                0x80808dbc       0x9c cmd/built-in.o
 .text.do_part  0x80808e58       0xb0 cmd/built-in.o
 .text.eol_or_eof
                0x80808f08       0x12 cmd/built-in.o
 *fill*         0x80808f1a        0x2 
 .text.do_pxe   0x80808f1c       0x48 cmd/built-in.o
 .text.label_print
                0x80808f64       0x14 cmd/built-in.o
 .text.do_get_tftp
                0x80808f78       0x2c cmd/built-in.o
 .text.from_env
                0x80808fa4       0x1c cmd/built-in.o
 .text.label_destroy
                0x80808fc0       0x46 cmd/built-in.o
 .text.destroy_pxe_menu
                0x80809006       0x36 cmd/built-in.o
 .text.do_get_any
                0x8080903c       0x2c cmd/built-in.o
 .text.do_get_fat
                0x80809068       0x28 cmd/built-in.o
 .text.do_get_ext2
                0x80809090       0x28 cmd/built-in.o
 .text.format_mac_pxe.constprop.0
                0x808090b8       0x54 cmd/built-in.o
 .text.get_relfile
                0x8080910c       0xd0 cmd/built-in.o
 .text.get_pxe_file
                0x808091dc       0x3c cmd/built-in.o
 .text.get_pxelinux_path
                0x80809218       0x50 cmd/built-in.o
 .text.do_pxe_get
                0x80809268       0xe8 cmd/built-in.o
 .text.get_relfile_envaddr
                0x80809350       0x34 cmd/built-in.o
 .text.label_boot
                0x80809384      0x40c cmd/built-in.o
 .text.handle_pxe_menu
                0x80809790       0xec cmd/built-in.o
 .text.get_string.constprop.0.isra.0
                0x8080987c       0x70 cmd/built-in.o
 .text.get_token
                0x808098ec       0xac cmd/built-in.o
 .text.parse_sliteral
                0x80809998       0x34 cmd/built-in.o
 .text.parse_integer
                0x808099cc       0x48 cmd/built-in.o
 .text.parse_pxefile_top
                0x80809a14      0x330 cmd/built-in.o
 .text.handle_include
                0x80809d44       0x6c cmd/built-in.o
 .text.parse_pxefile
                0x80809db0       0x42 cmd/built-in.o
 *fill*         0x80809df2        0x2 
 .text.do_pxe_boot
                0x80809df4       0x90 cmd/built-in.o
 .text.do_sysboot
                0x80809e84      0x13c cmd/built-in.o
 .text.bytes_per_second
                0x80809fc0       0x34 cmd/built-in.o
 .text.do_spi_flash
                0x80809ff4      0x5ec cmd/built-in.o
 .text.substitute
                0x8080a5e0       0x94 cmd/built-in.o
 .text.get_arg  0x8080a674       0x34 cmd/built-in.o
 .text.regex_sub
                0x8080a6a8      0x224 cmd/built-in.o
 .text.do_setexpr
                0x8080a8cc       0xe8 cmd/built-in.o
 .text.do_spi   0x8080a9b4      0x1a8 cmd/built-in.o
                0x8080a9b4                do_spi
 .text.do_time  0x8080ab5c       0x9c cmd/built-in.o
 .text.do_false
                0x8080abf8        0x4 cmd/built-in.o
 .text.do_true  0x8080abfc        0x4 cmd/built-in.o
 .text.do_test  0x8080ac00      0x1fc cmd/built-in.o
 .text.usb_get_class_desc
                0x8080adfc       0x74 cmd/built-in.o
 .text.usb_find_device
                0x8080ae70       0x1e cmd/built-in.o
 *fill*         0x8080ae8e        0x2 
 .text.usb_show_tree_graph
                0x8080ae90      0x178 cmd/built-in.o
 .text.usb_display_class_sub
                0x8080b008       0xf8 cmd/built-in.o
 .text.usb_display_desc
                0x8080b100       0xf8 cmd/built-in.o
 .text.usb_display_string
                0x8080b1f8       0x2c cmd/built-in.o
 .text.usb_display_config
                0x8080b224      0x1a8 cmd/built-in.o
 .text.do_usbboot
                0x8080b3cc        0xc cmd/built-in.o
 .text.do_usb_start
                0x8080b3d8       0x20 cmd/built-in.o
 .text.usb_show_tree
                0x8080b3f8       0x30 cmd/built-in.o
                0x8080b3f8                usb_show_tree
 .text.do_usb   0x8080b428      0x298 cmd/built-in.o
 .text.common_diskboot
                0x8080b6c0      0x1b4 cmd/built-in.o
                0x8080b6c0                common_diskboot
 .text.do_fastboot
                0x8080b874      0x134 cmd/built-in.o
 .text.do_imgextract
                0x8080b9a8      0x278 cmd/built-in.o
 .text.do_spl   0x8080bc20      0x140 cmd/built-in.o
 .text.do_dfu   0x8080bd60       0x88 cmd/built-in.o
 .text.extract_val
                0x8080bde8       0x5c cmd/built-in.o
 .text.extract_env
                0x8080be44       0xa0 cmd/built-in.o
 .text.set_gpt_info.constprop.0
                0x8080bee4      0x308 cmd/built-in.o
 .text.do_gpt   0x8080c1ec      0x20c cmd/built-in.o
 .text.do_env_delete
                0x8080c3f8       0x6c cmd/built-in.o
 .text._do_env_set
                0x8080c464      0x140 cmd/built-in.o
 .text.do_env_set
                0x8080c5a4       0x16 cmd/built-in.o
 *fill*         0x8080c5ba        0x2 
 .text.do_env_ask
                0x8080c5bc      0x104 cmd/built-in.o
                0x8080c5bc                do_env_ask
 .text.do_env_save
                0x8080c6c0        0xe cmd/built-in.o
 *fill*         0x8080c6ce        0x2 
 .text.do_env   0x8080c6d0       0x3c cmd/built-in.o
 .text.env_print
                0x8080c70c       0x78 cmd/built-in.o
 .text.do_env_print
                0x8080c784       0x90 cmd/built-in.o
 .text.do_env_import
                0x8080c814      0x1a4 cmd/built-in.o
 .text.do_env_default
                0x8080c9b8       0x5c cmd/built-in.o
 .text.do_env_exists
                0x8080ca14       0x40 cmd/built-in.o
 .text.get_env_id
                0x8080ca54        0xc cmd/built-in.o
                0x8080ca54                get_env_id
 .text.env_set  0x8080ca60       0x44 cmd/built-in.o
                0x8080ca60                env_set
 .text.env_set_ulong
                0x8080caa4       0x16 cmd/built-in.o
                0x8080caa4                env_set_ulong
 *fill*         0x8080caba        0x2 
 .text.env_set_hex
                0x8080cabc       0x20 cmd/built-in.o
                0x8080cabc                env_set_hex
 .text.do_env_export
                0x8080cadc      0x15c cmd/built-in.o
 .text.eth_parse_enetaddr
                0x8080cc38       0x30 cmd/built-in.o
                0x8080cc38                eth_parse_enetaddr
 .text.envmatch
                0x8080cc68       0x48 cmd/built-in.o
                0x8080cc68                envmatch
 .text.env_get_f
                0x8080ccb0       0x84 cmd/built-in.o
                0x8080ccb0                env_get_f
 .text.env_get  0x8080cd34       0x54 cmd/built-in.o
                0x8080cd34                env_get
 .text.env_get_hex
                0x8080cd88       0x20 cmd/built-in.o
                0x8080cd88                env_get_hex
 .text.eth_env_get_enetaddr
                0x8080cda8       0x34 cmd/built-in.o
                0x8080cda8                eth_env_get_enetaddr
 .text.eth_env_set_enetaddr
                0x8080cddc       0x30 cmd/built-in.o
                0x8080cddc                eth_env_set_enetaddr
 .text.env_get_ulong
                0x8080ce0c       0x1c cmd/built-in.o
                0x8080ce0c                env_get_ulong
 .text.do_env_edit
                0x8080ce28       0x80 cmd/built-in.o
 .text.board_init_f_alloc_reserve
                0x8080cea8        0xa common/built-in.o
                0x8080cea8                board_init_f_alloc_reserve
 .text.board_init_f_init_reserve
                0x8080ceb2       0x14 common/built-in.o
                0x8080ceb2                board_init_f_init_reserve
 .text.show_boot_progress
                0x8080cec6        0x4 common/built-in.o
                0x8080cec6                show_boot_progress
 *fill*         0x8080ceca        0x2 
 .text.main_loop
                0x8080cecc       0x44 common/built-in.o
                0x8080cecc                main_loop
 .text.mdelay   0x8080cf10        0xa common/built-in.o
 .text.dummy    0x8080cf1a        0x2 common/built-in.o
 .text.get_version
                0x8080cf1c        0x4 common/built-in.o
                0x8080cf1c                get_version
 .text.jumptable_init
                0x8080cf20      0x188 common/built-in.o
                0x8080cf20                jumptable_init
 .text.hash_finish_crc32
                0x8080d0a8       0x1c common/built-in.o
 .text.hash_finish_crc16_ccitt
                0x8080d0c4       0x1c common/built-in.o
 .text.hash_update_crc32
                0x8080d0e0       0x14 common/built-in.o
 .text.hash_init_crc32
                0x8080d0f4       0x14 common/built-in.o
 .text.hash_init_crc16_ccitt
                0x8080d108       0x14 common/built-in.o
 .text.hash_update_crc16_ccitt
                0x8080d11c       0x14 common/built-in.o
 .text.hash_finish_sha256
                0x8080d130       0x22 common/built-in.o
 .text.hash_update_sha256
                0x8080d152       0x10 common/built-in.o
 .text.hash_init_sha256
                0x8080d162       0x16 common/built-in.o
 .text.hash_finish_sha1
                0x8080d178       0x22 common/built-in.o
 .text.hash_update_sha1
                0x8080d19a       0x10 common/built-in.o
 .text.hash_init_sha1
                0x8080d1aa       0x16 common/built-in.o
 .text.hash_lookup_algo
                0x8080d1c0       0x3c common/built-in.o
                0x8080d1c0                hash_lookup_algo
 .text.hash_command
                0x8080d1fc      0x124 common/built-in.o
                0x8080d1fc                hash_command
 .text.b_reset  0x8080d320        0xe common/built-in.o
 .text.static_get
                0x8080d32e       0x12 common/built-in.o
 .text.static_peek
                0x8080d340        0x6 common/built-in.o
 *fill*         0x8080d346        0x2 
 .text.mapset   0x8080d348       0x14 common/built-in.o
 .text.syntax_err
                0x8080d35c        0xc common/built-in.o
 .text.xmalloc  0x8080d368       0x18 common/built-in.o
 .text.new_pipe
                0x8080d380       0x16 common/built-in.o
 *fill*         0x8080d396        0x2 
 .text.xrealloc
                0x8080d398       0x18 common/built-in.o
 .text.do_showvar
                0x8080d3b0       0x9c common/built-in.o
 .text.is_assignment
                0x8080d44c       0x30 common/built-in.o
 .text.b_addchr
                0x8080d47c       0x42 common/built-in.o
 *fill*         0x8080d4be        0x2 
 .text.file_get
                0x8080d4c0      0x134 common/built-in.o
 .text.done_command.isra.0
                0x8080d5f4       0x40 common/built-in.o
 .text.done_pipe.isra.0
                0x8080d634       0x2c common/built-in.o
 .text.done_word
                0x8080d660      0x1c4 common/built-in.o
 .text.free_pipe_list.isra.0
                0x8080d824       0x7c common/built-in.o
 .text.b_addqchr.isra.0
                0x8080d8a0       0x30 common/built-in.o
 .text.file_peek
                0x8080d8d0        0x6 common/built-in.o
 *fill*         0x8080d8d6        0x2 
 .text.get_local_var
                0x8080d8d8       0x58 common/built-in.o
                0x8080d8d8                get_local_var
 .text.set_local_var
                0x8080d930      0x114 common/built-in.o
                0x8080d930                set_local_var
 .text.insert_var_value_sub
                0x8080da44      0x1c4 common/built-in.o
 .text.parse_string_outer
                0x8080dc08       0x90 common/built-in.o
                0x8080dc08                parse_string_outer
 .text.run_list_real
                0x8080dc98      0x4c8 common/built-in.o
 .text.parse_stream_outer
                0x8080e160      0x430 common/built-in.o
 .text.parse_file_outer
                0x8080e590       0x2c common/built-in.o
                0x8080e590                parse_file_outer
 .text.u_boot_hush_start
                0x8080e5bc       0x30 common/built-in.o
                0x8080e5bc                u_boot_hush_start
 .text.multiboot
                0x8080e5ec      0x214 common/built-in.o
                0x8080e5ec                multiboot
 .text.bootdelay_process
                0x8080e800       0xfc common/built-in.o
                0x8080e800                bootdelay_process
 .text.autoboot_command
                0x8080e8fc       0xf0 common/built-in.o
                0x8080e8fc                autoboot_command
 .text.log_init
                0x8080e9ec        0x8 common/built-in.o
 .text.display_text_info
                0x8080e9f4        0x4 common/built-in.o
 .text.setup_mon_len
                0x8080e9f8       0x18 common/built-in.o
 .text.arch_cpu_init
                0x8080ea10        0x4 common/built-in.o
                0x8080ea10                arch_cpu_init
 .text.reserve_round_4k
                0x8080ea14       0x10 common/built-in.o
 .text.reserve_mmu
                0x8080ea24       0x2e common/built-in.o
                0x8080ea24                reserve_mmu
 .text.reserve_uboot
                0x8080ea52       0x2c common/built-in.o
 .text.reserve_malloc
                0x8080ea7e       0x14 common/built-in.o
 .text.setup_machine
                0x8080ea92        0xe common/built-in.o
 .text.reserve_global_data
                0x8080eaa0       0x16 common/built-in.o
 .text.init_func_watchdog_reset
                0x8080eab6        0xa common/built-in.o
                0x8080eab6                init_func_watchdog_reset
 .text.setup_reloc
                0x8080eac0       0x26 common/built-in.o
 .text.reserve_board
                0x8080eae6       0x28 common/built-in.o
 *fill*         0x8080eb0e        0x2 
 .text.announce_dram_init
                0x8080eb10       0x10 common/built-in.o
 .text.init_baud_rate
                0x8080eb20       0x1c common/built-in.o
 .text.initf_dm
                0x8080eb3c        0x6 common/built-in.o
 .text.initf_bootstage
                0x8080eb42        0xc common/built-in.o
 .text.setup_spl_handoff
                0x8080eb4e        0x4 common/built-in.o
 .text.mach_cpu_init
                0x8080eb52        0x4 common/built-in.o
                0x8080eb52                mach_cpu_init
 .text.reserve_video
                0x8080eb56        0x4 common/built-in.o
 .text.reserve_trace
                0x8080eb5a        0x4 common/built-in.o
 .text.reserve_fdt
                0x8080eb5e        0x4 common/built-in.o
 .text.reserve_bootstage
                0x8080eb62        0x4 common/built-in.o
 .text.reserve_bloblist
                0x8080eb66        0x4 common/built-in.o
 .text.display_new_sp
                0x8080eb6a        0x4 common/built-in.o
 .text.reloc_fdt
                0x8080eb6e        0x4 common/built-in.o
 .text.reloc_bootstage
                0x8080eb72        0x4 common/built-in.o
 .text.reloc_bloblist
                0x8080eb76        0x4 common/built-in.o
 .text.initf_console_record
                0x8080eb7a        0x4 common/built-in.o
 .text.reserve_arch
                0x8080eb7e        0x4 common/built-in.o
                0x8080eb7e                reserve_arch
 .text.init_func_watchdog_init
                0x8080eb82        0xa common/built-in.o
 .text.coloured_LED_init
                0x8080eb8c        0x2 common/built-in.o
                0x8080eb8c                coloured_LED_init
 .text.red_led_on
                0x8080eb8e        0x2 common/built-in.o
                0x8080eb8e                red_led_on
 .text.board_add_ram_info
                0x8080eb90        0x2 common/built-in.o
                0x8080eb90                board_add_ram_info
 *fill*         0x8080eb92        0x2 
 .text.show_dram_config
                0x8080eb94       0x38 common/built-in.o
 .text.board_get_usable_ram_top
                0x8080ebcc       0x10 common/built-in.o
                0x8080ebcc                board_get_usable_ram_top
 .text.setup_dest_addr
                0x8080ebdc       0x30 common/built-in.o
 .text.reserve_stacks
                0x8080ec0c       0x1a common/built-in.o
 *fill*         0x8080ec26        0x2 
 .text.board_init_f
                0x8080ec28       0x4c common/built-in.o
                0x8080ec28                board_init_f
 .text.initr_trace
                0x8080ec74        0x4 common/built-in.o
 .text.initr_reloc
                0x8080ec78       0x14 common/built-in.o
 .text.run_main_loop
                0x8080ec8c        0x8 common/built-in.o
 .text.initr_net
                0x8080ec94       0x14 common/built-in.o
 .text.initr_ethaddr
                0x8080eca8       0x18 common/built-in.o
 .text.initr_enable_interrupts
                0x8080ecc0        0xa common/built-in.o
 .text.initr_jumptable
                0x8080ecca        0xa common/built-in.o
 .text.initr_env
                0x8080ecd4       0x48 common/built-in.o
 .text.initr_mmc
                0x8080ed1c       0x18 common/built-in.o
 .text.initr_serial
                0x8080ed34        0xa common/built-in.o
 .text.initr_dm
                0x8080ed3e       0x12 common/built-in.o
 .text.initr_bootstage
                0x8080ed50        0xc common/built-in.o
 .text.initr_malloc
                0x8080ed5c       0x1c common/built-in.o
 .text.initr_reloc_global_data
                0x8080ed78       0x44 common/built-in.o
 .text.initr_caches
                0x8080edbc        0xa common/built-in.o
 .text.bootstage_relocate
                0x8080edc6        0x4 common/built-in.o
 .text.initr_barrier
                0x8080edca        0x4 common/built-in.o
 .text.initr_console_record
                0x8080edce        0x4 common/built-in.o
 .text.power_init_board
                0x8080edd2        0x4 common/built-in.o
                0x8080edd2                power_init_board
 .text.initr_announce
                0x8080edd6        0x4 common/built-in.o
 .text.cpu_secondary_init_r
                0x8080edda        0x2 common/built-in.o
                0x8080edda                cpu_secondary_init_r
 .text.initr_secondary_cpu
                0x8080eddc        0xa common/built-in.o
 *fill*         0x8080ede6        0x2 
 .text.board_init_r
                0x8080ede8       0x4c common/built-in.o
                0x8080ede8                board_init_r
 .text.checkboard
                0x8080ee34        0x4 common/built-in.o
                0x8080ee34                checkboard
 .text.show_board_info
                0x8080ee38       0x2c common/built-in.o
                0x8080ee38                show_board_info
 .text.bootm_find_images
                0x8080ee64       0x88 common/built-in.o
                0x8080ee64                bootm_find_images
 .text.bootm_decomp_image
                0x8080eeec      0x100 common/built-in.o
                0x8080eeec                bootm_decomp_image
 .text.bootm_disable_interrupts
                0x8080efec       0x10 common/built-in.o
                0x8080efec                bootm_disable_interrupts
 .text.do_bootm_states
                0x8080effc      0x660 common/built-in.o
                0x8080effc                do_bootm_states
 .text.switch_to_non_secure_mode
                0x8080f65c        0x2 common/built-in.o
                0x8080f65c                switch_to_non_secure_mode
 .text.copy_args
                0x8080f65e       0x32 common/built-in.o
 .text.do_bootm_rtems
                0x8080f690       0x30 common/built-in.o
 .text.do_bootm_vxworks
                0x8080f6c0       0xdc common/built-in.o
                0x8080f6c0                do_bootm_vxworks
 .text.do_bootm_plan9
                0x8080f79c       0x70 common/built-in.o
 .text.do_bootm_qnxelf
                0x8080f80c       0x54 common/built-in.o
 .text.do_bootm_netbsd
                0x8080f860       0xb0 common/built-in.o
 .text.do_bootm_standalone
                0x8080f910       0x40 common/built-in.o
 .text.arch_preboot_os
                0x8080f950        0x2 common/built-in.o
                0x8080f950                arch_preboot_os
 .text.board_preboot_os
                0x8080f952        0x2 common/built-in.o
                0x8080f952                board_preboot_os
 .text.boot_selected_os
                0x8080f954       0x3e common/built-in.o
                0x8080f954                boot_selected_os
 *fill*         0x8080f992        0x2 
 .text.bootm_os_get_boot_func
                0x8080f994        0xc common/built-in.o
                0x8080f994                bootm_os_get_boot_func
 .text.of_bus_default_map
                0x8080f9a0       0x6a common/built-in.o
 .text.of_bus_default_translate
                0x8080fa0a       0x54 common/built-in.o
 *fill*         0x8080fa5e        0x2 
 .text.fdt_support_default_count_cells
                0x8080fa60       0x34 common/built-in.o
                0x8080fa60                fdt_support_default_count_cells
 .text.fdt_find_and_setprop
                0x8080fa94       0x48 common/built-in.o
                0x8080fa94                fdt_find_and_setprop
 .text.fdt_find_or_add_subnode
                0x8080fadc       0x40 common/built-in.o
                0x8080fadc                fdt_find_or_add_subnode
 .text.fdt_root
                0x8080fb1c       0x60 common/built-in.o
                0x8080fb1c                fdt_root
 .text.fdt_initrd
                0x8080fb7c      0x12c common/built-in.o
                0x8080fb7c                fdt_initrd
 .text.fdt_chosen
                0x8080fca8       0x6c common/built-in.o
                0x8080fca8                fdt_chosen
 .text.do_fixup_by_path
                0x8080fd14       0x34 common/built-in.o
                0x8080fd14                do_fixup_by_path
 .text.fdt_fixup_memory_banks
                0x8080fd48      0x184 common/built-in.o
                0x8080fd48                fdt_fixup_memory_banks
 .text.fdt_fixup_memory
                0x8080fecc       0x16 common/built-in.o
                0x8080fecc                fdt_fixup_memory
 *fill*         0x8080fee2        0x2 
 .text.fdt_fixup_ethernet
                0x8080fee4      0x108 common/built-in.o
                0x8080fee4                fdt_fixup_ethernet
 .text.fdt_shrink_to_minimum
                0x8080ffec       0x7e common/built-in.o
                0x8080ffec                fdt_shrink_to_minimum
 *fill*         0x8081006a        0x2 
 .text.fdt_translate_address
                0x8081006c      0x158 common/built-in.o
                0x8081006c                fdt_translate_address
 .text.fdt_overlay_apply_verbose
                0x808101c4       0x4c common/built-in.o
                0x808101c4                fdt_overlay_apply_verbose
 .text.miiphy_get_dev_by_name
                0x80810210       0x34 common/built-in.o
                0x80810210                miiphy_get_dev_by_name
 .text.miiphy_init
                0x80810244       0x18 common/built-in.o
                0x80810244                miiphy_init
 .text.mdio_alloc
                0x8081025c       0x1c common/built-in.o
                0x8081025c                mdio_alloc
 .text.mdio_free
                0x80810278        0x4 common/built-in.o
                0x80810278                mdio_free
 .text.mdio_register
                0x8081027c       0x50 common/built-in.o
                0x8081027c                mdio_register
 .text.mdio_list_devices
                0x808102cc       0x74 common/built-in.o
                0x808102cc                mdio_list_devices
 .text.miiphy_set_current_dev
                0x80810340       0x28 common/built-in.o
                0x80810340                miiphy_set_current_dev
 .text.miiphy_get_active_dev
                0x80810368       0x2c common/built-in.o
 .text.mdio_get_current_dev
                0x80810394        0xc common/built-in.o
                0x80810394                mdio_get_current_dev
 .text.mdio_phydev_for_ethname
                0x808103a0       0x50 common/built-in.o
                0x808103a0                mdio_phydev_for_ethname
 .text.miiphy_get_current_dev
                0x808103f0       0x10 common/built-in.o
                0x808103f0                miiphy_get_current_dev
 .text.miiphy_read
                0x80810400       0x28 common/built-in.o
                0x80810400                miiphy_read
 .text.miiphy_write
                0x80810428       0x24 common/built-in.o
                0x80810428                miiphy_write
 .text.miiphy_listdev
                0x8081044c       0x54 common/built-in.o
                0x8081044c                miiphy_listdev
 .text.miiphy_info
                0x808104a0       0x5c common/built-in.o
                0x808104a0                miiphy_info
 .text.miiphy_speed
                0x808104fc       0x80 common/built-in.o
                0x808104fc                miiphy_speed
 .text.miiphy_duplex
                0x8081057c       0x7c common/built-in.o
                0x8081057c                miiphy_duplex
 .text.miiphy_is_1000base_x
                0x808105f8        0x4 common/built-in.o
                0x808105f8                miiphy_is_1000base_x
 .text.usb_set_maxpacket_ep
                0x808105fc       0x5c common/built-in.o
 .text.usb_stop
                0x80810658       0x38 common/built-in.o
                0x80810658                usb_stop
 .text.usb_disable_asynch
                0x80810690       0x14 common/built-in.o
                0x80810690                usb_disable_asynch
 .text.usb_control_msg
                0x808106a4       0x84 common/built-in.o
                0x808106a4                usb_control_msg
 .text.usb_get_descriptor
                0x80810728       0x36 common/built-in.o
 *fill*         0x8081075e        0x2 
 .text.get_descriptor_len
                0x80810760       0x60 common/built-in.o
 .text.usb_setup_descriptor
                0x808107c0       0x78 common/built-in.o
 .text.usb_get_string
                0x80810838       0x50 common/built-in.o
 .text.usb_string_sub
                0x80810888       0x94 common/built-in.o
 .text.usb_bulk_msg
                0x8081091c       0x4a common/built-in.o
                0x8081091c                usb_bulk_msg
 .text.usb_maxpacket
                0x80810966       0x14 common/built-in.o
                0x80810966                usb_maxpacket
 .text.usb_clear_halt
                0x8081097a       0x5e common/built-in.o
                0x8081097a                usb_clear_halt
 .text.usb_get_configuration_len
                0x808109d8       0x50 common/built-in.o
                0x808109d8                usb_get_configuration_len
 .text.usb_get_configuration_no
                0x80810a28       0x1c common/built-in.o
                0x80810a28                usb_get_configuration_no
 .text.usb_set_interface
                0x80810a44       0x74 common/built-in.o
                0x80810a44                usb_set_interface
 .text.usb_string
                0x80810ab8       0x9a common/built-in.o
                0x80810ab8                usb_string
 *fill*         0x80810b52        0x2 
 .text.usb_get_dev_index
                0x80810b54       0x18 common/built-in.o
                0x80810b54                usb_get_dev_index
 .text.usb_alloc_new_device
                0x80810b6c       0x68 common/built-in.o
                0x80810b6c                usb_alloc_new_device
 .text.usb_free_device
                0x80810bd4       0x30 common/built-in.o
                0x80810bd4                usb_free_device
 .text.usb_alloc_device
                0x80810c04        0x4 common/built-in.o
                0x80810c04                usb_alloc_device
 .text.usb_select_config
                0x80810c08      0x310 common/built-in.o
                0x80810c08                usb_select_config
 .text.usb_setup_device
                0x80810f18       0xa4 common/built-in.o
                0x80810f18                usb_setup_device
 .text.usb_new_device
                0x80810fbc       0x1e common/built-in.o
                0x80810fbc                usb_new_device
 *fill*         0x80810fda        0x2 
 .text.usb_init
                0x80810fdc       0xd8 common/built-in.o
                0x80810fdc                usb_init
 .text.board_usb_init
                0x808110b4        0x4 common/built-in.o
                0x808110b4                board_usb_init
 .text.board_usb_cleanup
                0x808110b8        0x4 common/built-in.o
                0x808110b8                board_usb_cleanup
 .text.usb_device_has_child_on_port
                0x808110bc       0x10 common/built-in.o
                0x808110bc                usb_device_has_child_on_port
 .text.usb_find_usb2_hub_address_port
                0x808110cc       0x34 common/built-in.o
                0x808110cc                usb_find_usb2_hub_address_port
 .text.usb_set_port_feature
                0x80811100       0x2e common/built-in.o
 .text.usb_get_hub_descriptor
                0x8081112e       0x3e common/built-in.o
 .text.usb_clear_port_feature.isra.0
                0x8081116c       0x2e common/built-in.o
 .text.usb_hub_reset_devices
                0x8081119a        0x2 common/built-in.o
                0x8081119a                usb_hub_reset_devices
 .text.usb_get_port_status
                0x8081119c       0x30 common/built-in.o
                0x8081119c                usb_get_port_status
 .text.usb_hub_reset
                0x808111cc       0x18 common/built-in.o
                0x808111cc                usb_hub_reset
 .text.usb_hub_port_connect_change
                0x808111e4      0x138 common/built-in.o
                0x808111e4                usb_hub_port_connect_change
 .text.usb_hub_configure
                0x8081131c      0x3c0 common/built-in.o
 .text.usb_hub_probe
                0x808116dc       0x3a common/built-in.o
                0x808116dc                usb_hub_probe
 .text.usb_stor_irq
                0x80811716       0x10 common/built-in.o
 *fill*         0x80811726        0x2 
 .text.usb_stor_BBB_reset
                0x80811728       0x94 common/built-in.o
 .text.usb_stor_CB_reset
                0x808117bc       0x88 common/built-in.o
 .text.usb_stor_CB_comdat
                0x80811844      0x154 common/built-in.o
 .text.usb_stor_CBI_get_status
                0x80811998       0x7c common/built-in.o
 .text.usb_stor_CB_transport
                0x80811a14      0x150 common/built-in.o
 .text.usb_request_sense.constprop.0.isra.0
                0x80811b64       0x48 common/built-in.o
 .text.usb_stor_read
                0x80811bac       0xf4 common/built-in.o
 .text.usb_stor_write
                0x80811ca0       0xf4 common/built-in.o
 .text.usb_stor_BBB_clear_endpt_stall.isra.0
                0x80811d94       0x2c common/built-in.o
 .text.usb_stor_BBB_transport
                0x80811dc0      0x1b0 common/built-in.o
 .text.usb_stor_info
                0x80811f70       0x48 common/built-in.o
                0x80811f70                usb_stor_info
 .text.usb_storage_probe
                0x80811fb8      0x154 common/built-in.o
                0x80811fb8                usb_storage_probe
 .text.usb_stor_get_info
                0x8081210c      0x224 common/built-in.o
                0x8081210c                usb_stor_get_info
 .text.usb_stor_scan
                0x80812330      0x148 common/built-in.o
                0x80812330                usb_stor_scan
 .text.menu_display_statusline
                0x80812478        0x2 common/built-in.o
                0x80812478                menu_display_statusline
 .text.menu_default_set
                0x8081247a       0x4a common/built-in.o
                0x8081247a                menu_default_set
 .text.menu_get_choice
                0x808124c4      0x11c common/built-in.o
                0x808124c4                menu_get_choice
 .text.menu_item_add
                0x808125e0       0x7c common/built-in.o
                0x808125e0                menu_item_add
 .text.menu_create
                0x8081265c       0x50 common/built-in.o
                0x8081265c                menu_create
 .text.menu_destroy
                0x808126ac       0x44 common/built-in.o
                0x808126ac                menu_destroy
 .text.update_tftp
                0x808126f0      0x228 common/built-in.o
                0x808126f0                update_tftp
 .text.cread_add_char
                0x80812918       0x80 common/built-in.o
 .text.delete_char
                0x80812998       0x88 common/built-in.o
 .text.cli_readline_into_buffer
                0x80812a20      0x654 common/built-in.o
                0x80812a20                cli_readline_into_buffer
 .text.cli_readline
                0x80813074       0x10 common/built-in.o
                0x80813074                cli_readline
 .text.cli_simple_process_macros
                0x80813084      0x13c common/built-in.o
                0x80813084                cli_simple_process_macros
 .text.console_setfile
                0x808131c0       0x74 common/built-in.o
 .text.fgetc.part.0
                0x80813234       0x28 common/built-in.o
 .text.getc     0x8081325c       0x1a common/built-in.o
                0x8081325c                getc
 *fill*         0x80813276        0x2 
 .text.puts     0x80813278       0x28 common/built-in.o
                0x80813278                puts
 .text.putc     0x808132a0       0x28 common/built-in.o
                0x808132a0                putc
 .text.ftstc    0x808132c8       0x18 common/built-in.o
                0x808132c8                ftstc
 .text.tstc     0x808132e0       0x1a common/built-in.o
                0x808132e0                tstc
 *fill*         0x808132fa        0x2 
 .text.fputs    0x808132fc       0x14 common/built-in.o
                0x808132fc                fputs
 .text.ctrlc    0x80813310       0x34 common/built-in.o
                0x80813310                ctrlc
 .text.disable_ctrlc
                0x80813344       0x10 common/built-in.o
                0x80813344                disable_ctrlc
 .text.had_ctrlc
                0x80813354        0xc common/built-in.o
                0x80813354                had_ctrlc
 .text.clear_ctrlc
                0x80813360        0xc common/built-in.o
                0x80813360                clear_ctrlc
 .text.search_device
                0x8081336c       0x16 common/built-in.o
                0x8081336c                search_device
 .text.console_assign
                0x80813382       0x2a common/built-in.o
                0x80813382                console_assign
 .text.on_console
                0x808133ac       0x6c common/built-in.o
 .text.console_init_f
                0x80813418        0xa common/built-in.o
                0x80813418                console_init_f
 *fill*         0x80813422        0x2 
 .text.console_init_r
                0x80813424       0x88 common/built-in.o
                0x80813424                console_init_r
 .text.sbrk     0x808134ac       0x40 common/built-in.o
                0x808134ac                sbrk
 .text.mem_malloc_init
                0x808134ec       0x28 common/built-in.o
                0x808134ec                mem_malloc_init
 .text.malloc_trim
                0x80813514       0x7c common/built-in.o
                0x80813514                malloc_trim
 .text.free     0x80813590      0x164 common/built-in.o
                0x80813590                free
 .text.malloc   0x808136f4      0x414 common/built-in.o
                0x808136f4                malloc
 .text.calloc   0x80813b08       0xb8 common/built-in.o
                0x80813b08                calloc
 .text.realloc  0x80813bc0      0x2d0 common/built-in.o
                0x80813bc0                realloc
 .text.memalign
                0x80813e90      0x11a common/built-in.o
                0x80813e90                memalign
 .text.initf_malloc
                0x80813faa       0x14 common/built-in.o
                0x80813faa                initf_malloc
 .text.alloc_simple
                0x80813fbe       0x36 common/built-in.o
 .text.malloc_simple
                0x80813ff4        0x6 common/built-in.o
                0x80813ff4                malloc_simple
 *fill*         0x80813ffa        0x2 
 .text.on_loadaddr
                0x80813ffc       0x1c common/built-in.o
 .text.image_check_hcrc
                0x80814018       0x2a common/built-in.o
                0x80814018                image_check_hcrc
 .text.image_check_dcrc
                0x80814042       0x22 common/built-in.o
                0x80814042                image_check_dcrc
 .text.image_multi_count
                0x80814064       0x12 common/built-in.o
                0x80814064                image_multi_count
 .text.image_multi_getimg
                0x80814076       0x4a common/built-in.o
                0x80814076                image_multi_getimg
 .text.env_get_bootm_low
                0x808140c0       0x20 common/built-in.o
                0x808140c0                env_get_bootm_low
 .text.env_get_bootm_size
                0x808140e0       0x44 common/built-in.o
                0x808140e0                env_get_bootm_size
 .text.env_get_bootm_mapsize
                0x80814124       0x20 common/built-in.o
                0x80814124                env_get_bootm_mapsize
 .text.memmove_wd
                0x80814144       0x46 common/built-in.o
                0x80814144                memmove_wd
 *fill*         0x8081418a        0x2 
 .text.genimg_print_size
                0x8081418c       0x24 common/built-in.o
                0x8081418c                genimg_print_size
 .text.genimg_print_time
                0x808141b0       0x30 common/built-in.o
                0x808141b0                genimg_print_time
 .text.get_table_entry
                0x808141e0       0x12 common/built-in.o
                0x808141e0                get_table_entry
 .text.get_table_entry_name
                0x808141f2       0x12 common/built-in.o
                0x808141f2                get_table_entry_name
 .text.genimg_get_os_name
                0x80814204       0x14 common/built-in.o
                0x80814204                genimg_get_os_name
 .text.genimg_get_arch_name
                0x80814218       0x14 common/built-in.o
                0x80814218                genimg_get_arch_name
 .text.genimg_get_type_name
                0x8081422c       0x14 common/built-in.o
                0x8081422c                genimg_get_type_name
 .text.genimg_get_comp_name
                0x80814240       0x14 common/built-in.o
                0x80814240                genimg_get_comp_name
 .text.image_print_contents
                0x80814254      0x12c common/built-in.o
                0x80814254                image_print_contents
 .text.get_table_entry_id
                0x80814380       0x26 common/built-in.o
                0x80814380                get_table_entry_id
 *fill*         0x808143a6        0x2 
 .text.genimg_get_os_id
                0x808143a8       0x14 common/built-in.o
                0x808143a8                genimg_get_os_id
 .text.genimg_get_arch_id
                0x808143bc       0x14 common/built-in.o
                0x808143bc                genimg_get_arch_id
 .text.genimg_get_type_id
                0x808143d0       0x14 common/built-in.o
                0x808143d0                genimg_get_type_id
 .text.genimg_get_comp_id
                0x808143e4       0x14 common/built-in.o
                0x808143e4                genimg_get_comp_id
 .text.genimg_get_kernel_addr_fit
                0x808143f8       0x3c common/built-in.o
                0x808143f8                genimg_get_kernel_addr_fit
 .text.genimg_get_kernel_addr
                0x80814434       0x16 common/built-in.o
                0x80814434                genimg_get_kernel_addr
 *fill*         0x8081444a        0x2 
 .text.genimg_get_format
                0x8081444c       0x30 common/built-in.o
                0x8081444c                genimg_get_format
 .text.genimg_has_config
                0x8081447c        0xa common/built-in.o
                0x8081447c                genimg_has_config
 *fill*         0x80814486        0x2 
 .text.boot_get_ramdisk
                0x80814488      0x268 common/built-in.o
                0x80814488                boot_get_ramdisk
 .text.boot_ramdisk_high
                0x808146f0       0xbc common/built-in.o
                0x808146f0                boot_ramdisk_high
 .text.boot_get_setup
                0x808147ac        0x4 common/built-in.o
                0x808147ac                boot_get_setup
 .text.boot_get_loadable
                0x808147b0       0xe4 common/built-in.o
                0x808147b0                boot_get_loadable
 .text.image_setup_linux
                0x80814894       0x3a common/built-in.o
                0x80814894                image_setup_linux
 *fill*         0x808148ce        0x2 
 .text.android_image_get_kernel
                0x808148d0      0x160 common/built-in.o
                0x808148d0                android_image_get_kernel
 .text.android_image_check_header
                0x80814a30       0x10 common/built-in.o
                0x80814a30                android_image_check_header
 .text.android_image_get_end
                0x80814a40       0x78 common/built-in.o
                0x80814a40                android_image_get_end
 .text.android_image_get_kload
                0x80814ab8       0x40 common/built-in.o
                0x80814ab8                android_image_get_kload
 .text.android_image_get_ramdisk
                0x80814af8       0xc4 common/built-in.o
                0x80814af8                android_image_get_ramdisk
 .text.android_image_get_second
                0x80814bbc       0xe8 common/built-in.o
                0x80814bbc                android_image_get_second
 .text.android_print_contents
                0x80814ca4      0x1a4 common/built-in.o
                0x80814ca4                android_print_contents
 .text.fdt_error
                0x80814e48       0x24 common/built-in.o
 .text.boot_fdt_add_mem_rsv_regions
                0x80814e6c       0xe8 common/built-in.o
                0x80814e6c                boot_fdt_add_mem_rsv_regions
 .text.boot_relocate_fdt
                0x80814f54      0x108 common/built-in.o
                0x80814f54                boot_relocate_fdt
 .text.boot_get_fdt
                0x8081505c      0x27c common/built-in.o
                0x8081505c                boot_get_fdt
 .text.ft_verify_fdt
                0x808152d8        0x4 common/built-in.o
                0x808152d8                ft_verify_fdt
 .text.image_setup_libfdt
                0x808152dc       0xb0 common/built-in.o
                0x808152dc                image_setup_libfdt
 .text.fit_image_get_address
                0x8081538c       0x3c common/built-in.o
 .text.fit_parse_conf
                0x808153c8       0x3a common/built-in.o
                0x808153c8                fit_parse_conf
 .text.fit_parse_subimage
                0x80815402       0x3a common/built-in.o
                0x80815402                fit_parse_subimage
 .text.fit_get_desc
                0x8081543c       0x20 common/built-in.o
                0x8081543c                fit_get_desc
 .text.fit_get_timestamp
                0x8081545c       0x30 common/built-in.o
                0x8081545c                fit_get_timestamp
 .text.fit_image_get_node
                0x8081548c       0x24 common/built-in.o
                0x8081548c                fit_image_get_node
 .text.fit_image_get_os
                0x808154b0       0x28 common/built-in.o
                0x808154b0                fit_image_get_os
 .text.fit_image_get_arch
                0x808154d8       0x28 common/built-in.o
                0x808154d8                fit_image_get_arch
 .text.fit_image_get_type
                0x80815500       0x28 common/built-in.o
                0x80815500                fit_image_get_type
 .text.fit_image_get_comp
                0x80815528       0x28 common/built-in.o
                0x80815528                fit_image_get_comp
 .text.fit_image_get_load
                0x80815550        0xc common/built-in.o
                0x80815550                fit_image_get_load
 .text.fit_image_get_entry
                0x8081555c        0xc common/built-in.o
                0x8081555c                fit_image_get_entry
 .text.fit_image_get_data
                0x80815568       0x28 common/built-in.o
                0x80815568                fit_image_get_data
 .text.fit_image_get_data_offset
                0x80815590       0x24 common/built-in.o
                0x80815590                fit_image_get_data_offset
 .text.fit_image_get_data_position
                0x808155b4       0x24 common/built-in.o
                0x808155b4                fit_image_get_data_position
 .text.fit_image_get_data_size
                0x808155d8       0x24 common/built-in.o
                0x808155d8                fit_image_get_data_size
 .text.fit_image_get_data_and_size
                0x808155fc       0x58 common/built-in.o
                0x808155fc                fit_image_get_data_and_size
 .text.fit_image_hash_get_algo
                0x80815654       0x20 common/built-in.o
                0x80815654                fit_image_hash_get_algo
 .text.fit_image_hash_get_value
                0x80815674       0x28 common/built-in.o
                0x80815674                fit_image_hash_get_value
 .text.fit_image_print_data
                0x8081569c      0x130 common/built-in.o
 .text.fit_image_print_verification_data
                0x808157cc       0x60 common/built-in.o
 .text.fit_image_print
                0x8081582c      0x230 common/built-in.o
                0x8081582c                fit_image_print
 .text.fit_print_contents
                0x80815a5c      0x2dc common/built-in.o
                0x80815a5c                fit_print_contents
 .text.fit_get_end
                0x80815d38        0x8 common/built-in.o
                0x80815d38                fit_get_end
 .text.calculate_hash
                0x80815d40       0x98 common/built-in.o
                0x80815d40                calculate_hash
 .text.fit_image_verify_with_data
                0x80815dd8      0x138 common/built-in.o
                0x80815dd8                fit_image_verify_with_data
 .text.fit_image_verify
                0x80815f10       0x54 common/built-in.o
                0x80815f10                fit_image_verify
 .text.fit_all_image_verify
                0x80815f64       0xa0 common/built-in.o
                0x80815f64                fit_all_image_verify
 .text.fit_image_check_os
                0x80816004       0x20 common/built-in.o
                0x80816004                fit_image_check_os
 .text.fit_image_check_arch
                0x80816024       0x2c common/built-in.o
                0x80816024                fit_image_check_arch
 .text.fit_image_check_type
                0x80816050       0x20 common/built-in.o
                0x80816050                fit_image_check_type
 .text.fit_image_check_comp
                0x80816070       0x20 common/built-in.o
                0x80816070                fit_image_check_comp
 .text.fit_check_format
                0x80816090       0x40 common/built-in.o
                0x80816090                fit_check_format
 .text.fit_conf_get_node
                0x808160d0       0x7c common/built-in.o
                0x808160d0                fit_conf_get_node
 .text.fit_conf_get_prop_node_index
                0x8081614c       0x20 common/built-in.o
                0x8081614c                fit_conf_get_prop_node_index
 .text.fit_conf_get_prop_node
                0x8081616c        0x6 common/built-in.o
                0x8081616c                fit_conf_get_prop_node
 .text.fit_get_node_from_config
                0x80816172       0x2a common/built-in.o
                0x80816172                fit_get_node_from_config
 .text.fit_image_load
                0x8081619c      0x3d4 common/built-in.o
                0x8081619c                fit_image_load
 .text.boot_get_setup_fit
                0x80816570       0x40 common/built-in.o
                0x80816570                boot_get_setup_fit
 .text.boot_get_fdt_fit
                0x808165b0      0x1c4 common/built-in.o
                0x808165b0                boot_get_fdt_fit
 .text.get_ram_size
                0x80816774       0x86 common/built-in.o
                0x80816774                get_ram_size
 .text.get_effective_memsize
                0x808167fa        0x6 common/built-in.o
                0x808167fa                get_effective_memsize
 .text.stdio_serial_tstc
                0x80816800        0x4 common/built-in.o
 .text.stdio_serial_getc
                0x80816804        0x4 common/built-in.o
 .text.stdio_serial_puts
                0x80816808        0x6 common/built-in.o
 .text.stdio_serial_putc
                0x8081680e        0x6 common/built-in.o
 .text.stdio_get_list
                0x80816814        0x8 common/built-in.o
                0x80816814                stdio_get_list
 .text.stdio_get_by_name
                0x8081681c       0x30 common/built-in.o
                0x8081681c                stdio_get_by_name
 .text.stdio_clone
                0x8081684c       0x22 common/built-in.o
                0x8081684c                stdio_clone
 *fill*         0x8081686e        0x2 
 .text.stdio_register_dev
                0x80816870       0x30 common/built-in.o
                0x80816870                stdio_register_dev
 .text.stdio_register
                0x808168a0        0x6 common/built-in.o
                0x808168a0                stdio_register
 *fill*         0x808168a6        0x2 
 .text.stdio_init_tables
                0x808168a8       0x14 common/built-in.o
                0x808168a8                stdio_init_tables
 .text.stdio_add_devices
                0x808168bc       0x50 common/built-in.o
                0x808168bc                stdio_add_devices
 .text.run_command
                0x8081690c        0xe common/built-in.o
                0x8081690c                run_command
 .text.run_command_list
                0x8081691a       0x46 common/built-in.o
                0x8081691a                run_command_list
 .text.do_run   0x80816960       0x4c common/built-in.o
                0x80816960                do_run
 .text.cli_process_fdt
                0x808169ac       0x30 common/built-in.o
                0x808169ac                cli_process_fdt
 .text.cli_secure_boot_cmd
                0x808169dc       0x4c common/built-in.o
                0x808169dc                cli_secure_boot_cmd
 .text.cli_loop
                0x80816a28        0x8 common/built-in.o
                0x80816a28                cli_loop
 .text.cli_init
                0x80816a30        0x4 common/built-in.o
                0x80816a30                cli_init
 .text.run_usb_dnl_gadget
                0x80816a34       0xc4 common/built-in.o
                0x80816a34                run_usb_dnl_gadget
 .text.find_cmd_tbl
                0x80816af8       0x66 common/built-in.o
                0x80816af8                find_cmd_tbl
 *fill*         0x80816b5e        0x2 
 .text.find_cmd
                0x80816b60       0x24 common/built-in.o
                0x80816b60                find_cmd
 .text.cmd_usage
                0x80816b84       0x3c common/built-in.o
                0x80816b84                cmd_usage
 .text._do_help
                0x80816bc0      0x104 common/built-in.o
                0x80816bc0                _do_help
 .text.var_complete
                0x80816cc4       0x50 common/built-in.o
                0x80816cc4                var_complete
 .text.complete_subcmdv
                0x80816d14      0x100 common/built-in.o
                0x80816d14                complete_subcmdv
 .text.cmd_auto_complete
                0x80816e14      0x27c common/built-in.o
                0x80816e14                cmd_auto_complete
 .text.cmd_get_data_size
                0x80817090       0x34 common/built-in.o
                0x80817090                cmd_get_data_size
 .text.cmd_always_repeatable
                0x808170c4       0x10 common/built-in.o
                0x808170c4                cmd_always_repeatable
 .text.cmd_never_repeatable
                0x808170d4       0x10 common/built-in.o
                0x808170d4                cmd_never_repeatable
 .text.cmd_process
                0x808170e4       0x9c common/built-in.o
                0x808170e4                cmd_process
 .text.cmd_process_error
                0x80817180       0x1c common/built-in.o
                0x80817180                cmd_process_error
 .text.hex1_bin
                0x8081719c       0x2c common/built-in.o
 .text.hex2_bin
                0x808171c8       0x24 common/built-in.o
 .text.srec_decode
                0x808171ec      0x15c common/built-in.o
                0x808171ec                srec_decode
 .text.CYGACC_COMM_IF_GETC_TIMEOUT.constprop.0
                0x80817348       0x32 common/built-in.o
 .text.xyzModem_flush
                0x8081737a       0x14 common/built-in.o
 *fill*         0x8081738e        0x2 
 .text.xyzModem_get_hdr
                0x80817390      0x16c common/built-in.o
 .text.xyzModem_stream_open
                0x808174fc      0x15c common/built-in.o
                0x808174fc                xyzModem_stream_open
 .text.xyzModem_stream_read
                0x80817658      0x198 common/built-in.o
                0x80817658                xyzModem_stream_read
 .text.xyzModem_stream_close
                0x808177f0       0x40 common/built-in.o
                0x808177f0                xyzModem_stream_close
 .text.xyzModem_stream_terminate
                0x80817830       0x68 common/built-in.o
                0x80817830                xyzModem_stream_terminate
 .text.xyzModem_error
                0x80817898       0x18 common/built-in.o
                0x80817898                xyzModem_error
 .text.part_driver_lookup_type
                0x808178b0       0x4c disk/built-in.o
 .text.blk_get_dev
                0x808178fc       0x1c disk/built-in.o
                0x808178fc                blk_get_dev
 .text.dev_print
                0x80817918      0x178 disk/built-in.o
                0x80817918                dev_print
 .text.part_init
                0x80817a90       0x34 disk/built-in.o
                0x80817a90                part_init
 .text.part_print
                0x80817ac4       0xb8 disk/built-in.o
                0x80817ac4                part_print
 .text.part_get_info
                0x80817b7c       0x36 disk/built-in.o
                0x80817b7c                part_get_info
 *fill*         0x80817bb2        0x2 
 .text.part_get_info_whole_disk
                0x80817bb4       0x38 disk/built-in.o
                0x80817bb4                part_get_info_whole_disk
 .text.blk_get_device_by_str
                0x80817bec       0xc0 disk/built-in.o
                0x80817bec                blk_get_device_by_str
 .text.blk_get_device_part_str
                0x80817cac      0x244 disk/built-in.o
                0x80817cac                blk_get_device_part_str
 .text.part_get_info_by_name_type
                0x80817ef0       0x48 disk/built-in.o
                0x80817ef0                part_get_info_by_name_type
 .text.part_get_info_by_name
                0x80817f38        0x8 disk/built-in.o
                0x80817f38                part_get_info_by_name
 .text.part_set_generic_name
                0x80817f40       0x38 disk/built-in.o
                0x80817f40                part_set_generic_name
 .text.test_block_type
                0x80817f78       0x50 disk/built-in.o
 .text.print_partition_extended
                0x80817fc8      0x150 disk/built-in.o
 .text.part_print_dos
                0x80818118       0x20 disk/built-in.o
                0x80818118                part_print_dos
 .text.part_test_dos
                0x80818138       0x48 disk/built-in.o
 .text.part_get_info_extended
                0x80818180      0x178 disk/built-in.o
 .text.part_get_info_dos
                0x808182f8       0x1a disk/built-in.o
                0x808182f8                part_get_info_dos
 .text.is_valid_dos_buf
                0x80818312       0x10 disk/built-in.o
                0x80818312                is_valid_dos_buf
 *fill*         0x80818322        0x2 
 .text.write_mbr_partition
                0x80818324       0x44 disk/built-in.o
                0x80818324                write_mbr_partition
 .text.iso_dread
                0x80818368       0x22 disk/built-in.o
                0x80818368                iso_dread
 *fill*         0x8081838a        0x2 
 .text.part_get_info_iso_verb
                0x8081838c      0x22c disk/built-in.o
                0x8081838c                part_get_info_iso_verb
 .text.part_test_iso
                0x808185b8       0x14 disk/built-in.o
 .text.part_print_iso
                0x808185cc       0x60 disk/built-in.o
 .text.part_get_info_iso
                0x8081862c        0x6 disk/built-in.o
 *fill*         0x80818632        0x2 
 .text.print_efiname
                0x80818634       0x3c disk/built-in.o
 .text.part_test_efi
                0x80818670       0x82 disk/built-in.o
 *fill*         0x808186f2        0x2 
 .text.is_pte_valid
                0x808186f4       0x38 disk/built-in.o
 .text.validate_gpt_entries
                0x8081872c       0x80 disk/built-in.o
 *fill*         0x808187ac        0x4 
 .text.validate_gpt_header
                0x808187b0      0x1a8 disk/built-in.o
 .text.is_gpt_valid
                0x80818958      0x1b0 disk/built-in.o
 .text.part_print_efi
                0x80818b08      0x1e0 disk/built-in.o
                0x80818b08                part_print_efi
 .text.part_get_info_efi
                0x80818ce8      0x170 disk/built-in.o
                0x80818ce8                part_get_info_efi
 .text.get_disk_guid
                0x80818e58       0xa4 disk/built-in.o
                0x80818e58                get_disk_guid
 .text.write_gpt_table
                0x80818efc      0x37c disk/built-in.o
                0x80818efc                write_gpt_table
 .text.gpt_fill_pte
                0x80819278      0x25c disk/built-in.o
                0x80819278                gpt_fill_pte
 .text.gpt_fill_header
                0x808194d4      0x19c disk/built-in.o
                0x808194d4                gpt_fill_header
 .text.gpt_restore
                0x80819670       0xc8 disk/built-in.o
                0x80819670                gpt_restore
 .text.gpt_verify_headers
                0x80819738       0x54 disk/built-in.o
                0x80819738                gpt_verify_headers
 .text.gpt_verify_partitions
                0x8081978c      0x16c disk/built-in.o
                0x8081978c                gpt_verify_partitions
 .text.is_valid_gpt_buf
                0x808198f8       0x4e disk/built-in.o
                0x808198f8                is_valid_gpt_buf
 *fill*         0x80819946        0x2 
 .text.write_mbr_and_gpt_partitions
                0x80819948      0x2f0 disk/built-in.o
                0x80819948                write_mbr_and_gpt_partitions
 .text.alloc_priv
                0x80819c38       0x38 drivers/built-in.o
 .text.device_bind_common.constprop.0
                0x80819c70      0x200 drivers/built-in.o
 .text.device_bind_with_driver_data
                0x80819e70       0x16 drivers/built-in.o
                0x80819e70                device_bind_with_driver_data
 .text.device_bind_by_name
                0x80819e86       0x44 drivers/built-in.o
                0x80819e86                device_bind_by_name
 *fill*         0x80819eca        0x2 
 .text.device_probe
                0x80819ecc      0x140 drivers/built-in.o
                0x80819ecc                device_probe
 .text.dev_get_platdata
                0x8081a00c       0x20 drivers/built-in.o
                0x8081a00c                dev_get_platdata
 .text.dev_get_parent_platdata
                0x8081a02c       0x20 drivers/built-in.o
                0x8081a02c                dev_get_parent_platdata
 .text.dev_get_uclass_platdata
                0x8081a04c       0x20 drivers/built-in.o
                0x8081a04c                dev_get_uclass_platdata
 .text.dev_get_priv
                0x8081a06c       0x20 drivers/built-in.o
                0x8081a06c                dev_get_priv
 .text.dev_get_uclass_priv
                0x8081a08c       0x20 drivers/built-in.o
                0x8081a08c                dev_get_uclass_priv
 .text.device_find_first_child
                0x8081a0ac       0x12 drivers/built-in.o
                0x8081a0ac                device_find_first_child
 .text.device_find_next_child
                0x8081a0be       0x16 drivers/built-in.o
                0x8081a0be                device_find_next_child
 .text.dev_get_parent
                0x8081a0d4        0x4 drivers/built-in.o
                0x8081a0d4                dev_get_parent
 .text.dev_get_driver_data
                0x8081a0d8        0x4 drivers/built-in.o
                0x8081a0d8                dev_get_driver_data
 .text.devfdt_get_addr_index
                0x8081a0dc       0x7c drivers/built-in.o
                0x8081a0dc                devfdt_get_addr_index
 .text.devfdt_get_addr
                0x8081a158        0x6 drivers/built-in.o
                0x8081a158                devfdt_get_addr
 *fill*         0x8081a15e        0x2 
 .text.lists_driver_lookup_name
                0x8081a160       0x34 drivers/built-in.o
                0x8081a160                lists_driver_lookup_name
 .text.lists_uclass_lookup
                0x8081a194       0x2c drivers/built-in.o
                0x8081a194                lists_uclass_lookup
 .text.lists_bind_drivers
                0x8081a1c0       0x64 drivers/built-in.o
                0x8081a1c0                lists_bind_drivers
 .text.device_bind_driver_to_node
                0x8081a224       0x2c drivers/built-in.o
                0x8081a224                device_bind_driver_to_node
 .text.device_bind_driver
                0x8081a250       0x12 drivers/built-in.o
                0x8081a250                device_bind_driver
 *fill*         0x8081a262        0x2 
 .text.lists_bind_fdt
                0x8081a264       0xfc drivers/built-in.o
                0x8081a264                lists_bind_fdt
 .text.dm_scan_fdt_node
                0x8081a360       0x98 drivers/built-in.o
 .text.dm_scan_fdt_ofnode_path
                0x8081a3f8       0x24 drivers/built-in.o
 .text.dm_root  0x8081a41c       0x1c drivers/built-in.o
                0x8081a41c                dm_root
 .text.dm_get_translation_offset
                0x8081a438        0xe drivers/built-in.o
                0x8081a438                dm_get_translation_offset
 *fill*         0x8081a446        0x2 
 .text.dm_init  0x8081a448       0x4c drivers/built-in.o
                0x8081a448                dm_init
 .text.dm_remove_devices_flags
                0x8081a494       0x12 drivers/built-in.o
                0x8081a494                dm_remove_devices_flags
 *fill*         0x8081a4a6        0x2 
 .text.dm_scan_platdata
                0x8081a4a8       0x20 drivers/built-in.o
                0x8081a4a8                dm_scan_platdata
 .text.dm_scan_fdt_dev
                0x8081a4c8       0x1c drivers/built-in.o
                0x8081a4c8                dm_scan_fdt_dev
 .text.dm_scan_fdt
                0x8081a4e4       0x14 drivers/built-in.o
                0x8081a4e4                dm_scan_fdt
 .text.dm_extended_scan_fdt
                0x8081a4f8       0x30 drivers/built-in.o
                0x8081a4f8                dm_extended_scan_fdt
 .text.dm_scan_other
                0x8081a528        0x4 drivers/built-in.o
                0x8081a528                dm_scan_other
 .text.dm_init_and_scan
                0x8081a52c       0x2c drivers/built-in.o
                0x8081a52c                dm_init_and_scan
 .text.uclass_find
                0x8081a558       0x2e drivers/built-in.o
                0x8081a558                uclass_find
 .text.uclass_get
                0x8081a586       0xaa drivers/built-in.o
                0x8081a586                uclass_get
 .text.dev_get_uclass_index
                0x8081a630       0x36 drivers/built-in.o
                0x8081a630                dev_get_uclass_index
 .text.uclass_find_device
                0x8081a666       0x42 drivers/built-in.o
                0x8081a666                uclass_find_device
 .text.uclass_find_first_device
                0x8081a6a8       0x26 drivers/built-in.o
                0x8081a6a8                uclass_find_first_device
 .text.uclass_find_next_device
                0x8081a6ce       0x18 drivers/built-in.o
                0x8081a6ce                uclass_find_next_device
 .text.uclass_find_device_by_seq
                0x8081a6e6       0x4e drivers/built-in.o
                0x8081a6e6                uclass_find_device_by_seq
 .text.uclass_find_device_by_of_offset
                0x8081a734       0x40 drivers/built-in.o
                0x8081a734                uclass_find_device_by_of_offset
 .text.uclass_find_device_by_ofnode
                0x8081a774       0x42 drivers/built-in.o
                0x8081a774                uclass_find_device_by_ofnode
 .text.uclass_get_device_tail
                0x8081a7b6       0x16 drivers/built-in.o
                0x8081a7b6                uclass_get_device_tail
 .text.uclass_get_device
                0x8081a7cc       0x1e drivers/built-in.o
                0x8081a7cc                uclass_get_device
 .text.uclass_get_device_by_seq
                0x8081a7ea       0x36 drivers/built-in.o
                0x8081a7ea                uclass_get_device_by_seq
 .text.uclass_get_device_by_of_offset
                0x8081a820       0x1e drivers/built-in.o
                0x8081a820                uclass_get_device_by_of_offset
 .text.uclass_get_device_by_ofnode
                0x8081a83e       0x1e drivers/built-in.o
                0x8081a83e                uclass_get_device_by_ofnode
 .text.uclass_first_device
                0x8081a85c       0x24 drivers/built-in.o
                0x8081a85c                uclass_first_device
 .text.uclass_next_device
                0x8081a880       0x28 drivers/built-in.o
                0x8081a880                uclass_next_device
 .text.uclass_bind_device
                0x8081a8a8       0x3c drivers/built-in.o
                0x8081a8a8                uclass_bind_device
 .text.uclass_unbind_device
                0x8081a8e4       0x24 drivers/built-in.o
                0x8081a8e4                uclass_unbind_device
 .text.uclass_resolve_seq
                0x8081a908       0x68 drivers/built-in.o
                0x8081a908                uclass_resolve_seq
 .text.uclass_pre_probe_device
                0x8081a970       0x2e drivers/built-in.o
                0x8081a970                uclass_pre_probe_device
 .text.uclass_post_probe_device
                0x8081a99e       0x2e drivers/built-in.o
                0x8081a99e                uclass_post_probe_device
 .text.uclass_pre_remove_device
                0x8081a9cc        0xe drivers/built-in.o
                0x8081a9cc                uclass_pre_remove_device
 .text.dm_warn  0x8081a9da       0x1a drivers/built-in.o
                0x8081a9da                dm_warn
 .text.dm_ofnode_pre_reloc
                0x8081a9f4       0x34 drivers/built-in.o
                0x8081a9f4                dm_ofnode_pre_reloc
 .text.device_unbind
                0x8081aa28       0x96 drivers/built-in.o
                0x8081aa28                device_unbind
 .text.device_chld_unbind
                0x8081aabe       0x40 drivers/built-in.o
                0x8081aabe                device_chld_unbind
 .text.device_free
                0x8081aafe       0x44 drivers/built-in.o
                0x8081aafe                device_free
 *fill*         0x8081ab42        0x2 
 .text.device_remove
                0x8081ab44       0xd0 drivers/built-in.o
                0x8081ab44                device_remove
 .text.device_chld_remove
                0x8081ac14       0x3c drivers/built-in.o
                0x8081ac14                device_chld_remove
 .text.simple_bus_post_bind
                0x8081ac50       0x34 drivers/built-in.o
 .text.show_devices
                0x8081ac84       0xb0 drivers/built-in.o
 .text.dm_dump_all
                0x8081ad34       0x30 drivers/built-in.o
                0x8081ad34                dm_dump_all
 .text.dm_dump_uclass
                0x8081ad64       0xa0 drivers/built-in.o
                0x8081ad64                dm_dump_uclass
 .text.ofnode_read_u32
                0x8081ae04       0x2e drivers/built-in.o
                0x8081ae04                ofnode_read_u32
 .text.ofnode_read_u32_default
                0x8081ae32       0x12 drivers/built-in.o
                0x8081ae32                ofnode_read_u32_default
 .text.ofnode_read_u32_array
                0x8081ae44       0x18 drivers/built-in.o
                0x8081ae44                ofnode_read_u32_array
 .text.ofnode_get_name
                0x8081ae5c        0xc drivers/built-in.o
                0x8081ae5c                ofnode_get_name
 .text.ofnode_parse_phandle_with_args
                0x8081ae68       0x3e drivers/built-in.o
                0x8081ae68                ofnode_parse_phandle_with_args
 .text.ofnode_path
                0x8081aea6        0xe drivers/built-in.o
                0x8081aea6                ofnode_path
 .text.ofnode_get_property
                0x8081aeb4       0x14 drivers/built-in.o
                0x8081aeb4                ofnode_get_property
 .text.ofnode_read_bool
                0x8081aec8       0x10 drivers/built-in.o
                0x8081aec8                ofnode_read_bool
 .text.dfu_write_buffer_drain
                0x8081aed8       0x68 drivers/built-in.o
 .text.dfu_usb_get_reset
                0x8081af40        0x4 drivers/built-in.o
                0x8081af40                dfu_usb_get_reset
 .text.dfu_free_buf
                0x8081af44       0x14 drivers/built-in.o
                0x8081af44                dfu_free_buf
 .text.dfu_get_buf_size
                0x8081af58        0xc drivers/built-in.o
                0x8081af58                dfu_get_buf_size
 .text.dfu_get_buf
                0x8081af64       0x68 drivers/built-in.o
                0x8081af64                dfu_get_buf
 .text.dfu_transaction_cleanup
                0x8081afcc       0x36 drivers/built-in.o
                0x8081afcc                dfu_transaction_cleanup
 *fill*         0x8081b002        0x2 
 .text.dfu_transaction_initiate
                0x8081b004       0x50 drivers/built-in.o
                0x8081b004                dfu_transaction_initiate
 .text.dfu_flush
                0x8081b054       0x38 drivers/built-in.o
                0x8081b054                dfu_flush
 .text.dfu_write
                0x8081b08c       0xb0 drivers/built-in.o
                0x8081b08c                dfu_write
 .text.dfu_read
                0x8081b13c      0x13c drivers/built-in.o
                0x8081b13c                dfu_read
 .text.dfu_free_entities
                0x8081b278       0x58 drivers/built-in.o
                0x8081b278                dfu_free_entities
 .text.dfu_config_entities
                0x8081b2d0      0x170 drivers/built-in.o
                0x8081b2d0                dfu_config_entities
 .text.dfu_init_env_entities
                0x8081b440       0x54 drivers/built-in.o
                0x8081b440                dfu_init_env_entities
 .text.dfu_get_dev_type
                0x8081b494       0x28 drivers/built-in.o
                0x8081b494                dfu_get_dev_type
 .text.dfu_get_layout
                0x8081b4bc       0x28 drivers/built-in.o
                0x8081b4bc                dfu_get_layout
 .text.dfu_show_entities
                0x8081b4e4       0x54 drivers/built-in.o
                0x8081b4e4                dfu_show_entities
 .text.dfu_get_alt_number
                0x8081b538        0xc drivers/built-in.o
                0x8081b538                dfu_get_alt_number
 .text.dfu_get_entity
                0x8081b544       0x2c drivers/built-in.o
                0x8081b544                dfu_get_entity
 .text.dfu_get_alt
                0x8081b570       0x64 drivers/built-in.o
                0x8081b570                dfu_get_alt
 .text.dfu_write_from_mem_addr
                0x8081b5d4       0x6c drivers/built-in.o
                0x8081b5d4                dfu_write_from_mem_addr
 .text.mmc_block_op
                0x8081b640      0x108 drivers/built-in.o
 .text.mmc_file_op
                0x8081b748       0xec drivers/built-in.o
 .text.dfu_get_medium_size_mmc
                0x8081b834       0x74 drivers/built-in.o
                0x8081b834                dfu_get_medium_size_mmc
 .text.dfu_read_medium_mmc
                0x8081b8a8       0x9c drivers/built-in.o
                0x8081b8a8                dfu_read_medium_mmc
 .text.dfu_free_entity_mmc
                0x8081b944       0x18 drivers/built-in.o
                0x8081b944                dfu_free_entity_mmc
 .text.dfu_flush_medium_mmc
                0x8081b95c       0x30 drivers/built-in.o
                0x8081b95c                dfu_flush_medium_mmc
 .text.dfu_write_medium_mmc
                0x8081b98c       0x94 drivers/built-in.o
                0x8081b98c                dfu_write_medium_mmc
 .text.dfu_fill_entity_mmc
                0x8081ba20      0x1c0 drivers/built-in.o
                0x8081ba20                dfu_fill_entity_mmc
 .text.dfu_get_medium_size_ram
                0x8081bbe0        0xa drivers/built-in.o
                0x8081bbe0                dfu_get_medium_size_ram
 *fill*         0x8081bbea        0x2 
 .text.dfu_read_medium_ram
                0x8081bbec       0x4c drivers/built-in.o
 .text.dfu_write_medium_ram
                0x8081bc38       0x4c drivers/built-in.o
 .text.dfu_fill_entity_ram
                0x8081bc84       0xa0 drivers/built-in.o
                0x8081bc84                dfu_fill_entity_ram
 .text.dfu_tftp_write
                0x8081bd24       0x7c drivers/built-in.o
                0x8081bd24                dfu_tftp_write
 .text.get_desc
                0x8081bda0       0x32 drivers/built-in.o
 *fill*         0x8081bdd2        0x2 
 .text.blk_driver_lookup_type
                0x8081bdd4       0x2c drivers/built-in.o
                0x8081bdd4                blk_driver_lookup_type
 .text.blk_get_if_type_name
                0x8081be00        0xc drivers/built-in.o
                0x8081be00                blk_get_if_type_name
 .text.blk_list_part
                0x8081be0c       0x52 drivers/built-in.o
                0x8081be0c                blk_list_part
 .text.blk_print_part_devnum
                0x8081be5e       0x34 drivers/built-in.o
                0x8081be5e                blk_print_part_devnum
 *fill*         0x8081be92        0x2 
 .text.blk_list_devices
                0x8081be94       0x44 drivers/built-in.o
                0x8081be94                blk_list_devices
 .text.blk_print_device_num
                0x8081bed8       0x38 drivers/built-in.o
                0x8081bed8                blk_print_device_num
 .text.blk_show_device
                0x8081bf10       0x5c drivers/built-in.o
                0x8081bf10                blk_show_device
 .text.blk_get_devnum_by_type
                0x8081bf6c       0x20 drivers/built-in.o
                0x8081bf6c                blk_get_devnum_by_type
 .text.blk_dselect_hwpart
                0x8081bf8c       0x26 drivers/built-in.o
                0x8081bf8c                blk_dselect_hwpart
 *fill*         0x8081bfb2        0x2 
 .text.blk_get_devnum_by_typename
                0x8081bfb4       0x48 drivers/built-in.o
                0x8081bfb4                blk_get_devnum_by_typename
 .text.blk_read_devnum
                0x8081bffc       0x2e drivers/built-in.o
                0x8081bffc                blk_read_devnum
 .text.blk_write_devnum
                0x8081c02a       0x2e drivers/built-in.o
                0x8081c02a                blk_write_devnum
 .text.blk_select_hwpart_devnum
                0x8081c058       0x2a drivers/built-in.o
                0x8081c058                blk_select_hwpart_devnum
 *fill*         0x8081c082        0x2 
 .text.bootcount_store
                0x8081c084       0x2c drivers/built-in.o
                0x8081c084                bootcount_store
 .text.bootcount_load
                0x8081c0b0       0x20 drivers/built-in.o
                0x8081c0b0                bootcount_load
 .text.fastboot_response
                0x8081c0d0       0x3e drivers/built-in.o
                0x8081c0d0                fastboot_response
 *fill*         0x8081c10e        0x2 
 .text.fastboot_fail
                0x8081c110       0x14 drivers/built-in.o
                0x8081c110                fastboot_fail
 .text.fastboot_okay
                0x8081c124       0x1c drivers/built-in.o
                0x8081c124                fastboot_okay
 .text.fastboot_set_reboot_flag
                0x8081c140        0x6 drivers/built-in.o
                0x8081c140                fastboot_set_reboot_flag
 *fill*         0x8081c146        0x2 
 .text.fastboot_boot
                0x8081c148       0x60 drivers/built-in.o
                0x8081c148                fastboot_boot
 .text.fastboot_init
                0x8081c1a8       0x2c drivers/built-in.o
                0x8081c1a8                fastboot_init
 .text.getvar_downloadsize
                0x8081c1d4       0x18 drivers/built-in.o
 .text.getvar_partition_size
                0x8081c1ec       0x2c drivers/built-in.o
 .text.getvar_slot_suffixes
                0x8081c218        0xc drivers/built-in.o
 .text.getvar_current_slot
                0x8081c224        0xc drivers/built-in.o
 .text.getvar_version_baseband
                0x8081c230        0xc drivers/built-in.o
 .text.getvar_bootloader_version
                0x8081c23c        0xc drivers/built-in.o
 .text.getvar_version
                0x8081c248        0xc drivers/built-in.o
 .text.getvar_partition_type
                0x8081c254       0x3c drivers/built-in.o
 .text.getvar_has_slot
                0x8081c290       0x40 drivers/built-in.o
 .text.getvar_product
                0x8081c2d0       0x28 drivers/built-in.o
 .text.getvar_serialno
                0x8081c2f8       0x28 drivers/built-in.o
 .text.fastboot_getvar
                0x8081c320       0x94 drivers/built-in.o
                0x8081c320                fastboot_getvar
 .text.okay     0x8081c3b4        0x6 drivers/built-in.o
 .text.erase    0x8081c3ba        0x4 drivers/built-in.o
 *fill*         0x8081c3be        0x2 
 .text.flash    0x8081c3c0       0x18 drivers/built-in.o
 .text.download
                0x8081c3d8       0x78 drivers/built-in.o
 .text.getvar   0x8081c450        0x4 drivers/built-in.o
 .text.oem_format
                0x8081c454       0x54 drivers/built-in.o
 .text.reboot_bootloader
                0x8081c4a8       0x24 drivers/built-in.o
 .text.fastboot_handle_command
                0x8081c4cc       0x68 drivers/built-in.o
                0x8081c4cc                fastboot_handle_command
 .text.fastboot_data_remaining
                0x8081c534       0x14 drivers/built-in.o
                0x8081c534                fastboot_data_remaining
 .text.fastboot_data_download
                0x8081c548       0x70 drivers/built-in.o
                0x8081c548                fastboot_data_download
 .text.fastboot_data_complete
                0x8081c5b8       0x40 drivers/built-in.o
                0x8081c5b8                fastboot_data_complete
 .text.fb_mmc_blk_write
                0x8081c5f8       0x70 drivers/built-in.o
 .text.fb_mmc_sparse_write
                0x8081c668        0x8 drivers/built-in.o
 .text.fb_mmc_sparse_reserve
                0x8081c670        0x4 drivers/built-in.o
 .text.part_get_info_by_name_or_alias
                0x8081c674       0x44 drivers/built-in.o
 .text.fastboot_mmc_get_part_info
                0x8081c6b8       0x50 drivers/built-in.o
                0x8081c6b8                fastboot_mmc_get_part_info
 .text.fastboot_mmc_flash_write
                0x8081c708      0x4b8 drivers/built-in.o
                0x8081c708                fastboot_mmc_flash_write
 .text.fastboot_mmc_erase
                0x8081cbc0       0xec drivers/built-in.o
                0x8081cbc0                fastboot_mmc_erase
 .text.mmc_set_ios
                0x8081ccac        0xe drivers/built-in.o
 .text.mmc_set_capacity
                0x8081ccba       0x62 drivers/built-in.o
 .text.board_mmc_getwp
                0x8081cd1c        0x6 drivers/built-in.o
                0x8081cd1c                board_mmc_getwp
 .text.mmc_getwp
                0x8081cd22       0x20 drivers/built-in.o
                0x8081cd22                mmc_getwp
 .text.board_mmc_getcd
                0x8081cd42        0x6 drivers/built-in.o
                0x8081cd42                board_mmc_getcd
 .text.mmc_mode_name
                0x8081cd48       0x18 drivers/built-in.o
                0x8081cd48                mmc_mode_name
 .text.mmc_send_cmd
                0x8081cd60        0x8 drivers/built-in.o
                0x8081cd60                mmc_send_cmd
 .text.mmc_send_ext_csd
                0x8081cd68       0x2e drivers/built-in.o
 *fill*         0x8081cd96        0x2 
 .text.mmc_read_and_compare_ext_csd
                0x8081cd98       0x7c drivers/built-in.o
 .text.mmc_go_idle
                0x8081ce14       0x32 drivers/built-in.o
 *fill*         0x8081ce46        0x2 
 .text.mmc_send_op_cond_iter
                0x8081ce48       0x44 drivers/built-in.o
 .text.mmc_send_status
                0x8081ce8c       0x84 drivers/built-in.o
                0x8081ce8c                mmc_send_status
 .text.__mmc_switch.constprop.0
                0x8081cf10       0x3e drivers/built-in.o
 *fill*         0x8081cf4e        0x2 
 .text.mmc_set_card_speed.constprop.0
                0x8081cf50       0x68 drivers/built-in.o
 .text.mmc_set_blocklen
                0x8081cfb8       0x42 drivers/built-in.o
                0x8081cfb8                mmc_set_blocklen
 *fill*         0x8081cffa        0x2 
 .text.mmc_bread
                0x8081cffc       0xdc drivers/built-in.o
                0x8081cffc                mmc_bread
 .text.mmc_switch
                0x8081d0d8        0x8 drivers/built-in.o
                0x8081d0d8                mmc_switch
 .text.mmc_startup_v4.constprop.0
                0x8081d0e0      0x248 drivers/built-in.o
 .text.mmc_switch_part
                0x8081d328       0x40 drivers/built-in.o
                0x8081d328                mmc_switch_part
 .text.mmc_hwpart_config
                0x8081d368      0x2e4 drivers/built-in.o
                0x8081d368                mmc_hwpart_config
 .text.mmc_getcd
                0x8081d64c       0x20 drivers/built-in.o
                0x8081d64c                mmc_getcd
 .text.mmc_set_clock
                0x8081d66c       0x20 drivers/built-in.o
                0x8081d66c                mmc_set_clock
 .text.mmc_dump_capabilities
                0x8081d68c        0x2 drivers/built-in.o
                0x8081d68c                mmc_dump_capabilities
 .text.board_mmc_power_init
                0x8081d68e        0x2 drivers/built-in.o
                0x8081d68e                board_mmc_power_init
 .text.mmc_get_op_cond
                0x8081d690      0x180 drivers/built-in.o
                0x8081d690                mmc_get_op_cond
 .text.mmc_start_init
                0x8081d810       0x48 drivers/built-in.o
                0x8081d810                mmc_start_init
 .text.mmc_init
                0x8081d858      0x8e0 drivers/built-in.o
                0x8081d858                mmc_init
 .text.mmc_set_dsr
                0x8081e138        0x6 drivers/built-in.o
                0x8081e138                mmc_set_dsr
 .text.board_mmc_init
                0x8081e13e        0x6 drivers/built-in.o
                0x8081e13e                board_mmc_init
 .text.mmc_initialize
                0x8081e144       0x34 drivers/built-in.o
                0x8081e144                mmc_initialize
 .text.mmc_berase
                0x8081e178      0x11c drivers/built-in.o
                0x8081e178                mmc_berase
 .text.mmc_bwrite
                0x8081e294      0x104 drivers/built-in.o
                0x8081e294                mmc_bwrite
 .text.find_mmc_device
                0x8081e398       0x2c drivers/built-in.o
                0x8081e398                find_mmc_device
 .text.mmc_select_hwpartp
                0x8081e3c4       0x36 drivers/built-in.o
 .text.mmc_get_dev
                0x8081e3fa       0x1e drivers/built-in.o
 .text.mmc_get_next_devnum
                0x8081e418       0x10 drivers/built-in.o
                0x8081e418                mmc_get_next_devnum
 .text.mmc_get_blk_desc
                0x8081e428        0x4 drivers/built-in.o
                0x8081e428                mmc_get_blk_desc
 .text.get_mmc_num
                0x8081e42c        0xc drivers/built-in.o
                0x8081e42c                get_mmc_num
 .text.mmc_do_preinit
                0x8081e438       0x20 drivers/built-in.o
                0x8081e438                mmc_do_preinit
 .text.mmc_list_init
                0x8081e458       0x18 drivers/built-in.o
                0x8081e458                mmc_list_init
 .text.mmc_list_add
                0x8081e470       0x18 drivers/built-in.o
                0x8081e470                mmc_list_add
 .text.print_mmc_devices
                0x8081e488       0x84 drivers/built-in.o
                0x8081e488                print_mmc_devices
 .text.mmc_create
                0x8081e50c       0x8c drivers/built-in.o
                0x8081e50c                mmc_create
 .text.mmc_reset_controller_fsm
                0x8081e598       0x7c drivers/built-in.o
 .text.omap_hsmmc_getwp
                0x8081e614       0x10 drivers/built-in.o
 .text.omap_hsmmc_getcd
                0x8081e624       0x1a drivers/built-in.o
 *fill*         0x8081e63e        0x2 
 .text.omap_hsmmc_send_cmd
                0x8081e640      0x378 drivers/built-in.o
 .text.omap_hsmmc_set_ios
                0x8081e9b8      0x184 drivers/built-in.o
 .text.mmc_init_stream
                0x8081eb3c       0xac drivers/built-in.o
                0x8081eb3c                mmc_init_stream
 .text.omap_hsmmc_init_setup
                0x8081ebe8      0x178 drivers/built-in.o
 .text.omap_mmc_init
                0x8081ed60       0xf4 drivers/built-in.o
                0x8081ed60                omap_mmc_init
 .text.rtc_to_tm
                0x8081ee54      0x15c drivers/built-in.o
                0x8081ee54                rtc_to_tm
 .text.hw_watchdog_reset
                0x8081efb0       0x24 drivers/built-in.o
                0x8081efb0                hw_watchdog_reset
 .text.hw_watchdog_disable
                0x8081efd4       0x30 drivers/built-in.o
                0x8081efd4                hw_watchdog_disable
 .text.hw_watchdog_init
                0x8081f004       0x74 drivers/built-in.o
                0x8081f004                hw_watchdog_init
 .text.gpio_post_bind
                0x8081f078        0x4 drivers/gpio/built-in.o
 .text.get_function
                0x8081f07c       0x5e drivers/gpio/built-in.o
 .text.gpio_to_device
                0x8081f0da       0x4a drivers/gpio/built-in.o
 .text.check_reserved
                0x8081f124       0x4c drivers/gpio/built-in.o
 .text.gpio_renumber
                0x8081f170       0x46 drivers/gpio/built-in.o
 .text.gpio_pre_remove
                0x8081f1b6       0x30 drivers/gpio/built-in.o
 .text.gpio_post_probe
                0x8081f1e6       0x24 drivers/gpio/built-in.o
 *fill*         0x8081f20a        0x2 
 .text.dm_gpio_lookup_name
                0x8081f20c       0xa0 drivers/gpio/built-in.o
                0x8081f20c                dm_gpio_lookup_name
 .text.gpio_lookup_name
                0x8081f2ac       0x3c drivers/gpio/built-in.o
                0x8081f2ac                gpio_lookup_name
 .text.gpio_xlate_offs_flags
                0x8081f2e8       0x24 drivers/gpio/built-in.o
                0x8081f2e8                gpio_xlate_offs_flags
 .text.dm_gpio_request
                0x8081f30c       0x62 drivers/gpio/built-in.o
                0x8081f30c                dm_gpio_request
 .text.dm_gpio_requestf
                0x8081f36e       0x2a drivers/gpio/built-in.o
 .text.gpio_request
                0x8081f398       0x18 drivers/gpio/built-in.o
                0x8081f398                gpio_request
 .text._dm_gpio_free
                0x8081f3b0       0x42 drivers/gpio/built-in.o
                0x8081f3b0                _dm_gpio_free
 .text.gpio_free
                0x8081f3f2       0x1e drivers/gpio/built-in.o
                0x8081f3f2                gpio_free
 .text.gpio_direction_input
                0x8081f410       0x30 drivers/gpio/built-in.o
                0x8081f410                gpio_direction_input
 .text.gpio_direction_output
                0x8081f440       0x34 drivers/gpio/built-in.o
                0x8081f440                gpio_direction_output
 .text.dm_gpio_get_value
                0x8081f474       0x2c drivers/gpio/built-in.o
                0x8081f474                dm_gpio_get_value
 .text.dm_gpio_set_value
                0x8081f4a0       0x34 drivers/gpio/built-in.o
                0x8081f4a0                dm_gpio_set_value
 .text.dm_gpio_set_dir_flags
                0x8081f4d4       0x58 drivers/gpio/built-in.o
                0x8081f4d4                dm_gpio_set_dir_flags
 .text.gpio_request_tail
                0x8081f52c       0x88 drivers/gpio/built-in.o
 .text.gpio_get_value
                0x8081f5b4       0x16 drivers/gpio/built-in.o
                0x8081f5b4                gpio_get_value
 .text.gpio_set_value
                0x8081f5ca       0x18 drivers/gpio/built-in.o
                0x8081f5ca                gpio_set_value
 .text.gpio_get_bank_info
                0x8081f5e2       0x10 drivers/gpio/built-in.o
                0x8081f5e2                gpio_get_bank_info
 .text.gpio_get_function
                0x8081f5f2        0x8 drivers/gpio/built-in.o
                0x8081f5f2                gpio_get_function
 .text.gpio_get_raw_function
                0x8081f5fa        0x8 drivers/gpio/built-in.o
                0x8081f5fa                gpio_get_raw_function
 *fill*         0x8081f602        0x2 
 .text.gpio_get_status
                0x8081f604       0xb8 drivers/gpio/built-in.o
                0x8081f604                gpio_get_status
 .text.dm_gpio_free
                0x8081f6bc        0xa drivers/gpio/built-in.o
                0x8081f6bc                dm_gpio_free
 .text.gpio_free_list
                0x8081f6c6       0x28 drivers/gpio/built-in.o
                0x8081f6c6                gpio_free_list
 .text.gpio_free_list_nodev
                0x8081f6ee        0xa drivers/gpio/built-in.o
                0x8081f6ee                gpio_free_list_nodev
 .text.gpio_request_list_by_name_nodev
                0x8081f6f8       0x68 drivers/gpio/built-in.o
                0x8081f6f8                gpio_request_list_by_name_nodev
 .text.gpio_request_list_by_name
                0x8081f760        0x6 drivers/gpio/built-in.o
                0x8081f760                gpio_request_list_by_name
 .text.omap_gpio_ofdata_to_platdata
                0x8081f766       0x1e drivers/gpio/built-in.o
 .text.omap_gpio_probe
                0x8081f784       0x48 drivers/gpio/built-in.o
 .text.omap_gpio_get_value
                0x8081f7cc       0x2c drivers/gpio/built-in.o
 .text.omap_gpio_direction_output
                0x8081f7f8       0x32 drivers/gpio/built-in.o
 .text.omap_gpio_direction_input
                0x8081f82a       0x1e drivers/gpio/built-in.o
 .text.omap_gpio_get_function
                0x8081f848       0x1e drivers/gpio/built-in.o
 .text.omap_gpio_set_value
                0x8081f866       0x22 drivers/gpio/built-in.o
 .text.i2c_setup_offset
                0x8081f888       0x34 drivers/i2c/built-in.o
 .text.i2c_probe_chip
                0x8081f8bc       0x44 drivers/i2c/built-in.o
 .text.i2c_uclass_init
                0x8081f900       0x20 drivers/i2c/built-in.o
                0x8081f900                i2c_uclass_init
 .text.i2c_post_bind
                0x8081f920       0x1e drivers/i2c/built-in.o
 .text.dm_i2c_read
                0x8081f93e       0xe4 drivers/i2c/built-in.o
                0x8081f93e                dm_i2c_read
 .text.dm_i2c_write
                0x8081fa22      0x13c drivers/i2c/built-in.o
                0x8081fa22                dm_i2c_write
 .text.dm_i2c_reg_read
                0x8081fb5e       0x1a drivers/i2c/built-in.o
                0x8081fb5e                dm_i2c_reg_read
 .text.dm_i2c_reg_write
                0x8081fb78       0x16 drivers/i2c/built-in.o
                0x8081fb78                dm_i2c_reg_write
 *fill*         0x8081fb8e        0x2 
 .text.i2c_get_chip
                0x8081fb90       0x9c drivers/i2c/built-in.o
                0x8081fb90                i2c_get_chip
 .text.i2c_get_chip_for_busnum
                0x8081fc2c       0x30 drivers/i2c/built-in.o
                0x8081fc2c                i2c_get_chip_for_busnum
 .text.dm_i2c_probe
                0x8081fc5c       0x24 drivers/i2c/built-in.o
                0x8081fc5c                dm_i2c_probe
 .text.dm_i2c_set_bus_speed
                0x8081fc80       0x26 drivers/i2c/built-in.o
                0x8081fc80                dm_i2c_set_bus_speed
 *fill*         0x8081fca6        0x2 
 .text.i2c_post_probe
                0x8081fca8       0x2c drivers/i2c/built-in.o
 .text.dm_i2c_get_bus_speed
                0x8081fcd4       0x1c drivers/i2c/built-in.o
                0x8081fcd4                dm_i2c_get_bus_speed
 .text.i2c_set_chip_flags
                0x8081fcf0       0x28 drivers/i2c/built-in.o
                0x8081fcf0                i2c_set_chip_flags
 .text.i2c_get_chip_flags
                0x8081fd18       0x10 drivers/i2c/built-in.o
                0x8081fd18                i2c_get_chip_flags
 .text.i2c_set_chip_offset_len
                0x8081fd28       0x16 drivers/i2c/built-in.o
                0x8081fd28                i2c_set_chip_offset_len
 .text.i2c_get_chip_offset_len
                0x8081fd3e        0xa drivers/i2c/built-in.o
                0x8081fd3e                i2c_get_chip_offset_len
 .text.i2c_deblock
                0x8081fd48       0x54 drivers/i2c/built-in.o
                0x8081fd48                i2c_deblock
 .text.i2c_chip_ofdata_to_platdata
                0x8081fd9c       0x38 drivers/i2c/built-in.o
                0x8081fd9c                i2c_chip_ofdata_to_platdata
 .text.i2c_child_post_bind
                0x8081fdd4       0x1e drivers/i2c/built-in.o
 *fill*         0x8081fdf2        0x2 
 .text.i2c_compat_get_device
                0x8081fdf4       0x40 drivers/i2c/built-in.o
 .text.i2c_probe
                0x8081fe34       0x34 drivers/i2c/built-in.o
                0x8081fe34                i2c_probe
 .text.i2c_read
                0x8081fe68       0x20 drivers/i2c/built-in.o
                0x8081fe68                i2c_read
 .text.i2c_write
                0x8081fe88       0x20 drivers/i2c/built-in.o
                0x8081fe88                i2c_write
 .text.i2c_set_bus_num
                0x8081fea8        0xc drivers/i2c/built-in.o
                0x8081fea8                i2c_set_bus_num
 .text.wait_for_bb
                0x8081feb4       0x90 drivers/i2c/built-in.o
 .text.wait_for_event
                0x8081ff44       0x78 drivers/i2c/built-in.o
 .text.flush_fifo
                0x8081ffbc       0x40 drivers/i2c/built-in.o
 .text.omap_i2c_probe_chip
                0x8081fffc       0xcc drivers/i2c/built-in.o
 .text.omap_i2c_ofdata_to_platdata
                0x808200c8       0x34 drivers/i2c/built-in.o
 .text.omap_i2c_xfer
                0x808200fc      0x240 drivers/i2c/built-in.o
 .text.__omap24_i2c_setspeed
                0x8082033c      0x124 drivers/i2c/built-in.o
 .text.omap_i2c_set_bus_speed
                0x80820460       0x1c drivers/i2c/built-in.o
 .text.omap_i2c_probe
                0x8082047c      0x268 drivers/i2c/built-in.o
 .text.mtd_arg_off
                0x808206e4       0x50 drivers/mtd/built-in.o
                0x808206e4                mtd_arg_off
 .text.mtd_arg_off_size
                0x80820734       0xc0 drivers/mtd/built-in.o
                0x80820734                mtd_arg_off_size
 .text.spi_flash_probe
                0x808207f4       0x4a drivers/mtd/spi/built-in.o
                0x808207f4                spi_flash_probe
 .text.spi_flash_free
                0x8082083e       0x16 drivers/mtd/spi/built-in.o
                0x8082083e                spi_flash_free
 .text.read_sr  0x80820854       0x1c drivers/mtd/spi/built-in.o
 .text.read_cr  0x80820870       0x1c drivers/mtd/spi/built-in.o
 .text.spi_nor_read
                0x8082088c       0x4e drivers/mtd/spi/built-in.o
 .text.spi_nor_write_data
                0x808208da       0x9a drivers/mtd/spi/built-in.o
 .text.spi_nor_read_data
                0x80820974       0x8a drivers/mtd/spi/built-in.o
 *fill*         0x808209fe        0x2 
 .text.spi_nor_wait_till_ready
                0x80820a00       0xa0 drivers/mtd/spi/built-in.o
 .text.spi_nor_read_reg
                0x80820aa0       0x36 drivers/mtd/spi/built-in.o
 .text.write_disable.isra.0
                0x80820ad6       0x12 drivers/mtd/spi/built-in.o
 .text.write_enable.isra.0
                0x80820ae8       0x12 drivers/mtd/spi/built-in.o
 .text.spansion_read_cr_quad_enable
                0x80820afa       0x64 drivers/mtd/spi/built-in.o
 .text.spi_nor_erase
                0x80820b5e       0x98 drivers/mtd/spi/built-in.o
 .text.spi_nor_write
                0x80820bf6       0xe4 drivers/mtd/spi/built-in.o
 .text.spi_nor_write_reg
                0x80820cda       0x38 drivers/mtd/spi/built-in.o
 *fill*         0x80820d12        0x2 
 .text.spi_nor_scan
                0x80820d14      0x5c8 drivers/mtd/spi/built-in.o
                0x80820d14                spi_nor_scan
 .text.enc_rbuf
                0x808212dc       0x32 drivers/net/built-in.o
 *fill*         0x8082130e        0x2 
 .text.enc_claim_bus
                0x80821310       0x20 drivers/net/built-in.o
 .text.enc_release_bus.isra.0
                0x80821330        0x4 drivers/net/built-in.o
 .text.enc_bclr.isra.0
                0x80821334       0x20 drivers/net/built-in.o
 .text.enc_halt
                0x80821354       0x22 drivers/net/built-in.o
 .text.enc_bset.isra.0
                0x80821376       0x20 drivers/net/built-in.o
 .text.enc_set_bank
                0x80821396       0x54 drivers/net/built-in.o
 .text.enc_r8   0x808213ea       0x56 drivers/net/built-in.o
 .text.enc_w8   0x80821440       0x2a drivers/net/built-in.o
 .text.enc_w16  0x8082146a       0x48 drivers/net/built-in.o
 *fill*         0x808214b2        0x2 
 .text.enc_phy_write
                0x808214b4       0x64 drivers/net/built-in.o
 .text.enc_w8_retry
                0x80821518       0x68 drivers/net/built-in.o
 .text.enc_r16  0x80821580       0x60 drivers/net/built-in.o
 .text.enc_phy_read
                0x808215e0       0x7c drivers/net/built-in.o
 .text.enc_initcheck
                0x8082165c      0x1bc drivers/net/built-in.o
 .text.enc_write_hwaddr
                0x80821818       0x2c drivers/net/built-in.o
 .text.enc_send
                0x80821844       0xbe drivers/net/built-in.o
 .text.enc_init
                0x80821902       0x38 drivers/net/built-in.o
 *fill*         0x8082193a        0x2 
 .text.enc_recv
                0x8082193c      0x1e4 drivers/net/built-in.o
 .text.enc28j60_initialize
                0x80821b20       0xac drivers/net/built-in.o
                0x80821b20                enc28j60_initialize
 .text.cpdma_submit
                0x80821bcc       0x50 drivers/net/built-in.o
 .text.cpsw_reap_completed_packets
                0x80821c1c       0x3a drivers/net/built-in.o
 .text.cpsw_halt
                0x80821c56       0x36 drivers/net/built-in.o
 .text.cpsw_send
                0x80821c8c       0x44 drivers/net/built-in.o
 .text.cpsw_ale_read.isra.0
                0x80821cd0       0x18 drivers/net/built-in.o
 .text.cpsw_ale_match_addr
                0x80821ce8       0x68 drivers/net/built-in.o
 .text.cpsw_ale_find_ageable
                0x80821d50       0x2e drivers/net/built-in.o
 .text.cpsw_ale_match_free
                0x80821d7e       0x28 drivers/net/built-in.o
 *fill*         0x80821da6        0x2 
 .text.cpsw_ale_add_mcast.constprop.0.isra.0
                0x80821da8       0xb4 drivers/net/built-in.o
 .text.cpsw_init
                0x80821e5c      0x37c drivers/net/built-in.o
 .text.cpsw_recv
                0x808221d8       0x64 drivers/net/built-in.o
 .text._cpsw_register
                0x8082223c      0x154 drivers/net/built-in.o
                0x8082223c                _cpsw_register
 .text.cpsw_register
                0x80822390       0x90 drivers/net/built-in.o
                0x80822390                cpsw_register
 .text.cpsw_mdio_wait_for_user_access.isra.0
                0x80822420       0x38 drivers/net/built-in.o
 .text.cpsw_mdio_write
                0x80822458       0x42 drivers/net/built-in.o
 .text.cpsw_mdio_read
                0x8082249a       0x52 drivers/net/built-in.o
 .text.cpsw_mdio_get_alive
                0x808224ec        0xe drivers/net/built-in.o
                0x808224ec                cpsw_mdio_get_alive
 *fill*         0x808224fa        0x2 
 .text.cpsw_mdio_init
                0x808224fc       0xd4 drivers/net/built-in.o
                0x808224fc                cpsw_mdio_init
 .text.genphy_shutdown
                0x808225d0        0x4 drivers/net/phy/built-in.o
                0x808225d0                genphy_shutdown
 .text.genphy_restart_aneg
                0x808225d4       0x36 drivers/net/phy/built-in.o
                0x808225d4                genphy_restart_aneg
 .text.genphy_config_aneg
                0x8082260a      0x156 drivers/net/phy/built-in.o
                0x8082260a                genphy_config_aneg
 .text.genphy_config
                0x80822760       0x90 drivers/net/phy/built-in.o
                0x80822760                genphy_config
 .text.genphy_update_link
                0x808227f0       0xcc drivers/net/phy/built-in.o
                0x808227f0                genphy_update_link
 .text.genphy_parse_link
                0x808228bc      0x102 drivers/net/phy/built-in.o
                0x808228bc                genphy_parse_link
 .text.genphy_startup
                0x808229be       0x16 drivers/net/phy/built-in.o
                0x808229be                genphy_startup
 .text.phy_init
                0x808229d4       0x12 drivers/net/phy/built-in.o
                0x808229d4                phy_init
 *fill*         0x808229e6        0x2 
 .text.phy_register
                0x808229e8       0x18 drivers/net/phy/built-in.o
                0x808229e8                phy_register
 .text.get_phy_id
                0x80822a00       0x3e drivers/net/phy/built-in.o
                0x80822a00                get_phy_id
 *fill*         0x80822a3e        0x2 
 .text.get_phy_device_by_mask
                0x80822a40      0x1ec drivers/net/phy/built-in.o
 .text.phy_reset
                0x80822c2c       0x74 drivers/net/phy/built-in.o
                0x80822c2c                phy_reset
 .text.phy_find_by_mask
                0x80822ca0       0x24 drivers/net/phy/built-in.o
                0x80822ca0                phy_find_by_mask
 .text.phy_connect_dev
                0x80822cc4       0x2c drivers/net/phy/built-in.o
                0x80822cc4                phy_connect_dev
 .text.phy_connect
                0x80822cf0       0x3c drivers/net/phy/built-in.o
                0x80822cf0                phy_connect
 .text.phy_startup
                0x80822d2c        0xc drivers/net/phy/built-in.o
                0x80822d2c                phy_startup
 .text.board_phy_config
                0x80822d38        0xc drivers/net/phy/built-in.o
                0x80822d38                board_phy_config
 .text.phy_config
                0x80822d44        0x4 drivers/net/phy/built-in.o
                0x80822d44                phy_config
 .text.ar8021_config
                0x80822d48       0x4a drivers/net/phy/built-in.o
 .text.ar8035_config
                0x80822d92      0x110 drivers/net/phy/built-in.o
 .text.ar8031_config
                0x80822ea2       0x7a drivers/net/phy/built-in.o
 .text.phy_atheros_init
                0x80822f1c       0x24 drivers/net/phy/built-in.o
                0x80822f1c                phy_atheros_init
 .text.smsc_startup
                0x80822f40       0x36 drivers/net/phy/built-in.o
 *fill*         0x80822f76        0x2 
 .text.phy_smsc_init
                0x80822f78       0x44 drivers/net/phy/built-in.o
                0x80822f78                phy_smsc_init
 .text.vsc8584_csr_write
                0x80822fbc       0x46 drivers/net/phy/built-in.o
 .text.mscc_startup
                0x80823002       0x3c drivers/net/phy/built-in.o
 *fill*         0x8082303e        0x2 
 .text.vsc8531_vsc8541_mac_config
                0x80823040       0xcc drivers/net/phy/built-in.o
 .text.vsc8584_cmd
                0x8082310c       0x8a drivers/net/phy/built-in.o
 *fill*         0x80823196        0x2 
 .text.mscc_phy_soft_reset
                0x80823198       0x94 drivers/net/phy/built-in.o
 .text.vsc8584_config_init
                0x8082322c      0x110 drivers/net/phy/built-in.o
 .text.vsc8584_config
                0x8082333c        0xc drivers/net/phy/built-in.o
 .text.vsc8574_config
                0x80823348        0xc drivers/net/phy/built-in.o
 .text.vsc8584_micro_assert_reset
                0x80823354      0x10e drivers/net/phy/built-in.o
 .text.vsc8584_get_fw_crc.constprop.0
                0x80823462       0x94 drivers/net/phy/built-in.o
 .text.mscc_vsc8531_vsc8541_init_scripts.isra.0
                0x808234f6      0x146 drivers/net/phy/built-in.o
 .text.vsc8531_config
                0x8082363c       0xbc drivers/net/phy/built-in.o
 .text.vsc8541_config
                0x808236f8       0xc4 drivers/net/phy/built-in.o
 .text.vsc8584_patch_fw.isra.0
                0x808237bc       0xc0 drivers/net/phy/built-in.o
 .text.vsc8584_micro_deassert_reset.isra.0
                0x8082387c       0x72 drivers/net/phy/built-in.o
 *fill*         0x808238ee        0x2 
 .text.vsc8574_config_pre_init
                0x808238f0      0x770 drivers/net/phy/built-in.o
 .text.vsc8584_config_pre_init
                0x80824060      0x478 drivers/net/phy/built-in.o
 .text.phy_mscc_init
                0x808244d8       0x44 drivers/net/phy/built-in.o
                0x808244d8                phy_mscc_init
 .text._serial_putc
                0x8082451c       0x22 drivers/serial/built-in.o
 .text.__serial_tstc
                0x8082453e       0x10 drivers/serial/built-in.o
 .text.serial_stub_putc
                0x8082454e        0x6 drivers/serial/built-in.o
 .text.serial_stub_puts
                0x80824554       0x16 drivers/serial/built-in.o
 .text.serial_stub_tstc
                0x8082456a        0x6 drivers/serial/built-in.o
 .text.serial_pre_remove
                0x80824570        0x4 drivers/serial/built-in.o
 .text.__serial_getc
                0x80824574       0x20 drivers/serial/built-in.o
 .text.serial_stub_getc
                0x80824594        0x6 drivers/serial/built-in.o
 *fill*         0x8082459a        0x2 
 .text.serial_post_probe
                0x8082459c       0x74 drivers/serial/built-in.o
 .text.serial_init
                0x80824610       0xdc drivers/serial/built-in.o
                0x80824610                serial_init
 .text.serial_initialize
                0x808246ec        0x4 drivers/serial/built-in.o
                0x808246ec                serial_initialize
 .text.serial_putc
                0x808246f0       0x12 drivers/serial/built-in.o
                0x808246f0                serial_putc
 .text.serial_puts
                0x80824702       0x1e drivers/serial/built-in.o
                0x80824702                serial_puts
 .text.serial_getc
                0x80824720       0x10 drivers/serial/built-in.o
                0x80824720                serial_getc
 .text.serial_tstc
                0x80824730       0x10 drivers/serial/built-in.o
                0x80824730                serial_tstc
 .text.serial_setbrg
                0x80824740       0x1e drivers/serial/built-in.o
                0x80824740                serial_setbrg
 *fill*         0x8082475e        0x2 
 .text.on_baudrate
                0x80824760       0x9c drivers/serial/built-in.o
 .text.serial_stdio_init
                0x808247fc        0x2 drivers/serial/built-in.o
                0x808247fc                serial_stdio_init
 .text.ns16550_serial_getinfo
                0x808247fe       0x22 drivers/serial/built-in.o
 .text.ns16550_serial_ofdata_to_platdata
                0x80824820       0x7c drivers/serial/built-in.o
                0x80824820                ns16550_serial_ofdata_to_platdata
 .text.ns16550_readb.isra.0
                0x8082489c       0x14 drivers/serial/built-in.o
 .text.ns16550_serial_getc
                0x808248b0       0x26 drivers/serial/built-in.o
 .text.ns16550_serial_pending
                0x808248d6       0x28 drivers/serial/built-in.o
 .text.ns16550_writeb.isra.0
                0x808248fe       0x14 drivers/serial/built-in.o
 .text.ns16550_serial_putc
                0x80824912       0x34 drivers/serial/built-in.o
 *fill*         0x80824946        0x2 
 .text.ns16550_serial_setconfig
                0x80824948       0x3c drivers/serial/built-in.o
 .text.NS16550_setbrg
                0x80824984       0x42 drivers/serial/built-in.o
 .text.ns16550_serial_setbrg
                0x808249c6       0x24 drivers/serial/built-in.o
 .text.NS16550_init
                0x808249ea       0x5e drivers/serial/built-in.o
                0x808249ea                NS16550_init
 .text.ns16550_serial_probe
                0x80824a48       0x20 drivers/serial/built-in.o
                0x80824a48                ns16550_serial_probe
 .text.omap_serial_ofdata_to_platdata
                0x80824a68       0x50 drivers/serial/built-in.o
 .text.spi_do_alloc_slave
                0x80824ab8       0x30 drivers/spi/built-in.o
                0x80824ab8                spi_do_alloc_slave
 .text.spi_mem_exec_op
                0x80824ae8       0xe2 drivers/spi/built-in.o
                0x80824ae8                spi_mem_exec_op
 .text.spi_mem_adjust_op_size
                0x80824bca       0x44 drivers/spi/built-in.o
                0x80824bca                spi_mem_adjust_op_size
 .text.omap3_spi_write_chconf
                0x80824c0e       0x22 drivers/spi/built-in.o
 .text.omap3_spi_set_enable
                0x80824c30       0x22 drivers/spi/built-in.o
 .text.spi_free_slave
                0x80824c52        0x4 drivers/spi/built-in.o
                0x80824c52                spi_free_slave
 *fill*         0x80824c56        0x2 
 .text.spi_claim_bus
                0x80824c58       0xf0 drivers/spi/built-in.o
                0x80824c58                spi_claim_bus
 .text.spi_release_bus
                0x80824d48        0xc drivers/spi/built-in.o
                0x80824d48                spi_release_bus
 .text.spi_setup_slave
                0x80824d54       0x8c drivers/spi/built-in.o
                0x80824d54                spi_setup_slave
 .text.spi_xfer
                0x80824de0      0x330 drivers/spi/built-in.o
                0x80824de0                spi_xfer
 .text.usb_ep_autoconfig
                0x80825110      0x110 drivers/usb/gadget/built-in.o
                0x80825110                usb_ep_autoconfig
 .text.usb_ep_autoconfig_reset
                0x80825220       0x28 drivers/usb/gadget/built-in.o
                0x80825220                usb_ep_autoconfig_reset
 .text.usb_descriptor_fillbuf
                0x80825248       0x38 drivers/usb/gadget/built-in.o
                0x80825248                usb_descriptor_fillbuf
 .text.usb_gadget_config_buf
                0x80825280       0x54 drivers/usb/gadget/built-in.o
                0x80825280                usb_gadget_config_buf
 .text.usb_gadget_get_string
                0x808252d4       0xe6 drivers/usb/gadget/built-in.o
                0x808252d4                usb_gadget_get_string
 .text.count_configs
                0x808253ba       0x48 drivers/usb/gadget/built-in.o
 .text.reset_config
                0x80825402       0x2c drivers/usb/gadget/built-in.o
 .text.collect_langs
                0x8082542e       0x2a drivers/usb/gadget/built-in.o
 .text.composite_setup_complete
                0x80825458        0x2 drivers/usb/gadget/built-in.o
 *fill*         0x8082545a        0x2 
 .text.composite_disconnect
                0x8082545c       0x24 drivers/usb/gadget/built-in.o
 .text.composite_suspend
                0x80825480       0x40 drivers/usb/gadget/built-in.o
 .text.composite_resume
                0x808254c0       0x40 drivers/usb/gadget/built-in.o
 .text.g_dnl_unbind
                0x80825500       0x12 drivers/usb/gadget/built-in.o
 .text.lookup_string
                0x80825512       0x2a drivers/usb/gadget/built-in.o
 .text.composite_unbind
                0x8082553c       0xb4 drivers/usb/gadget/built-in.o
 .text.composite_bind
                0x808255f0       0xac drivers/usb/gadget/built-in.o
 .text.g_dnl_do_config
                0x8082569c       0x28 drivers/usb/gadget/built-in.o
 .text.composite_setup
                0x808256c4      0x538 drivers/usb/gadget/built-in.o
 .text.usb_add_function
                0x80825bfc       0x74 drivers/usb/gadget/built-in.o
                0x80825bfc                usb_add_function
 .text.usb_interface_id
                0x80825c70       0x1e drivers/usb/gadget/built-in.o
                0x80825c70                usb_interface_id
 .text.usb_add_config
                0x80825c8e       0x7c drivers/usb/gadget/built-in.o
                0x80825c8e                usb_add_config
 .text.usb_string_id
                0x80825d0a       0x18 drivers/usb/gadget/built-in.o
                0x80825d0a                usb_string_id
 *fill*         0x80825d22        0x2 
 .text.usb_composite_register
                0x80825d24       0x3c drivers/usb/gadget/built-in.o
                0x80825d24                usb_composite_register
 .text.usb_composite_unregister
                0x80825d60       0x20 drivers/usb/gadget/built-in.o
                0x80825d60                usb_composite_unregister
 .text.g_dnl_set_serialnumber
                0x80825d80       0x24 drivers/usb/gadget/built-in.o
                0x80825d80                g_dnl_set_serialnumber
 .text.on_serialno
                0x80825da4        0xc drivers/usb/gadget/built-in.o
 .text.g_dnl_bind_fixup
                0x80825db0        0x4 drivers/usb/gadget/built-in.o
                0x80825db0                g_dnl_bind_fixup
 .text.g_dnl_get_board_bcd_device_number
                0x80825db4        0x2 drivers/usb/gadget/built-in.o
                0x80825db4                g_dnl_get_board_bcd_device_number
 *fill*         0x80825db6        0x2 
 .text.g_dnl_bind
                0x80825db8       0xf0 drivers/usb/gadget/built-in.o
 .text.g_dnl_board_usb_cable_connected
                0x80825ea8        0x6 drivers/usb/gadget/built-in.o
                0x80825ea8                g_dnl_board_usb_cable_connected
 *fill*         0x80825eae        0x2 
 .text.g_dnl_detach
                0x80825eb0        0xc drivers/usb/gadget/built-in.o
                0x80825eb0                g_dnl_detach
 .text.g_dnl_trigger_detach
                0x80825ebc        0xc drivers/usb/gadget/built-in.o
                0x80825ebc                g_dnl_trigger_detach
 .text.g_dnl_clear_detach
                0x80825ec8        0xc drivers/usb/gadget/built-in.o
                0x80825ec8                g_dnl_clear_detach
 .text.g_dnl_register
                0x80825ed4       0x2c drivers/usb/gadget/built-in.o
                0x80825ed4                g_dnl_register
 .text.g_dnl_unregister
                0x80825f00        0xc drivers/usb/gadget/built-in.o
                0x80825f00                g_dnl_unregister
 .text.dfu_set_alt
                0x80825f0c       0x10 drivers/usb/gadget/built-in.o
 .text.__dfu_get_alt
                0x80825f1c        0x6 drivers/usb/gadget/built-in.o
 .text.dfu_disable
                0x80825f22        0xe drivers/usb/gadget/built-in.o
 .text.dfu_add  0x80825f30       0x98 drivers/usb/gadget/built-in.o
                0x80825f30                dfu_add
 .text.dfu_handle
                0x80825fc8       0x88 drivers/usb/gadget/built-in.o
 .text.dnload_request_flush
                0x80826050       0x18 drivers/usb/gadget/built-in.o
 .text.dnload_request_complete
                0x80826068       0x24 drivers/usb/gadget/built-in.o
 .text.dfu_unbind
                0x8082608c       0x52 drivers/usb/gadget/built-in.o
 *fill*         0x808260de        0x2 
 .text.dfu_bind
                0x808260e0      0x164 drivers/usb/gadget/built-in.o
 .text.handle_upload.constprop.0
                0x80826244       0x1c drivers/usb/gadget/built-in.o
 .text.handle_getstatus
                0x80826260       0xa6 drivers/usb/gadget/built-in.o
 .text.state_dfu_error
                0x80826306       0x36 drivers/usb/gadget/built-in.o
 .text.state_dfu_manifest_sync
                0x8082633c       0x40 drivers/usb/gadget/built-in.o
 .text.state_dfu_dnload_idle
                0x8082637c       0x6c drivers/usb/gadget/built-in.o
 .text.state_dfu_dnbusy
                0x808263e8       0x18 drivers/usb/gadget/built-in.o
 .text.state_dfu_dnload_sync
                0x80826400       0x28 drivers/usb/gadget/built-in.o
 .text.state_app_detach
                0x80826428       0x28 drivers/usb/gadget/built-in.o
 .text.state_app_idle
                0x80826450       0x44 drivers/usb/gadget/built-in.o
 .text.state_dfu_upload_idle
                0x80826494       0x5e drivers/usb/gadget/built-in.o
 *fill*         0x808264f2        0x2 
 .text.state_dfu_manifest
                0x808264f4       0x44 drivers/usb/gadget/built-in.o
 .text.state_dfu_idle
                0x80826538       0x88 drivers/usb/gadget/built-in.o
 .text.fastboot_start_ep
                0x808265c0       0x3a drivers/usb/gadget/built-in.o
 *fill*         0x808265fa        0x2 
 .text.fastboot_unbind
                0x808265fc       0x10 drivers/usb/gadget/built-in.o
 .text.fastboot_add
                0x8082660c       0x74 drivers/usb/gadget/built-in.o
 .text.fastboot_disable
                0x80826680       0x46 drivers/usb/gadget/built-in.o
 *fill*         0x808266c6        0x2 
 .text.fastboot_set_alt
                0x808266c8       0xbc drivers/usb/gadget/built-in.o
 .text.fastboot_complete
                0x80826784       0x18 drivers/usb/gadget/built-in.o
 .text.compl_do_reset
                0x8082679c        0xc drivers/usb/gadget/built-in.o
 .text.do_exit_on_complete
                0x808267a8        0x4 drivers/usb/gadget/built-in.o
 .text.do_bootm_on_complete
                0x808267ac        0xe drivers/usb/gadget/built-in.o
 .text.rx_bytes_expected
                0x808267ba       0x2e drivers/usb/gadget/built-in.o
 .text.fastboot_bind
                0x808267e8       0xa8 drivers/usb/gadget/built-in.o
 .text.fastboot_tx_write_str.isra.0
                0x80826890       0x50 drivers/usb/gadget/built-in.o
 .text.rx_handler_dl_image
                0x808268e0       0x80 drivers/usb/gadget/built-in.o
 .text.rx_handler_command
                0x80826960       0xd4 drivers/usb/gadget/built-in.o
 .text.eth_setup_complete
                0x80826a34        0x2 drivers/usb/gadget/built-in.o
 *fill*         0x80826a36        0x2 
 .text.tx_complete
                0x80826a38       0x34 drivers/usb/gadget/built-in.o
 .text.eth_suspend
                0x80826a6c        0x2 drivers/usb/gadget/built-in.o
 *fill*         0x80826a6e        0x2 
 .text.rx_complete
                0x80826a70       0x8c drivers/usb/gadget/built-in.o
 .text.usb_eth_send
                0x80826afc       0xe4 drivers/usb/gadget/built-in.o
 .text.rndis_command_complete
                0x80826be0       0x28 drivers/usb/gadget/built-in.o
 .text.eth_unbind
                0x80826c08       0x5a drivers/usb/gadget/built-in.o
 *fill*         0x80826c62        0x2 
 .text.rndis_control_ack_complete
                0x80826c64       0x4c drivers/usb/gadget/built-in.o
 .text.rndis_control_ack
                0x80826cb0       0x6c drivers/usb/gadget/built-in.o
 .text.nibble   0x80826d1c       0x28 drivers/usb/gadget/built-in.o
 .text.eth_reset_config
                0x80826d44       0x6c drivers/usb/gadget/built-in.o
 .text.eth_disconnect
                0x80826db0        0x6 drivers/usb/gadget/built-in.o
 .text.is_eth_addr_valid
                0x80826db6       0x74 drivers/usb/gadget/built-in.o
 *fill*         0x80826e2a        0x2 
 .text.set_ether_config.constprop.0
                0x80826e2c      0x138 drivers/usb/gadget/built-in.o
 .text.eth_setup
                0x80826f64      0x2e4 drivers/usb/gadget/built-in.o
 .text.rx_submit.constprop.0.isra.0
                0x80827248       0x60 drivers/usb/gadget/built-in.o
 .text.usb_eth_recv
                0x808272a8       0x44 drivers/usb/gadget/built-in.o
 .text.get_ether_addr.isra.0
                0x808272ec       0x40 drivers/usb/gadget/built-in.o
 .text.eth_bind
                0x8082732c      0x32c drivers/usb/gadget/built-in.o
 .text._usb_eth_halt
                0x80827658       0x74 drivers/usb/gadget/built-in.o
 .text.usb_eth_halt
                0x808276cc        0x6 drivers/usb/gadget/built-in.o
                0x808276cc                usb_eth_halt
 *fill*         0x808276d2        0x2 
 .text.usb_eth_init
                0x808276d4      0x180 drivers/usb/gadget/built-in.o
 .text.rndis_response_complete
                0x80827854        0x2 drivers/usb/gadget/built-in.o
 .text.eth_resume
                0x80827856        0x2 drivers/usb/gadget/built-in.o
 .text.usb_eth_initialize
                0x80827858       0x54 drivers/usb/gadget/built-in.o
                0x80827858                usb_eth_initialize
 .text.rndis_add_response
                0x808278ac       0x38 drivers/usb/gadget/built-in.o
 .text.rndis_signal_connect
                0x808278e4       0x50 drivers/usb/gadget/built-in.o
                0x808278e4                rndis_signal_connect
 .text.rndis_signal_disconnect
                0x80827934       0x14 drivers/usb/gadget/built-in.o
                0x80827934                rndis_signal_disconnect
 .text.rndis_set_host_mac
                0x80827948       0x10 drivers/usb/gadget/built-in.o
                0x80827948                rndis_set_host_mac
 .text.rndis_get_state
                0x80827958       0x14 drivers/usb/gadget/built-in.o
                0x80827958                rndis_get_state
 .text.rndis_msg_parser
                0x8082796c      0x454 drivers/usb/gadget/built-in.o
                0x8082796c                rndis_msg_parser
 .text.rndis_register
                0x80827dc0       0x1c drivers/usb/gadget/built-in.o
                0x80827dc0                rndis_register
 .text.rndis_deregister
                0x80827ddc       0x18 drivers/usb/gadget/built-in.o
                0x80827ddc                rndis_deregister
 .text.rndis_set_param_dev
                0x80827df4       0x20 drivers/usb/gadget/built-in.o
                0x80827df4                rndis_set_param_dev
 .text.rndis_set_param_vendor
                0x80827e14       0x18 drivers/usb/gadget/built-in.o
                0x80827e14                rndis_set_param_vendor
 .text.rndis_set_param_medium
                0x80827e2c       0x14 drivers/usb/gadget/built-in.o
                0x80827e2c                rndis_set_param_medium
 .text.rndis_add_hdr
                0x80827e40       0x4e drivers/usb/gadget/built-in.o
                0x80827e40                rndis_add_hdr
 *fill*         0x80827e8e        0x2 
 .text.rndis_free_response
                0x80827e90       0x40 drivers/usb/gadget/built-in.o
                0x80827e90                rndis_free_response
 .text.rndis_get_next_response
                0x80827ed0       0x3c drivers/usb/gadget/built-in.o
                0x80827ed0                rndis_get_next_response
 .text.rndis_uninit
                0x80827f0c       0x30 drivers/usb/gadget/built-in.o
                0x80827f0c                rndis_uninit
 .text.rndis_rm_hdr
                0x80827f3c       0x5e drivers/usb/gadget/built-in.o
                0x80827f3c                rndis_rm_hdr
 *fill*         0x80827f9a        0x2 
 .text.rndis_init
                0x80827f9c       0x1c drivers/usb/gadget/built-in.o
                0x80827f9c                rndis_init
 .text.rndis_exit
                0x80827fb8        0x2 drivers/usb/gadget/built-in.o
                0x80827fb8                rndis_exit
 .text.musb_gadget_enable
                0x80827fba      0x186 drivers/usb/musb-new/built-in.o
 .text.musb_gadget_fifo_status
                0x80828140       0x26 drivers/usb/musb-new/built-in.o
 .text.musb_gadget_fifo_flush
                0x80828166       0x52 drivers/usb/musb-new/built-in.o
 .text.musb_gadget_get_frame
                0x808281b8        0xe drivers/usb/musb-new/built-in.o
 .text.musb_gadget_wakeup
                0x808281c6        0x4 drivers/usb/musb-new/built-in.o
 .text.musb_gadget_set_self_powered
                0x808281ca       0x16 drivers/usb/musb-new/built-in.o
 .text.musb_gadget_vbus_draw
                0x808281e0        0x4 drivers/usb/musb-new/built-in.o
 .text.txstate  0x808281e4       0x66 drivers/usb/musb-new/built-in.o
 .text.musb_alloc_request
                0x8082824a       0x22 drivers/usb/musb-new/built-in.o
                0x8082824a                musb_alloc_request
 .text.musb_free_request
                0x8082826c        0x6 drivers/usb/musb-new/built-in.o
                0x8082826c                musb_free_request
 .text.musb_gadget_stop
                0x80828272        0xe drivers/usb/musb-new/built-in.o
 .text.init_peripheral_ep
                0x80828280       0xb0 drivers/usb/musb-new/built-in.o
 .text.musb_gadget_start
                0x80828330       0x2a drivers/usb/musb-new/built-in.o
                0x80828330                musb_gadget_start
 .text.musb_gadget_pullup
                0x8082835a       0x38 drivers/usb/musb-new/built-in.o
 .text.musb_g_giveback
                0x80828392       0x32 drivers/usb/musb-new/built-in.o
                0x80828392                musb_g_giveback
 .text.rxstate  0x808283c4       0x9a drivers/usb/musb-new/built-in.o
 .text.musb_gadget_dequeue
                0x8082845e       0x3e drivers/usb/musb-new/built-in.o
 .text.musb_gadget_disable
                0x8082849c       0x66 drivers/usb/musb-new/built-in.o
 .text.musb_g_tx
                0x80828502       0xe0 drivers/usb/musb-new/built-in.o
                0x80828502                musb_g_tx
 .text.musb_g_rx
                0x808285e2       0x6e drivers/usb/musb-new/built-in.o
                0x808285e2                musb_g_rx
 .text.musb_ep_restart
                0x80828650       0x1e drivers/usb/musb-new/built-in.o
                0x80828650                musb_ep_restart
 .text.musb_gadget_set_halt
                0x8082866e       0xac drivers/usb/musb-new/built-in.o
 .text.musb_gadget_queue
                0x8082871a       0x70 drivers/usb/musb-new/built-in.o
 *fill*         0x8082878a        0x2 
 .text.musb_gadget_setup
                0x8082878c       0x90 drivers/usb/musb-new/built-in.o
                0x8082878c                musb_gadget_setup
 .text.musb_g_ep0_enable
                0x8082881c        0x6 drivers/usb/musb-new/built-in.o
 .text.musb_g_ep0_disable
                0x80828822        0x6 drivers/usb/musb-new/built-in.o
 .text.musb_g_ep0_halt
                0x80828828       0x5a drivers/usb/musb-new/built-in.o
 .text.ep0_txstate
                0x80828882       0x9a drivers/usb/musb-new/built-in.o
 .text.musb_g_ep0_dequeue
                0x8082891c        0x6 drivers/usb/musb-new/built-in.o
 .text.musb_g_ep0_queue
                0x80828922       0xa8 drivers/usb/musb-new/built-in.o
 *fill*         0x808289ca        0x2 
 .text.musb_g_ep0_irq
                0x808289cc      0x624 drivers/usb/musb-new/built-in.o
                0x808289cc                musb_g_ep0_irq
 .text.fifo_setup
                0x80828ff0       0xfe drivers/usb/musb-new/built-in.o
 .text.musb_generic_disable.isra.0
                0x808290ee       0x14 drivers/usb/musb-new/built-in.o
 .text.musb_write_fifo
                0x80829102       0x6c drivers/usb/musb-new/built-in.o
                0x80829102                musb_write_fifo
 .text.musb_read_fifo
                0x8082916e       0x6c drivers/usb/musb-new/built-in.o
                0x8082916e                musb_read_fifo
 *fill*         0x808291da        0x2 
 .text.musb_load_testpacket
                0x808291dc       0x24 drivers/usb/musb-new/built-in.o
                0x808291dc                musb_load_testpacket
 .text.musb_start
                0x80829200       0x84 drivers/usb/musb-new/built-in.o
                0x80829200                musb_start
 .text.musb_stop
                0x80829284       0x30 drivers/usb/musb-new/built-in.o
                0x80829284                musb_stop
 .text.musb_interrupt
                0x808292b4       0xce drivers/usb/musb-new/built-in.o
                0x808292b4                musb_interrupt
 *fill*         0x80829382        0x2 
 .text.musb_init_controller
                0x80829384      0x444 drivers/usb/musb-new/built-in.o
                0x80829384                musb_init_controller
 .text.musb_host_complete_urb
                0x808297c8       0x18 drivers/usb/musb-new/built-in.o
 .text.construct_urb
                0x808297e0       0x8c drivers/usb/musb-new/built-in.o
 .text._musb_reset_root_port.constprop.0
                0x8082986c       0x74 drivers/usb/musb-new/built-in.o
 .text.submit_urb.constprop.0
                0x808298e0       0x84 drivers/usb/musb-new/built-in.o
 .text.musb_lowlevel_init
                0x80829964       0x74 drivers/usb/musb-new/built-in.o
                0x80829964                musb_lowlevel_init
 .text.usb_lowlevel_stop
                0x808299d8       0x24 drivers/usb/musb-new/built-in.o
                0x808299d8                usb_lowlevel_stop
 .text.submit_bulk_msg
                0x808299fc       0x28 drivers/usb/musb-new/built-in.o
                0x808299fc                submit_bulk_msg
 .text.submit_control_msg
                0x80829a24       0x40 drivers/usb/musb-new/built-in.o
                0x80829a24                submit_control_msg
 .text.submit_int_msg
                0x80829a64       0x2c drivers/usb/musb-new/built-in.o
                0x80829a64                submit_int_msg
 .text.usb_reset_root_port
                0x80829a90        0xc drivers/usb/musb-new/built-in.o
                0x80829a90                usb_reset_root_port
 .text.usb_lowlevel_init
                0x80829a9c        0xc drivers/usb/musb-new/built-in.o
                0x80829a9c                usb_lowlevel_init
 .text.usb_gadget_handle_interrupts
                0x80829aa8       0x24 drivers/usb/musb-new/built-in.o
                0x80829aa8                usb_gadget_handle_interrupts
 .text.usb_gadget_register_driver
                0x80829acc       0x78 drivers/usb/musb-new/built-in.o
                0x80829acc                usb_gadget_register_driver
 .text.usb_gadget_unregister_driver
                0x80829b44       0x28 drivers/usb/musb-new/built-in.o
                0x80829b44                usb_gadget_unregister_driver
 .text.musb_register
                0x80829b6c       0x3c drivers/usb/musb-new/built-in.o
                0x80829b6c                musb_register
 .text.musb_h_tx_flush_fifo
                0x80829ba8       0x40 drivers/usb/musb-new/built-in.o
 .text.musb_h_ep0_flush_fifo
                0x80829be8       0x3c drivers/usb/musb-new/built-in.o
 .text.musb_h_flush_rxfifo.isra.0
                0x80829c24       0x1a drivers/usb/musb-new/built-in.o
 *fill*         0x80829c3e        0x2 
 .text.musb_start_urb
                0x80829c40      0x368 drivers/usb/musb-new/built-in.o
 .text.musb_advance_schedule
                0x80829fa8      0x13a drivers/usb/musb-new/built-in.o
 *fill*         0x8082a0e2        0x2 
 .text.musb_h_ep0_irq
                0x8082a0e4      0x1c4 drivers/usb/musb-new/built-in.o
                0x8082a0e4                musb_h_ep0_irq
 .text.musb_host_tx
                0x8082a2a8      0x120 drivers/usb/musb-new/built-in.o
                0x8082a2a8                musb_host_tx
 .text.musb_host_rx
                0x8082a3c8      0x26c drivers/usb/musb-new/built-in.o
                0x8082a3c8                musb_host_rx
 .text.musb_urb_enqueue
                0x8082a634      0x324 drivers/usb/musb-new/built-in.o
                0x8082a634                musb_urb_enqueue
 .text.musb_urb_dequeue
                0x8082a958       0xc6 drivers/usb/musb-new/built-in.o
                0x8082a958                musb_urb_dequeue
 .text.dsps_musb_enable
                0x8082aa1e       0x1c drivers/usb/musb-new/built-in.o
 .text.dsps_musb_disable
                0x8082aa3a        0x2 drivers/usb/musb-new/built-in.o
 .text.dsps_musb_init
                0x8082aa3c       0x50 drivers/usb/musb-new/built-in.o
 .text.dsps_musb_exit
                0x8082aa8c       0x16 drivers/usb/musb-new/built-in.o
 .text.dsps_interrupt
                0x8082aaa2       0x4e drivers/usb/musb-new/built-in.o
 .text.env_get_yesno
                0x8082aaf0       0x2a env/built-in.o
                0x8082aaf0                env_get_yesno
 .text.env_get_default
                0x8082ab1a       0x2a env/built-in.o
                0x8082ab1a                env_get_default
 .text.set_default_env
                0x8082ab44       0x6c env/built-in.o
                0x8082ab44                set_default_env
 .text.set_default_vars
                0x8082abb0       0x2c env/built-in.o
                0x8082abb0                set_default_vars
 .text.env_import
                0x8082abdc       0x8c env/built-in.o
                0x8082abdc                env_import
 .text.env_export
                0x8082ac68       0x54 env/built-in.o
                0x8082ac68                env_export
 .text.env_relocate
                0x8082acbc       0x28 env/built-in.o
                0x8082acbc                env_relocate
 .text.env_complete
                0x8082ace4      0x110 env/built-in.o
                0x8082ace4                env_complete
 .text.env_get_location
                0x8082adf4        0xe env/built-in.o
                0x8082adf4                env_get_location
 *fill*         0x8082ae02        0x2 
 .text.env_driver_lookup
                0x8082ae04       0x34 env/built-in.o
 .text.env_get_char_spec
                0x8082ae38        0x8 env/built-in.o
                0x8082ae38                env_get_char_spec
 .text.env_get_char
                0x8082ae40       0x14 env/built-in.o
                0x8082ae40                env_get_char
 .text.env_load
                0x8082ae54       0x6c env/built-in.o
                0x8082ae54                env_load
 .text.env_save
                0x8082aec0       0x58 env/built-in.o
                0x8082aec0                env_save
 .text.env_init
                0x8082af18       0x58 env/built-in.o
                0x8082af18                env_init
 .text.regex_callback
                0x8082af70       0xd8 env/built-in.o
 .text.env_attr_walk
                0x8082b048       0xb0 env/built-in.o
                0x8082b048                env_attr_walk
 .text.env_attr_lookup
                0x8082b0f8       0x4c env/built-in.o
                0x8082b0f8                env_attr_lookup
 .text.clear_callback
                0x8082b144        0x8 env/built-in.o
 .text.find_env_callback
                0x8082b14c       0x3c env/built-in.o
 .text.on_callbacks
                0x8082b188       0x38 env/built-in.o
 .text.set_callback
                0x8082b1c0       0x54 env/built-in.o
 .text.env_callback_init
                0x8082b214       0x74 env/built-in.o
                0x8082b214                env_callback_init
 .text.skip_num
                0x8082b288       0x3c env/built-in.o
 .text.clear_flags
                0x8082b2c4        0x8 env/built-in.o
 .text.on_flags
                0x8082b2cc       0x38 env/built-in.o
 .text.env_flags_parse_vartype
                0x8082b304       0x30 env/built-in.o
                0x8082b304                env_flags_parse_vartype
 .text.env_flags_parse_varaccess
                0x8082b334       0x30 env/built-in.o
                0x8082b334                env_flags_parse_varaccess
 .text.env_parse_flags_to_bin
                0x8082b364       0x20 env/built-in.o
 .text.set_flags
                0x8082b384       0x50 env/built-in.o
 .text.eth_validate_ethaddr_str
                0x8082b3d4       0x52 env/built-in.o
                0x8082b3d4                eth_validate_ethaddr_str
 *fill*         0x8082b426        0x2 
 .text.env_flags_init
                0x8082b428       0x70 env/built-in.o
                0x8082b428                env_flags_init
 .text.env_flags_validate
                0x8082b498      0x19c env/built-in.o
                0x8082b498                env_flags_validate
 .text.env_ext4_save
                0x8082b634       0x98 env/built-in.o
 .text.env_ext4_load
                0x8082b6cc       0xc0 env/built-in.o
 .text.fs_probe_unsupported
                0x8082b78c       0x14 fs/built-in.o
 .text.fs_ls_unsupported
                0x8082b7a0        0x6 fs/built-in.o
 .text.fs_exists_unsupported
                0x8082b7a6        0x4 fs/built-in.o
 .text.fs_size_unsupported
                0x8082b7aa        0x6 fs/built-in.o
 .text.fs_read_unsupported
                0x8082b7b0        0x6 fs/built-in.o
 .text.fs_close_unsupported
                0x8082b7b6        0x2 fs/built-in.o
 .text.fs_opendir_unsupported
                0x8082b7b8        0x6 fs/built-in.o
 *fill*         0x8082b7be        0x2 
 .text.fs_get_info
                0x8082b7c0       0x2c fs/built-in.o
 .text.fs_close
                0x8082b7ec       0x18 fs/built-in.o
 .text.fs_write_unsupported
                0x8082b804        0x6 fs/built-in.o
 .text.fs_mkdir_unsupported
                0x8082b80a        0x6 fs/built-in.o
 .text.fs_uuid_unsupported
                0x8082b810        0x6 fs/built-in.o
 .text.fs_unlink_unsupported
                0x8082b816        0x6 fs/built-in.o
 .text.fs_get_type_name
                0x8082b81c       0x14 fs/built-in.o
                0x8082b81c                fs_get_type_name
 .text.fs_set_blk_dev
                0x8082b830       0x70 fs/built-in.o
                0x8082b830                fs_set_blk_dev
 .text.fs_set_blk_dev_with_part
                0x8082b8a0       0x60 fs/built-in.o
                0x8082b8a0                fs_set_blk_dev_with_part
 .text.fs_ls    0x8082b900       0x24 fs/built-in.o
                0x8082b900                fs_ls
 .text.fs_exists
                0x8082b924       0x20 fs/built-in.o
                0x8082b924                fs_exists
 .text.fs_size  0x8082b944       0x24 fs/built-in.o
                0x8082b944                fs_size
 .text.fs_read  0x8082b968       0x3c fs/built-in.o
                0x8082b968                fs_read
 .text.fs_write
                0x8082b9a4       0x5c fs/built-in.o
                0x8082b9a4                fs_write
 .text.fs_opendir
                0x8082ba00       0x50 fs/built-in.o
                0x8082ba00                fs_opendir
 .text.fs_readdir
                0x8082ba50       0x3c fs/built-in.o
                0x8082ba50                fs_readdir
 .text.fs_closedir
                0x8082ba8c       0x2c fs/built-in.o
                0x8082ba8c                fs_closedir
 .text.fs_ls_generic
                0x8082bab8       0x78 fs/built-in.o
 .text.fs_unlink
                0x8082bb30       0x24 fs/built-in.o
                0x8082bb30                fs_unlink
 .text.fs_mkdir
                0x8082bb54       0x24 fs/built-in.o
                0x8082bb54                fs_mkdir
 .text.do_size  0x8082bb78       0x40 fs/built-in.o
                0x8082bb78                do_size
 .text.do_load  0x8082bbb8      0x1f4 fs/built-in.o
                0x8082bbb8                do_load
 .text.do_ls    0x8082bdac       0x40 fs/built-in.o
                0x8082bdac                do_ls
 .text.file_exists
                0x8082bdec       0x1a fs/built-in.o
                0x8082bdec                file_exists
 *fill*         0x8082be06        0x2 
 .text.do_save  0x8082be08       0xf0 fs/built-in.o
                0x8082be08                do_save
 .text.do_fs_type
                0x8082bef8       0x50 fs/built-in.o
                0x8082bef8                do_fs_type
 .text.do_rm    0x8082bf48       0x2c fs/built-in.o
                0x8082bf48                do_rm
 .text.do_mkdir
                0x8082bf74       0x34 fs/built-in.o
                0x8082bf74                do_mkdir
 .text.readdir_callback
                0x8082bfa8      0x270 fs/built-in.o
 .text.btrfs_probe
                0x8082c218       0xa4 fs/built-in.o
                0x8082c218                btrfs_probe
 .text.btrfs_ls
                0x8082c2bc       0x84 fs/built-in.o
                0x8082c2bc                btrfs_ls
 .text.btrfs_exists
                0x8082c340       0x54 fs/built-in.o
                0x8082c340                btrfs_exists
 .text.btrfs_size
                0x8082c394       0x74 fs/built-in.o
                0x8082c394                btrfs_size
 .text.btrfs_read
                0x8082c408       0xd4 fs/built-in.o
                0x8082c408                btrfs_read
 .text.btrfs_close
                0x8082c4dc        0x4 fs/built-in.o
                0x8082c4dc                btrfs_close
 .text.btrfs_uuid
                0x8082c4e0       0x14 fs/built-in.o
                0x8082c4e0                btrfs_uuid
 .text.add_chunk_mapping
                0x8082c4f4      0x18c fs/built-in.o
 .text.btrfs_map_logical_to_physical
                0x8082c680       0x64 fs/built-in.o
                0x8082c680                btrfs_map_logical_to_physical
 .text.btrfs_chunk_map_exit
                0x8082c6e4       0x24 fs/built-in.o
                0x8082c6e4                btrfs_chunk_map_exit
 .text.btrfs_chunk_map_init
                0x8082c708       0x74 fs/built-in.o
                0x8082c708                btrfs_chunk_map_init
 .text.btrfs_read_chunk_tree
                0x8082c77c       0xb0 fs/built-in.o
                0x8082c77c                btrfs_read_chunk_tree
 .text.btrfs_decompress
                0x8082c82c      0x16c fs/built-in.o
                0x8082c82c                btrfs_decompress
 .text.read_tree_node
                0x8082c998       0x8c fs/built-in.o
 .text.jump_leaf
                0x8082ca24      0x16e fs/built-in.o
 .text.btrfs_comp_keys
                0x8082cb92       0xde fs/built-in.o
                0x8082cb92                btrfs_comp_keys
 .text.btrfs_comp_keys_type
                0x8082cc70       0x7a fs/built-in.o
                0x8082cc70                btrfs_comp_keys_type
 .text.btrfs_bin_search
                0x8082ccea       0x70 fs/built-in.o
                0x8082ccea                btrfs_bin_search
 .text.btrfs_free_path
                0x8082cd5a       0x26 fs/built-in.o
                0x8082cd5a                btrfs_free_path
 .text.btrfs_search_tree
                0x8082cd80       0xf8 fs/built-in.o
                0x8082cd80                btrfs_search_tree
 .text.btrfs_prev_slot
                0x8082ce78       0x14 fs/built-in.o
                0x8082ce78                btrfs_prev_slot
 .text.btrfs_next_slot
                0x8082ce8c       0x38 fs/built-in.o
                0x8082ce8c                btrfs_next_slot
 .text.btrfs_devread
                0x8082cec4       0x54 fs/built-in.o
                0x8082cec4                btrfs_devread
 .text.verify_dir_item
                0x8082cf18       0x40 fs/built-in.o
 .text.btrfs_lookup_dir_item
                0x8082cf58      0x134 fs/built-in.o
                0x8082cf58                btrfs_lookup_dir_item
 .text.btrfs_readdir
                0x8082d08c       0xc2 fs/built-in.o
                0x8082d08c                btrfs_readdir
 .text.btrfs_read_extent_inline
                0x8082d14e       0xf0 fs/built-in.o
                0x8082d14e                btrfs_read_extent_inline
 .text.btrfs_read_extent_reg
                0x8082d23e      0x1b6 fs/built-in.o
                0x8082d23e                btrfs_read_extent_reg
 .text.btrfs_hash_init
                0x8082d3f4       0x24 fs/built-in.o
                0x8082d3f4                btrfs_hash_init
 .text.btrfs_crc32c
                0x8082d418        0xc fs/built-in.o
                0x8082d418                btrfs_crc32c
 .text.btrfs_csum_data
                0x8082d424        0xa fs/built-in.o
                0x8082d424                btrfs_csum_data
 .text.btrfs_csum_final
                0x8082d42e       0x14 fs/built-in.o
                0x8082d42e                btrfs_csum_final
 *fill*         0x8082d442        0x2 
 .text.btrfs_lookup_inode_ref
                0x8082d444      0x128 fs/built-in.o
                0x8082d444                btrfs_lookup_inode_ref
 .text.btrfs_lookup_inode
                0x8082d56c      0x120 fs/built-in.o
                0x8082d56c                btrfs_lookup_inode
 .text.btrfs_readlink
                0x8082d68c      0x14c fs/built-in.o
                0x8082d68c                btrfs_readlink
 .text.btrfs_lookup_path
                0x8082d7d8      0x2fc fs/built-in.o
                0x8082d7d8                btrfs_lookup_path
 .text.btrfs_file_read
                0x8082dad4      0x154 fs/built-in.o
                0x8082dad4                btrfs_file_read
 .text.btrfs_find_root
                0x8082dc28      0x200 fs/built-in.o
                0x8082dc28                btrfs_find_root
 .text.btrfs_lookup_root_ref
                0x8082de28      0x128 fs/built-in.o
                0x8082de28                btrfs_lookup_root_ref
 .text.list_subvols
                0x8082df50      0x2d8 fs/built-in.o
 .text.btrfs_get_default_subvol_objectid
                0x8082e228       0x38 fs/built-in.o
                0x8082e228                btrfs_get_default_subvol_objectid
 .text.btrfs_list_subvols
                0x8082e260       0x34 fs/built-in.o
                0x8082e260                btrfs_list_subvols
 .text.btrfs_read_superblock
                0x8082e294      0x3f8 fs/built-in.o
                0x8082e294                btrfs_read_superblock
 .text.get_fs   0x8082e68c        0x8 fs/built-in.o
                0x8082e68c                get_fs
 .text.ext4fs_free_node
                0x8082e694       0x1c fs/built-in.o
                0x8082e694                ext4fs_free_node
 .text.ext4fs_read_file
                0x8082e6b0      0x238 fs/built-in.o
                0x8082e6b0                ext4fs_read_file
 .text.ext4fs_ls
                0x8082e8e8       0x5c fs/built-in.o
                0x8082e8e8                ext4fs_ls
 .text.ext4fs_exists
                0x8082e944       0x14 fs/built-in.o
                0x8082e944                ext4fs_exists
 .text.ext4fs_size
                0x8082e958        0x4 fs/built-in.o
                0x8082e958                ext4fs_size
 .text.ext4fs_read
                0x8082e95c       0x38 fs/built-in.o
                0x8082e95c                ext4fs_read
 .text.ext4fs_probe
                0x8082e994       0x1e fs/built-in.o
                0x8082e994                ext4fs_probe
 *fill*         0x8082e9b2        0x2 
 .text.ext4_read_file
                0x8082e9b4       0x50 fs/built-in.o
                0x8082e9b4                ext4_read_file
 .text.ext4fs_uuid
                0x8082ea04       0x20 fs/built-in.o
                0x8082ea04                ext4fs_uuid
 .text.ext4fs_get_group_descriptor
                0x8082ea24        0xa fs/built-in.o
                0x8082ea24                ext4fs_get_group_descriptor
 .text.ext4fs_sb_get_free_blocks
                0x8082ea2e        0xa fs/built-in.o
                0x8082ea2e                ext4fs_sb_get_free_blocks
 .text.ext4fs_sb_set_free_blocks
                0x8082ea38        0xa fs/built-in.o
                0x8082ea38                ext4fs_sb_set_free_blocks
 .text.ext4fs_bg_get_free_blocks
                0x8082ea42       0x12 fs/built-in.o
                0x8082ea42                ext4fs_bg_get_free_blocks
 .text.ext4fs_bg_get_block_id
                0x8082ea54       0x16 fs/built-in.o
                0x8082ea54                ext4fs_bg_get_block_id
 .text.ext4fs_bg_get_inode_id
                0x8082ea6a       0x16 fs/built-in.o
                0x8082ea6a                ext4fs_bg_get_inode_id
 .text.ext4fs_bg_get_inode_table_id
                0x8082ea80       0x16 fs/built-in.o
                0x8082ea80                ext4fs_bg_get_inode_table_id
 .text.ext4fs_div_roundup
                0x8082ea96       0x14 fs/built-in.o
                0x8082ea96                ext4fs_div_roundup
 *fill*         0x8082eaaa        0x2 
 .text.put_ext4
                0x8082eaac      0x100 fs/built-in.o
                0x8082eaac                put_ext4
 .text.ext4fs_set_block_bmap
                0x8082ebac       0x68 fs/built-in.o
                0x8082ebac                ext4fs_set_block_bmap
 .text.ext4fs_reset_block_bmap
                0x8082ec14       0x60 fs/built-in.o
                0x8082ec14                ext4fs_reset_block_bmap
 .text.ext4fs_set_inode_bmap
                0x8082ec74       0x50 fs/built-in.o
                0x8082ec74                ext4fs_set_inode_bmap
 .text.ext4fs_reset_inode_bmap
                0x8082ecc4       0x48 fs/built-in.o
                0x8082ecc4                ext4fs_reset_inode_bmap
 .text.ext4fs_checksum_update
                0x8082ed0c       0x5a fs/built-in.o
                0x8082ed0c                ext4fs_checksum_update
 *fill*         0x8082ed66        0x2 
 .text.ext4fs_get_new_blk_no
                0x8082ed68      0x2bc fs/built-in.o
                0x8082ed68                ext4fs_get_new_blk_no
 .text.ext4fs_get_new_inode_no
                0x8082f024      0x2bc fs/built-in.o
                0x8082f024                ext4fs_get_new_inode_no
 .text.ext4fs_allocate_blocks
                0x8082f2e0      0x3fc fs/built-in.o
                0x8082f2e0                ext4fs_allocate_blocks
 .text.ext4fs_read_inode
                0x8082f6dc       0xca fs/built-in.o
                0x8082f6dc                ext4fs_read_inode
 *fill*         0x8082f7a6        0x2 
 .text.ext4fs_iget
                0x8082f7a8       0x1c fs/built-in.o
                0x8082f7a8                ext4fs_iget
 .text.read_allocated_block
                0x8082f7c4      0x604 fs/built-in.o
                0x8082f7c4                read_allocated_block
 .text.ext4fs_update_parent_dentry
                0x8082fdc8      0x234 fs/built-in.o
                0x8082fdc8                ext4fs_update_parent_dentry
 .text.search_dir
                0x8082fffc       0xd0 fs/built-in.o
 .text.ext4fs_get_parent_inode_num
                0x808300cc      0x2b4 fs/built-in.o
                0x808300cc                ext4fs_get_parent_inode_num
 .text.ext4fs_filename_unlink
                0x80830380      0x124 fs/built-in.o
                0x80830380                ext4fs_filename_unlink
 .text.ext4fs_reinit_global
                0x808304a4       0x78 fs/built-in.o
                0x808304a4                ext4fs_reinit_global
 .text.ext4fs_close
                0x8083051c       0x38 fs/built-in.o
                0x8083051c                ext4fs_close
 .text.ext4fs_iterate_dir
                0x80830554      0x1e4 fs/built-in.o
                0x80830554                ext4fs_iterate_dir
 .text.ext4fs_find_file1
                0x80830738      0x1b8 fs/built-in.o
 .text.ext4fs_find_file
                0x808308f0       0x44 fs/built-in.o
                0x808308f0                ext4fs_find_file
 .text.ext4fs_open
                0x80830934       0x60 fs/built-in.o
                0x80830934                ext4fs_open
 .text.ext4fs_mount
                0x80830994       0x90 fs/built-in.o
                0x80830994                ext4fs_mount
 .text.ext4fs_set_blk_dev
                0x80830a24       0x50 fs/built-in.o
                0x80830a24                ext4fs_set_blk_dev
 .text.ext4fs_devread
                0x80830a74       0x28 fs/built-in.o
                0x80830a74                ext4fs_devread
 .text.ext4_read_superblock
                0x80830a9c       0x28 fs/built-in.o
                0x80830a9c                ext4_read_superblock
 .text.ext4fs_update
                0x80830ac4       0xb8 fs/built-in.o
 .text.ext4fs_get_bgdtable
                0x80830b7c       0x78 fs/built-in.o
                0x80830b7c                ext4fs_get_bgdtable
 .text.ext4fs_deinit
                0x80830bf4       0xfc fs/built-in.o
                0x80830bf4                ext4fs_deinit
 .text.ext4fs_init
                0x80830cf0      0x1d8 fs/built-in.o
                0x80830cf0                ext4fs_init
 .text.ext4fs_write
                0x80830ec8      0xbec fs/built-in.o
                0x80830ec8                ext4fs_write
 .text.ext4_write_file
                0x80831ab4       0x40 fs/built-in.o
                0x80831ab4                ext4_write_file
 .text.ext4fs_dump_metadata
                0x80831af4       0x38 fs/built-in.o
                0x80831af4                ext4fs_dump_metadata
 .text.ext4fs_free_journal
                0x80831b2c       0x84 fs/built-in.o
                0x80831b2c                ext4fs_free_journal
 .text.ext4fs_log_gdt
                0x80831bb0       0x88 fs/built-in.o
                0x80831bb0                ext4fs_log_gdt
 .text.ext4fs_log_journal
                0x80831c38       0x98 fs/built-in.o
                0x80831c38                ext4fs_log_journal
 .text.ext4fs_put_metadata
                0x80831cd0       0x8c fs/built-in.o
                0x80831cd0                ext4fs_put_metadata
 .text.ext4fs_push_revoke_blk
                0x80831d5c       0x90 fs/built-in.o
                0x80831d5c                ext4fs_push_revoke_blk
 .text.ext4fs_free_revoke_blks
                0x80831dec       0x3c fs/built-in.o
                0x80831dec                ext4fs_free_revoke_blks
 .text.check_blknr_for_revoke
                0x80831e28       0x3c fs/built-in.o
                0x80831e28                check_blknr_for_revoke
 .text.recover_transaction
                0x80831e64       0xec fs/built-in.o
                0x80831e64                recover_transaction
 .text.print_jrnl_status
                0x80831f50       0x14 fs/built-in.o
                0x80831f50                print_jrnl_status
 .text.ext4fs_check_journal_state
                0x80831f64      0x1f0 fs/built-in.o
                0x80831f64                ext4fs_check_journal_state
 .text.ext4fs_init_journal
                0x80832154      0x198 fs/built-in.o
                0x80832154                ext4fs_init_journal
 .text.ext4fs_update_journal
                0x808322ec      0x218 fs/built-in.o
                0x808322ec                ext4fs_update_journal
 .text.ext2fs_crc16
                0x80832504       0x24 fs/built-in.o
                0x80832504                ext2fs_crc16
 .text.downcase
                0x80832528       0x24 fs/built-in.o
 .text.disk_read
                0x8083254c       0x30 fs/built-in.o
 .text.mkcksum  0x8083257c       0x48 fs/built-in.o
 .text.fat_itr_child
                0x808325c4       0x3c fs/built-in.o
 .text.disk_write
                0x80832600       0x4c fs/built-in.o
 .text.flush_dirty_fat_buffer
                0x8083264c       0x56 fs/built-in.o
 *fill*         0x808326a2        0x2 
 .text.get_fatent
                0x808326a4      0x104 fs/built-in.o
 .text.next_dent
                0x808327a8       0xb0 fs/built-in.o
 .text.get_cluster
                0x80832858       0xe4 fs/built-in.o
 .text.read_bootsectandvi
                0x8083293c       0xbc fs/built-in.o
 .text.fat_itr_root
                0x808329f8      0x140 fs/built-in.o
 .text.set_cluster
                0x80832b38       0xf4 fs/built-in.o
 .text.normalize_longname
                0x80832c2c       0x7c fs/built-in.o
 .text.set_name
                0x80832ca8       0xcc fs/built-in.o
 .text.fat_itr_next
                0x80832d74      0x184 fs/built-in.o
 .text.fat_itr_resolve
                0x80832ef8       0xe8 fs/built-in.o
 .text.split_filename.isra.0
                0x80832fe0       0x80 fs/built-in.o
 .text.set_fatent_value.isra.0
                0x80833060      0x164 fs/built-in.o
 .text.clear_fatent.isra.0
                0x808331c4       0x54 fs/built-in.o
 .text.flush_dir_table
                0x80833218       0xa0 fs/built-in.o
 .text.fill_dir_slot
                0x808332b8      0x162 fs/built-in.o
 .text.find_directory_entry
                0x8083341a       0x52 fs/built-in.o
 .text.determine_fatent
                0x8083346c       0x24 fs/built-in.o
 .text.set_contents
                0x80833490      0x66c fs/built-in.o
 .text.fat_set_blk_dev
                0x80833afc       0x8c fs/built-in.o
                0x80833afc                fat_set_blk_dev
 .text.file_fat_detectfs
                0x80833b88       0xd4 fs/built-in.o
                0x80833b88                file_fat_detectfs
 .text.fat_exists
                0x80833c5c       0x44 fs/built-in.o
                0x80833c5c                fat_exists
 .text.fat_size
                0x80833ca0       0x78 fs/built-in.o
                0x80833ca0                fat_size
 .text.file_fat_read_at
                0x80833d18      0x2dc fs/built-in.o
                0x80833d18                file_fat_read_at
 .text.fat_read_file
                0x80833ff4       0x30 fs/built-in.o
                0x80833ff4                fat_read_file
 .text.fat_opendir
                0x80834024       0x60 fs/built-in.o
                0x80834024                fat_opendir
 .text.fat_readdir
                0x80834084       0x54 fs/built-in.o
                0x80834084                fat_readdir
 .text.fat_closedir
                0x808340d8       0x16 fs/built-in.o
                0x808340d8                fat_closedir
 .text.fat_close
                0x808340ee        0x2 fs/built-in.o
                0x808340ee                fat_close
 .text.file_fat_write_at
                0x808340f0      0x1e8 fs/built-in.o
                0x808340f0                file_fat_write_at
 .text.file_fat_write
                0x808342d8       0x1a fs/built-in.o
                0x808342d8                file_fat_write
 *fill*         0x808342f2        0x2 
 .text.fat_unlink
                0x808342f4      0x1e8 fs/built-in.o
                0x808342f4                fat_unlink
 .text.fat_mkdir
                0x808344dc      0x290 fs/built-in.o
                0x808344dc                fat_mkdir
 .text.fs_devread
                0x8083476c      0x168 fs/built-in.o
                0x8083476c                fs_devread
 .text.efi_uc_destroy
                0x808348d4       0x10 lib/built-in.o
 .text.efi_uc_init
                0x808348e4       0x10 lib/built-in.o
 .text.check_node_type
                0x808348f4       0x54 lib/built-in.o
 .text.efi_uc_start
                0x80834948       0x8c lib/built-in.o
 .text.efi_uc_supported
                0x808349d4       0x7c lib/built-in.o
 .text.disconnect_child
                0x80834a50       0x44 lib/built-in.o
 .text.efi_uc_stop
                0x80834a94       0xcc lib/built-in.o
 .text.efi_driver_init
                0x80834b60       0xbc lib/built-in.o
                0x80834b60                efi_driver_init
 .text.get_var.constprop.0
                0x80834c1c       0x7c lib/built-in.o
 .text.efi_deserialize_load_option
                0x80834c98       0x3e lib/built-in.o
                0x80834c98                efi_deserialize_load_option
 *fill*         0x80834cd6        0x2 
 .text.efi_bootmgr_load
                0x80834cd8      0x108 lib/built-in.o
                0x80834cd8                efi_bootmgr_load
 .text.efi_is_event
                0x80834de0       0x24 lib/built-in.o
 .text.__efi_entry_check
                0x80834e04       0x28 lib/built-in.o
                0x80834e04                __efi_entry_check
 .text.__efi_exit_check
                0x80834e2c       0x20 lib/built-in.o
                0x80834e2c                __efi_exit_check
 .text.efi_queue_event
                0x80834e4c       0x38 lib/built-in.o
 .text.efi_start_image
                0x80834e84       0x70 lib/built-in.o
                0x80834e84                efi_start_image
 .text.efi_set_mem
                0x80834ef4       0x1c lib/built-in.o
 .text.efi_copy_mem
                0x80834f10       0x1a lib/built-in.o
 .text.efi_calculate_crc32
                0x80834f2a       0x1e lib/built-in.o
 .text.efi_set_watchdog_timer
                0x80834f48       0x18 lib/built-in.o
 .text.efi_stall
                0x80834f60       0x16 lib/built-in.o
 *fill*         0x80834f76        0x2 
 .text.efi_get_next_monotonic_count
                0x80834f78       0x28 lib/built-in.o
 .text.efi_register_protocol_notify
                0x80834fa0       0x14 lib/built-in.o
 .text.efi_close_event
                0x80834fb4       0x38 lib/built-in.o
 .text.efi_free_pool_ext
                0x80834fec       0x18 lib/built-in.o
 .text.efi_allocate_pool_ext
                0x80835004       0x1c lib/built-in.o
 .text.efi_get_memory_map_ext
                0x80835020       0x26 lib/built-in.o
 .text.efi_free_pages_ext
                0x80835046       0x1c lib/built-in.o
 .text.efi_allocate_pages_ext
                0x80835062       0x20 lib/built-in.o
 *fill*         0x80835082        0x2 
 .text.efi_raise_tpl
                0x80835084       0x20 lib/built-in.o
 .text.efi_save_gd
                0x808350a4        0xc lib/built-in.o
                0x808350a4                efi_save_gd
 .text.efi_restore_gd
                0x808350b0       0x10 lib/built-in.o
                0x808350b0                efi_restore_gd
 .text.efi_exit
                0x808350c0       0x28 lib/built-in.o
 .text.is_valid_tpl
                0x808350e8       0x20 lib/built-in.o
                0x808350e8                is_valid_tpl
 .text.efi_signal_event
                0x80835108       0x8c lib/built-in.o
                0x80835108                efi_signal_event
 .text.efi_exit_boot_services
                0x80835194       0xb4 lib/built-in.o
 .text.efi_signal_event_ext
                0x80835248       0x30 lib/built-in.o
 .text.efi_add_handle
                0x80835278       0x1c lib/built-in.o
                0x80835278                efi_add_handle
 .text.efi_create_handle
                0x80835294       0x20 lib/built-in.o
                0x80835294                efi_create_handle
 .text.efi_create_event
                0x808352b4       0xa4 lib/built-in.o
                0x808352b4                efi_create_event
 .text.efi_create_event_ex
                0x80835358       0x2a lib/built-in.o
                0x80835358                efi_create_event_ex
 .text.efi_create_event_ext
                0x80835382       0x2a lib/built-in.o
 .text.efi_timer_check
                0x808353ac       0x6c lib/built-in.o
                0x808353ac                efi_timer_check
 .text.efi_check_event
                0x80835418       0x58 lib/built-in.o
 .text.efi_wait_for_event
                0x80835470       0x9c lib/built-in.o
 .text.efi_restore_tpl
                0x8083550c       0x24 lib/built-in.o
 .text.efi_set_timer
                0x80835530       0x80 lib/built-in.o
                0x80835530                efi_set_timer
 .text.efi_set_timer_ext
                0x808355b0       0x20 lib/built-in.o
 .text.efi_search_obj
                0x808355d0       0x1c lib/built-in.o
                0x808355d0                efi_search_obj
 .text.efi_search_protocol
                0x808355ec       0x44 lib/built-in.o
                0x808355ec                efi_search_protocol
 .text.efi_remove_protocol
                0x80835630       0x44 lib/built-in.o
                0x80835630                efi_remove_protocol
 .text.efi_locate_protocol
                0x80835674       0x60 lib/built-in.o
 .text.efi_open_protocol_information
                0x808356d4       0x8c lib/built-in.o
 .text.efi_close_protocol
                0x80835760       0x64 lib/built-in.o
 .text.efi_locate_handle
                0x808357c4       0xa4 lib/built-in.o
 .text.efi_locate_handle_buffer
                0x80835868       0x80 lib/built-in.o
 .text.efi_locate_device_path
                0x808358e8       0xc0 lib/built-in.o
 .text.efi_locate_handle_ext
                0x808359a8       0x26 lib/built-in.o
 *fill*         0x808359ce        0x2 
 .text.efi_remove_all_protocols
                0x808359d0       0x38 lib/built-in.o
                0x808359d0                efi_remove_all_protocols
 .text.efi_delete_handle
                0x80835a08       0x24 lib/built-in.o
                0x80835a08                efi_delete_handle
 .text.efi_protocols_per_handle
                0x80835a2c       0x78 lib/built-in.o
 .text.efi_disconnect_controller
                0x80835aa4      0x184 lib/built-in.o
 .text.efi_disconnect_all_drivers
                0x80835c28       0xe8 lib/built-in.o
 .text.efi_open_protocol
                0x80835d10      0x18c lib/built-in.o
 .text.efi_bind_controller
                0x80835e9c       0x78 lib/built-in.o
 .text.efi_handle_protocol
                0x80835f14       0x14 lib/built-in.o
 .text.efi_uninstall_protocol
                0x80835f28       0x94 lib/built-in.o
 .text.efi_uninstall_protocol_interface
                0x80835fbc       0x3a lib/built-in.o
 *fill*         0x80835ff6        0x2 
 .text.efi_connect_controller
                0x80835ff8      0x124 lib/built-in.o
 .text.efi_unload_image
                0x8083611c       0x26 lib/built-in.o
 *fill*         0x80836142        0x2 
 .text.efi_add_protocol
                0x80836144       0x68 lib/built-in.o
                0x80836144                efi_add_protocol
 .text.efi_reinstall_protocol_interface
                0x808361ac       0x44 lib/built-in.o
 .text.efi_install_protocol_interface
                0x808361f0       0x44 lib/built-in.o
 .text.efi_uninstall_multiple_protocol_interfaces
                0x80836234       0x90 lib/built-in.o
 .text.efi_install_multiple_protocol_interfaces
                0x808362c4       0x7c lib/built-in.o
 .text.efi_install_configuration_table
                0x80836340       0xec lib/built-in.o
                0x80836340                efi_install_configuration_table
 .text.efi_install_configuration_table_ext
                0x8083642c       0x18 lib/built-in.o
 .text.efi_setup_loaded_image
                0x80836444       0xac lib/built-in.o
                0x80836444                efi_setup_loaded_image
 .text.efi_load_image_from_path
                0x808364f0       0xf0 lib/built-in.o
                0x808364f0                efi_load_image_from_path
 .text.efi_load_image
                0x808365e0      0x100 lib/built-in.o
 .text.efi_initialize_system_table
                0x808366e0       0x38 lib/built-in.o
                0x808366e0                efi_initialize_system_table
 .text.efi_cout_enable_cursor
                0x80836718       0x24 lib/built-in.o
 .text.efi_cout_set_cursor_position
                0x8083673c       0x64 lib/built-in.o
 .text.efi_cout_clear_screen
                0x808367a0       0x24 lib/built-in.o
 .text.efi_cout_set_attribute
                0x808367c4       0x44 lib/built-in.o
 .text.efi_cout_set_mode
                0x80836808       0x30 lib/built-in.o
 .text.efi_cout_test_string
                0x80836838        0xe lib/built-in.o
 *fill*         0x80836846        0x2 
 .text.efi_cout_reset
                0x80836848       0x28 lib/built-in.o
 .text.efi_cin_set_state
                0x80836870       0x14 lib/built-in.o
 .text.efi_cout_output_string
                0x80836884       0xc8 lib/built-in.o
 .text.efi_cin_unregister_key_notify
                0x8083694c       0x48 lib/built-in.o
 .text.efi_cin_reset_ex
                0x80836994       0x30 lib/built-in.o
 .text.efi_cin_reset
                0x808369c4        0x4 lib/built-in.o
 .text.efi_cin_register_key_notify
                0x808369c8       0x5c lib/built-in.o
 .text.term_get_char
                0x80836a24       0x2a lib/built-in.o
 *fill*         0x80836a4e        0x2 
 .text.efi_cout_query_mode
                0x80836a50       0x50 lib/built-in.o
 .text.set_shift_mask
                0x80836aa0       0x40 lib/built-in.o
                0x80836aa0                set_shift_mask
 .text.analyze_modifiers.constprop.0
                0x80836ae0       0x58 lib/built-in.o
 .text.efi_cin_check
                0x80836b38      0x264 lib/built-in.o
 .text.efi_cin_read_key_stroke
                0x80836d9c       0x58 lib/built-in.o
 .text.efi_console_timer_notify
                0x80836df4       0x12 lib/built-in.o
 *fill*         0x80836e06        0x2 
 .text.efi_cin_read_key_stroke_ex
                0x80836e08       0x58 lib/built-in.o
 .text.efi_key_notify
                0x80836e60       0x12 lib/built-in.o
 *fill*         0x80836e72        0x2 
 .text.efi_console_register
                0x80836e74      0x1f8 lib/built-in.o
                0x80836e74                efi_console_register
 .text.dp_alloc
                0x8083706c       0x24 lib/built-in.o
 .text.dp_part_node
                0x80837090      0x130 lib/built-in.o
 .text.efi_dp_next
                0x808371c0       0x20 lib/built-in.o
                0x808371c0                efi_dp_next
 .text.efi_dp_match
                0x808371e0       0x42 lib/built-in.o
                0x808371e0                efi_dp_match
 .text.efi_dp_last_node
                0x80837222       0x1c lib/built-in.o
                0x80837222                efi_dp_last_node
 .text.efi_dp_instance_size
                0x8083723e       0x26 lib/built-in.o
                0x8083723e                efi_dp_instance_size
 .text.find_obj
                0x80837264       0x98 lib/built-in.o
 .text.efi_dp_find_obj
                0x808372fc       0x2c lib/built-in.o
                0x808372fc                efi_dp_find_obj
 .text.efi_dp_size
                0x80837328       0x20 lib/built-in.o
                0x80837328                efi_dp_size
 .text.efi_dp_dup
                0x80837348       0x26 lib/built-in.o
                0x80837348                efi_dp_dup
 *fill*         0x8083736e        0x2 
 .text.efi_dp_append
                0x80837370       0x54 lib/built-in.o
                0x80837370                efi_dp_append
 .text.efi_dp_append_node
                0x808373c4       0x8c lib/built-in.o
                0x808373c4                efi_dp_append_node
 .text.efi_dp_create_device_node
                0x80837450       0x1c lib/built-in.o
                0x80837450                efi_dp_create_device_node
 .text.efi_dp_append_instance
                0x8083746c       0x64 lib/built-in.o
                0x8083746c                efi_dp_append_instance
 .text.efi_dp_get_next_instance
                0x808374d0       0x54 lib/built-in.o
                0x808374d0                efi_dp_get_next_instance
 .text.efi_dp_is_multi_instance
                0x80837524       0x1e lib/built-in.o
                0x80837524                efi_dp_is_multi_instance
 *fill*         0x80837542        0x2 
 .text.efi_dp_from_part
                0x80837544       0x64 lib/built-in.o
                0x80837544                efi_dp_from_part
 .text.efi_dp_part_node
                0x808375a8       0x22 lib/built-in.o
                0x808375a8                efi_dp_part_node
 *fill*         0x808375ca        0x2 
 .text.efi_dp_from_file
                0x808375cc       0xb0 lib/built-in.o
                0x808375cc                efi_dp_from_file
 .text.efi_dp_from_eth
                0x8083767c       0x58 lib/built-in.o
                0x8083767c                efi_dp_from_eth
 .text.efi_dp_from_mem
                0x808376d4       0xa0 lib/built-in.o
                0x808376d4                efi_dp_from_mem
 .text.efi_dp_split_file_path
                0x80837774       0x64 lib/built-in.o
                0x80837774                efi_dp_split_file_path
 .text.efi_dp_from_name
                0x808377d8       0xac lib/built-in.o
                0x808377d8                efi_dp_from_name
 .text.efi_str_to_u16
                0x80837884       0x32 lib/built-in.o
 *fill*         0x808378b6        0x2 
 .text.dp_unknown.isra.0
                0x808378b8       0x18 lib/built-in.o
 .text.efi_convert_single_device_node_to_text
                0x808378d0      0x30c lib/built-in.o
 .text.efi_convert_device_path_to_text
                0x80837bdc       0x4c lib/built-in.o
 .text.efi_convert_device_node_to_text
                0x80837c28       0x2a lib/built-in.o
 .text.efi_dp_str
                0x80837c52       0x1c lib/built-in.o
                0x80837c52                efi_dp_str
 .text.create_device_node
                0x80837c6e       0x20 lib/built-in.o
 .text.is_device_path_multi_instance
                0x80837c8e       0x18 lib/built-in.o
 .text.get_next_device_path_instance
                0x80837ca6       0x1c lib/built-in.o
 .text.append_device_path_instance
                0x80837cc2       0x1c lib/built-in.o
 .text.append_device_node
                0x80837cde       0x1c lib/built-in.o
 .text.append_device_path
                0x80837cfa       0x1c lib/built-in.o
 .text.duplicate_device_path
                0x80837d16       0x18 lib/built-in.o
 .text.get_device_path_size
                0x80837d2e       0x1a lib/built-in.o
 .text.efi_file_flush
                0x80837d48        0xe lib/built-in.o
 *fill*         0x80837d56        0x2 
 .text.efi_file_setinfo
                0x80837d58       0x14 lib/built-in.o
 .text.efi_file_getpos
                0x80837d6c       0x28 lib/built-in.o
 .text.set_blk_dev.isra.0
                0x80837d94        0x8 lib/built-in.o
 .text.efi_file_delete
                0x80837d9c       0x3c lib/built-in.o
 .text.efi_file_read
                0x80837dd8      0x14c lib/built-in.o
 .text.efi_file_write
                0x80837f24       0x5c lib/built-in.o
 .text.efi_file_setpos
                0x80837f80       0x68 lib/built-in.o
 .text.efi_file_getinfo
                0x80837fe8      0x148 lib/built-in.o
 .text.file_open
                0x80838130      0x1cc lib/built-in.o
 .text.efi_open_volume
                0x808382fc       0x2c lib/built-in.o
 .text.efi_file_open
                0x80838328       0x70 lib/built-in.o
 .text.efi_file_close
                0x80838398       0x1c lib/built-in.o
 .text.efi_file_from_path
                0x808383b4       0xb0 lib/built-in.o
                0x808383b4                efi_file_from_path
 .text.efi_simple_file_system
                0x80838464       0x30 lib/built-in.o
                0x80838464                efi_simple_file_system
 .text.efi_set_code_and_data_type
                0x80838494       0x40 lib/built-in.o
 .text.efi_print_image_infos
                0x808384d4       0x98 lib/built-in.o
                0x808384d4                efi_print_image_infos
 .text.efi_load_pe
                0x8083856c      0x234 lib/built-in.o
                0x8083856c                efi_load_pe
 .text.efi_mem_cmp
                0x808387a0       0x24 lib/built-in.o
 .text.efi_add_memory_map
                0x808387c4      0x2cc lib/built-in.o
                0x808387c4                efi_add_memory_map
 .text.efi_allocate_pages
                0x80838a90      0x108 lib/built-in.o
                0x80838a90                efi_allocate_pages
 .text.efi_alloc
                0x80838b98       0x32 lib/built-in.o
                0x80838b98                efi_alloc
 *fill*         0x80838bca        0x2 
 .text.efi_free_pages
                0x80838bcc       0x28 lib/built-in.o
                0x80838bcc                efi_free_pages
 .text.efi_allocate_pool
                0x80838bf4       0x3c lib/built-in.o
                0x80838bf4                efi_allocate_pool
 .text.efi_free_pool
                0x80838c30       0x18 lib/built-in.o
                0x80838c30                efi_free_pool
 .text.efi_get_memory_map
                0x80838c48       0x90 lib/built-in.o
                0x80838c48                efi_get_memory_map
 .text.efi_add_known_memory
                0x80838cd8       0xc0 lib/built-in.o
                0x80838cd8                efi_add_known_memory
 .text.efi_memory_init
                0x80838d98       0x58 lib/built-in.o
                0x80838d98                efi_memory_init
 .text.efi_root_node_register
                0x80838df0       0xa0 lib/built-in.o
                0x80838df0                efi_root_node_register
 .text.efi_reset_system_boottime
                0x80838e90       0x4c lib/built-in.o
 .text.efi_get_time_boottime
                0x80838edc       0x14 lib/built-in.o
 .text.efi_reset_system_init
                0x80838ef0        0x4 lib/built-in.o
                0x80838ef0                efi_reset_system_init
 .text.efi_set_virtual_address_map
                0x80838ef4      0x11c lib/built-in.o
 .text.efi_init_obj_list
                0x80839010       0x4c lib/built-in.o
                0x80839010                efi_init_obj_list
 .text.metai_match
                0x8083905c       0x8c lib/built-in.o
 .text.efi_str_to_fat
                0x808390e8       0x78 lib/built-in.o
 .text.efi_fat_to_str
                0x80839160       0x3c lib/built-in.o
 .text.efi_str_upr
                0x8083919c       0x20 lib/built-in.o
 .text.efi_metai_match
                0x808391bc       0x1c lib/built-in.o
 .text.efi_stri_coll
                0x808391d8       0x3e lib/built-in.o
 .text.efi_str_lwr
                0x80839216       0x20 lib/built-in.o
 *fill*         0x80839236        0x2 
 .text.efi_to_native
                0x80839238       0x58 lib/built-in.o
 .text.prefix   0x80839290       0x22 lib/built-in.o
 *fill*         0x808392b2        0x2 
 .text.parse_attr
                0x808392b4       0x7c lib/built-in.o
 .text.efi_get_variable
                0x80839330      0x170 lib/built-in.o
                0x80839330                efi_get_variable
 .text.efi_get_next_variable_name
                0x808394a0      0x198 lib/built-in.o
                0x808394a0                efi_get_next_variable_name
 .text.efi_set_variable
                0x80839638      0x164 lib/built-in.o
                0x80839638                efi_set_variable
 .text.efi_watchdog_timer_notify
                0x8083979c       0x34 lib/built-in.o
 .text.efi_set_watchdog
                0x808397d0       0x24 lib/built-in.o
                0x808397d0                efi_set_watchdog
 *fill*         0x808397f4        0x4 
 .text.efi_watchdog_register
                0x808397f8       0x5c lib/built-in.o
                0x808397f8                efi_watchdog_register
 .text.efi_disk_flush_blocks
                0x80839854        0xe lib/built-in.o
 *fill*         0x80839862        0x2 
 .text.efi_disk_reset
                0x80839864       0x14 lib/built-in.o
 .text.efi_disk_add_dev.part.0
                0x80839878      0x10c lib/built-in.o
 .text.efi_disk_read_blocks
                0x80839984       0x54 lib/built-in.o
 .text.efi_disk_write_blocks
                0x808399d8       0x54 lib/built-in.o
 .text.efi_fs_from_path
                0x80839a2c       0x48 lib/built-in.o
                0x80839a2c                efi_fs_from_path
 .text.efi_disk_create_partitions
                0x80839a74       0x90 lib/built-in.o
                0x80839a74                efi_disk_create_partitions
 .text.efi_disk_register
                0x80839b04       0xd8 lib/built-in.o
                0x80839b04                efi_disk_register
 .text.efi_net_push
                0x80839bdc       0x18 lib/built-in.o
 .text.efi_network_timer_notify
                0x80839bf4       0x38 lib/built-in.o
 .text.efi_net_nvdata
                0x80839c2c       0x14 lib/built-in.o
 .text.efi_net_mcastiptomac
                0x80839c40       0x14 lib/built-in.o
 .text.efi_net_statistics
                0x80839c54       0x14 lib/built-in.o
 .text.efi_net_station_address
                0x80839c68       0x14 lib/built-in.o
 .text.efi_net_receive_filters
                0x80839c7c       0x14 lib/built-in.o
 .text.efi_net_stop
                0x80839c90       0x2c lib/built-in.o
 .text.efi_net_start
                0x80839cbc       0x2c lib/built-in.o
 .text.efi_net_get_status
                0x80839ce8       0x60 lib/built-in.o
 .text.efi_net_receive
                0x80839d48       0xe8 lib/built-in.o
 .text.efi_net_transmit
                0x80839e30       0x68 lib/built-in.o
 .text.efi_net_shutdown
                0x80839e98       0x24 lib/built-in.o
 .text.efi_net_initialize
                0x80839ebc       0x48 lib/built-in.o
 .text.efi_net_reset
                0x80839f04       0x24 lib/built-in.o
 .text.efi_net_set_dhcp_ack
                0x80839f28       0x34 lib/built-in.o
                0x80839f28                efi_net_set_dhcp_ack
 .text.efi_net_register
                0x80839f5c      0x1d0 lib/built-in.o
                0x80839f5c                efi_net_register
 .text.efi_smbios_register
                0x8083a12c       0x44 lib/built-in.o
                0x8083a12c                efi_smbios_register
 .text.fdt_check_header
                0x8083a170       0x48 lib/built-in.o
                0x8083a170                fdt_check_header
 .text.fdt_offset_ptr
                0x8083a1b8       0x32 lib/built-in.o
                0x8083a1b8                fdt_offset_ptr
 .text.fdt_next_tag
                0x8083a1ea       0xa0 lib/built-in.o
                0x8083a1ea                fdt_next_tag
 .text.fdt_check_node_offset_
                0x8083a28a       0x24 lib/built-in.o
                0x8083a28a                fdt_check_node_offset_
 .text.fdt_check_prop_offset_
                0x8083a2ae       0x24 lib/built-in.o
                0x8083a2ae                fdt_check_prop_offset_
 .text.fdt_next_node
                0x8083a2d2       0x6e lib/built-in.o
                0x8083a2d2                fdt_next_node
 .text.fdt_first_subnode
                0x8083a340       0x26 lib/built-in.o
                0x8083a340                fdt_first_subnode
 .text.fdt_next_subnode
                0x8083a366       0x2a lib/built-in.o
                0x8083a366                fdt_next_subnode
 .text.fdt_find_string_
                0x8083a390       0x30 lib/built-in.o
                0x8083a390                fdt_find_string_
 .text.fdt_move
                0x8083a3c0       0x2a lib/built-in.o
                0x8083a3c0                fdt_move
 .text.fdt_setprop_inplace_namelen_partial
                0x8083a3ea       0x30 lib/built-in.o
                0x8083a3ea                fdt_setprop_inplace_namelen_partial
 .text.fdt_setprop_inplace
                0x8083a41a       0x4a lib/built-in.o
                0x8083a41a                fdt_setprop_inplace
 .text.fdt_node_end_offset_
                0x8083a464       0x20 lib/built-in.o
                0x8083a464                fdt_node_end_offset_
 .text.fdt_strerror
                0x8083a484       0x3c lib/built-in.o
                0x8083a484                fdt_strerror
 .text.fdt_blocks_misordered_
                0x8083a4c0       0x36 lib/built-in.o
 .text.fdt_splice_
                0x8083a4f6       0x4c lib/built-in.o
 .text.fdt_splice_mem_rsv_
                0x8083a542       0x2e lib/built-in.o
 .text.fdt_splice_struct_
                0x8083a570       0x26 lib/built-in.o
 .text.fdt_packblocks_
                0x8083a596       0x5c lib/built-in.o
 .text.fdt_add_property_
                0x8083a5f2       0xc0 lib/built-in.o
 .text.fdt_rw_check_header_
                0x8083a6b2       0x3a lib/built-in.o
 .text.fdt_add_mem_rsv
                0x8083a6ec       0x56 lib/built-in.o
                0x8083a6ec                fdt_add_mem_rsv
 .text.fdt_del_mem_rsv
                0x8083a742       0x3c lib/built-in.o
                0x8083a742                fdt_del_mem_rsv
 .text.fdt_setprop_placeholder
                0x8083a77e       0x76 lib/built-in.o
                0x8083a77e                fdt_setprop_placeholder
 .text.fdt_setprop
                0x8083a7f4       0x26 lib/built-in.o
                0x8083a7f4                fdt_setprop
 .text.fdt_delprop
                0x8083a81a       0x3e lib/built-in.o
                0x8083a81a                fdt_delprop
 .text.fdt_add_subnode_namelen
                0x8083a858       0x98 lib/built-in.o
                0x8083a858                fdt_add_subnode_namelen
 .text.fdt_add_subnode
                0x8083a8f0       0x1e lib/built-in.o
                0x8083a8f0                fdt_add_subnode
 .text.fdt_del_node
                0x8083a90e       0x30 lib/built-in.o
                0x8083a90e                fdt_del_node
 *fill*         0x8083a93e        0x2 
 .text.fdt_open_into
                0x8083a940       0xec lib/built-in.o
                0x8083a940                fdt_open_into
 .text.fdt_pack
                0x8083aa2c       0x34 lib/built-in.o
                0x8083aa2c                fdt_pack
 .text.fdt_address_cells
                0x8083aa60       0x34 lib/built-in.o
                0x8083aa60                fdt_address_cells
 .text.fdt_size_cells
                0x8083aa94       0x34 lib/built-in.o
                0x8083aa94                fdt_size_cells
 .text.overlay_phandle_add_offset
                0x8083aac8       0x4a lib/built-in.o
 *fill*         0x8083ab12        0x2 
 .text.overlay_adjust_node_phandles
                0x8083ab14       0x5c lib/built-in.o
 .text.overlay_update_local_node_references
                0x8083ab70       0xfc lib/built-in.o
 .text.overlay_get_target
                0x8083ac6c       0x7c lib/built-in.o
 .text.overlay_apply_node
                0x8083ace8       0xae lib/built-in.o
 *fill*         0x8083ad96        0x2 
 .text.fdt_overlay_apply
                0x8083ad98      0x430 lib/built-in.o
                0x8083ad98                fdt_overlay_apply
 .text.fdt_path_next_separator
                0x8083b1c8       0x2c lib/built-in.o
 .text._nextprop
                0x8083b1f4       0x32 lib/built-in.o
 .text.fdt_string
                0x8083b226        0xa lib/built-in.o
                0x8083b226                fdt_string
 .text.fdt_get_mem_rsv
                0x8083b230       0x3e lib/built-in.o
                0x8083b230                fdt_get_mem_rsv
 .text.fdt_num_mem_rsv
                0x8083b26e       0x1a lib/built-in.o
                0x8083b26e                fdt_num_mem_rsv
 .text.fdt_subnode_offset_namelen
                0x8083b288       0x7c lib/built-in.o
                0x8083b288                fdt_subnode_offset_namelen
 .text.fdt_subnode_offset
                0x8083b304       0x1e lib/built-in.o
                0x8083b304                fdt_subnode_offset
 .text.fdt_get_name
                0x8083b322       0x3c lib/built-in.o
                0x8083b322                fdt_get_name
 .text.fdt_first_property_offset
                0x8083b35e       0x18 lib/built-in.o
                0x8083b35e                fdt_first_property_offset
 .text.fdt_next_property_offset
                0x8083b376       0x18 lib/built-in.o
                0x8083b376                fdt_next_property_offset
 .text.fdt_get_property_by_offset
                0x8083b38e       0x2c lib/built-in.o
                0x8083b38e                fdt_get_property_by_offset
 .text.fdt_get_property_namelen
                0x8083b3ba       0x70 lib/built-in.o
                0x8083b3ba                fdt_get_property_namelen
 .text.fdt_get_property
                0x8083b42a       0x22 lib/built-in.o
                0x8083b42a                fdt_get_property
 .text.fdt_getprop_namelen
                0x8083b44c       0x12 lib/built-in.o
                0x8083b44c                fdt_getprop_namelen
 .text.fdt_getprop_by_offset
                0x8083b45e       0x24 lib/built-in.o
                0x8083b45e                fdt_getprop_by_offset
 .text.fdt_getprop
                0x8083b482       0x22 lib/built-in.o
                0x8083b482                fdt_getprop
 .text.fdt_get_phandle
                0x8083b4a4       0x40 lib/built-in.o
                0x8083b4a4                fdt_get_phandle
 .text.fdt_get_max_phandle
                0x8083b4e4       0x42 lib/built-in.o
                0x8083b4e4                fdt_get_max_phandle
 *fill*         0x8083b526        0x2 
 .text.fdt_get_alias_namelen
                0x8083b528       0x2c lib/built-in.o
                0x8083b528                fdt_get_alias_namelen
 .text.fdt_path_offset_namelen
                0x8083b554       0x8e lib/built-in.o
                0x8083b554                fdt_path_offset_namelen
 .text.fdt_path_offset
                0x8083b5e2       0x1a lib/built-in.o
                0x8083b5e2                fdt_path_offset
 .text.fdt_get_path
                0x8083b5fc       0xd4 lib/built-in.o
                0x8083b5fc                fdt_get_path
 .text.fdt_supernode_atdepth_offset
                0x8083b6d0       0x6a lib/built-in.o
                0x8083b6d0                fdt_supernode_atdepth_offset
 .text.fdt_node_depth
                0x8083b73a       0x20 lib/built-in.o
                0x8083b73a                fdt_node_depth
 .text.fdt_parent_offset
                0x8083b75a       0x20 lib/built-in.o
                0x8083b75a                fdt_parent_offset
 .text.fdt_node_offset_by_phandle
                0x8083b77a       0x42 lib/built-in.o
                0x8083b77a                fdt_node_offset_by_phandle
 .text.fdt_stringlist_count
                0x8083b7bc       0x38 lib/built-in.o
                0x8083b7bc                fdt_stringlist_count
 .text.fdt_stringlist_get
                0x8083b7f4       0x5c lib/built-in.o
                0x8083b7f4                fdt_stringlist_get
 .text.get_code
                0x8083b850       0x7a lib/built-in.o
 .text.read_string
                0x8083b8ca       0x18 lib/built-in.o
 .text.read_console
                0x8083b8e2        0xe lib/built-in.o
 .text.console_read_unicode
                0x8083b8f0       0x20 lib/built-in.o
                0x8083b8f0                console_read_unicode
 .text.utf8_get
                0x8083b910        0xc lib/built-in.o
                0x8083b910                utf8_get
 .text.utf8_put
                0x8083b91c       0x90 lib/built-in.o
                0x8083b91c                utf8_put
 .text.utf8_utf16_strnlen
                0x8083b9ac       0x32 lib/built-in.o
                0x8083b9ac                utf8_utf16_strnlen
 .text.utf16_get
                0x8083b9de       0x5a lib/built-in.o
                0x8083b9de                utf16_get
 .text.utf16_put
                0x8083ba38       0x4c lib/built-in.o
                0x8083ba38                utf16_put
 .text.utf8_utf16_strncpy
                0x8083ba84       0x40 lib/built-in.o
                0x8083ba84                utf8_utf16_strncpy
 .text.utf16_strnlen
                0x8083bac4       0x24 lib/built-in.o
                0x8083bac4                utf16_strnlen
 .text.utf16_utf8_strnlen
                0x8083bae8       0x42 lib/built-in.o
                0x8083bae8                utf16_utf8_strnlen
 .text.utf16_utf8_strncpy
                0x8083bb2a       0x40 lib/built-in.o
                0x8083bb2a                utf16_utf8_strncpy
 *fill*         0x8083bb6a        0x2 
 .text.utf_to_lower
                0x8083bb6c       0x2c lib/built-in.o
                0x8083bb6c                utf_to_lower
 .text.utf_to_upper
                0x8083bb98       0x2c lib/built-in.o
                0x8083bb98                utf_to_upper
 .text.u16_strlen
                0x8083bbc4       0x10 lib/built-in.o
                0x8083bbc4                u16_strlen
 .text.utf16_to_utf8
                0x8083bbd4       0xc6 lib/built-in.o
                0x8083bbd4                utf16_to_utf8
 *fill*         0x8083bc9a        0x2 
 .text.crc16_ccitt
                0x8083bc9c       0x28 lib/built-in.o
                0x8083bc9c                crc16_ccitt
 .text.crc16_ccitt_wd_buf
                0x8083bcc4       0x24 lib/built-in.o
                0x8083bcc4                crc16_ccitt_wd_buf
 .text.fdtdec_get_int
                0x8083bce8       0x1c lib/built-in.o
                0x8083bce8                fdtdec_get_int
 .text.smbios_write_type127
                0x8083bd04       0x2c lib/built-in.o
 .text.smbios_write_type32
                0x8083bd30       0x2c lib/built-in.o
 .text.smbios_string_table_len
                0x8083bd5c       0x1c lib/built-in.o
 .text.smbios_add_string
                0x8083bd78       0x3a lib/built-in.o
 *fill*         0x8083bdb2        0x2 
 .text.smbios_write_type3
                0x8083bdb4       0x50 lib/built-in.o
 .text.smbios_write_type2
                0x8083be04       0x5c lib/built-in.o
 .text.smbios_write_type0
                0x8083be60       0x90 lib/built-in.o
 .text.smbios_write_type1
                0x8083bef0       0x78 lib/built-in.o
 .text.smbios_write_type4
                0x8083bf68       0x80 lib/built-in.o
 .text.write_smbios_table
                0x8083bfe8       0xac lib/built-in.o
                0x8083bfe8                write_smbios_table
 .text.default_log
                0x8083c094        0x2 lib/built-in.o
 *fill*         0x8083c096        0x2 
 .text.write_sparse_image
                0x8083c098      0x2a8 lib/built-in.o
                0x8083c098                write_sparse_image
 .text.MD5Transform
                0x8083c340      0x6c4 lib/built-in.o
 .text.MD5Update
                0x8083ca04       0x90 lib/built-in.o
 .text.MD5Final
                0x8083ca94       0x68 lib/built-in.o
 .text.md5_wd   0x8083cafc       0x64 lib/built-in.o
                0x8083cafc                md5_wd
 .text.string_to_ip
                0x8083cb60       0x48 lib/built-in.o
                0x8083cb60                string_to_ip
 .text.rb_insert_color
                0x8083cba8       0xce lib/built-in.o
                0x8083cba8                rb_insert_color
 .text.rb_next_postorder
                0x8083cc76       0x2a lib/built-in.o
                0x8083cc76                rb_next_postorder
 .text.rb_first_postorder
                0x8083cca0       0x16 lib/built-in.o
                0x8083cca0                rb_first_postorder
 .text.merge    0x8083ccb6       0x38 lib/built-in.o
 *fill*         0x8083ccee        0x2 
 .text.list_sort
                0x8083ccf0       0xf0 lib/built-in.o
                0x8083ccf0                list_sort
 .text.sha1_process
                0x8083cde0      0xf7c lib/built-in.o
 .text.sha1_update.part.0
                0x8083dd5c       0x82 lib/built-in.o
 *fill*         0x8083ddde        0x2 
 .text.sha1_starts
                0x8083dde0       0x34 lib/built-in.o
                0x8083dde0                sha1_starts
 .text.sha1_update
                0x8083de14        0x8 lib/built-in.o
                0x8083de14                sha1_update
 .text.sha1_finish
                0x8083de1c       0x9c lib/built-in.o
                0x8083de1c                sha1_finish
 .text.sha1_csum_wd
                0x8083deb8       0x40 lib/built-in.o
                0x8083deb8                sha1_csum_wd
 .text.sha256_process
                0x8083def8     0x1f20 lib/built-in.o
 .text.sha256_update.part.0
                0x8083fe18       0x82 lib/built-in.o
 *fill*         0x8083fe9a        0x2 
 .text.sha256_starts
                0x8083fe9c       0x50 lib/built-in.o
                0x8083fe9c                sha256_starts
 .text.sha256_update
                0x8083feec        0x8 lib/built-in.o
                0x8083feec                sha256_update
 .text.sha256_finish
                0x8083fef4       0xd8 lib/built-in.o
                0x8083fef4                sha256_finish
 .text.sha256_csum_wd
                0x8083ffcc       0x40 lib/built-in.o
                0x8083ffcc                sha256_csum_wd
 .text.zcalloc  0x8084000c        0x8 lib/built-in.o
                0x8084000c                zcalloc
 .text.zcfree   0x80840014        0x6 lib/built-in.o
                0x80840014                zcfree
 *fill*         0x8084001a        0x2 
 .text.inflate_fast
                0x8084001c      0x390 lib/built-in.o
                0x8084001c                inflate_fast
 .text.inflate_table
                0x808403ac      0x328 lib/built-in.o
                0x808403ac                inflate_table
 .text.inflateReset
                0x808406d4       0x46 lib/built-in.o
                0x808406d4                inflateReset
 *fill*         0x8084071a        0x2 
 .text.inflateInit2_
                0x8084071c       0x98 lib/built-in.o
                0x8084071c                inflateInit2_
 .text.inflateEnd
                0x808407b4       0x36 lib/built-in.o
                0x808407b4                inflateEnd
 .text.adler32  0x808407ea      0x230 lib/built-in.o
                0x808407ea                adler32
 *fill*         0x80840a1a        0x2 
 .text.inflate  0x80840a1c      0xd18 lib/built-in.o
                0x80840a1c                inflate
 .text.gzalloc  0x80841734        0xe lib/built-in.o
                0x80841734                gzalloc
 .text.gzfree   0x80841742        0x6 lib/built-in.o
                0x80841742                gzfree
 .text.gzip_parse_header
                0x80841748       0x70 lib/built-in.o
                0x80841748                gzip_parse_header
 .text.zunzip   0x808417b8       0xac lib/built-in.o
                0x808417b8                zunzip
 .text.gunzip   0x80841864       0x2c lib/built-in.o
                0x80841864                gunzip
 .text.lzop_is_valid_header
                0x80841890       0x24 lib/built-in.o
                0x80841890                lzop_is_valid_header
 .text.lzo1x_decompress_safe
                0x808418b4      0x432 lib/built-in.o
                0x808418b4                lzo1x_decompress_safe
 .text.lzop_decompress
                0x80841ce6       0xe0 lib/built-in.o
                0x80841ce6                lzop_decompress
 .text.get_prop_check_min_len
                0x80841dc6       0x26 lib/built-in.o
 .text.fdtdec_get_is_enabled
                0x80841dec       0x28 lib/built-in.o
                0x80841dec                fdtdec_get_is_enabled
 .text.fdtdec_get_alias_seq
                0x80841e14       0xac lib/built-in.o
                0x80841e14                fdtdec_get_alias_seq
 .text.fdtdec_get_alias_highest_id
                0x80841ec0       0x78 lib/built-in.o
                0x80841ec0                fdtdec_get_alias_highest_id
 .text.fdtdec_get_chosen_prop
                0x80841f38       0x24 lib/built-in.o
                0x80841f38                fdtdec_get_chosen_prop
 .text.fdtdec_get_chosen_node
                0x80841f5c       0x1c lib/built-in.o
                0x80841f5c                fdtdec_get_chosen_node
 .text.fdtdec_prepare_fdt
                0x80841f78       0x30 lib/built-in.o
                0x80841f78                fdtdec_prepare_fdt
 .text.fdtdec_get_int_array
                0x80841fa8       0x36 lib/built-in.o
                0x80841fa8                fdtdec_get_int_array
 .text.fdtdec_parse_phandle_with_args
                0x80841fde       0xca lib/built-in.o
                0x80841fde                fdtdec_parse_phandle_with_args
 .text.fdtdec_get_config_int
                0x808420a8       0x28 lib/built-in.o
                0x808420a8                fdtdec_get_config_int
 .text.fdtdec_get_config_string
                0x808420d0       0x28 lib/built-in.o
                0x808420d0                fdtdec_get_config_string
 .text.fdtdec_get_number
                0x808420f8       0x1a lib/built-in.o
                0x808420f8                fdtdec_get_number
 .text.fdt_get_resource
                0x80842112       0x92 lib/built-in.o
                0x80842112                fdt_get_resource
 .text.fdtdec_setup
                0x808421a4       0x28 lib/built-in.o
                0x808421a4                fdtdec_setup
 .text.qsort    0x808421cc       0x94 lib/built-in.o
                0x808421cc                qsort
 .text.strcmp_compar
                0x80842260        0x8 lib/built-in.o
                0x80842260                strcmp_compar
 .text.cmpkey   0x80842268        0xc lib/built-in.o
 .text.match_string
                0x80842274       0x5c lib/built-in.o
 .text.match_entry
                0x808422d0       0x7c lib/built-in.o
 .text.drop_var_from_set.part.0
                0x8084234c       0x30 lib/built-in.o
 .text._hdelete.constprop.0
                0x8084237c       0x2e lib/built-in.o
 *fill*         0x808423aa        0x2 
 .text.hcreate_r
                0x808423ac       0x58 lib/built-in.o
                0x808423ac                hcreate_r
 .text.hdestroy_r
                0x80842404       0x44 lib/built-in.o
                0x80842404                hdestroy_r
 .text.hmatch_r
                0x80842448       0x60 lib/built-in.o
                0x80842448                hmatch_r
 .text.hsearch_r
                0x808424a8      0x268 lib/built-in.o
                0x808424a8                hsearch_r
 .text.hdelete_r
                0x80842710       0x8c lib/built-in.o
                0x80842710                hdelete_r
 .text.hexport_r
                0x8084279c      0x1a4 lib/built-in.o
                0x8084279c                hexport_r
 .text.himport_r
                0x80842940      0x250 lib/built-in.o
                0x80842940                himport_r
 .text.hwalk_r  0x80842b90       0x30 lib/built-in.o
                0x80842b90                hwalk_r
 .text.display_options_get_banner_priv
                0x80842bc0       0x60 lib/built-in.o
                0x80842bc0                display_options_get_banner_priv
 .text.display_options_get_banner
                0x80842c20        0xa lib/built-in.o
                0x80842c20                display_options_get_banner
 *fill*         0x80842c2a        0x2 
 .text.display_options
                0x80842c2c       0x24 lib/built-in.o
                0x80842c2c                display_options
 .text.print_size
                0x80842c50      0x128 lib/built-in.o
                0x80842c50                print_size
 .text.print_buffer
                0x80842d78      0x120 lib/built-in.o
                0x80842d78                print_buffer
 .text.crc32_wd
                0x80842e98       0x32 lib/built-in.o
                0x80842e98                crc32_wd
 .text.crc32_wd_buf
                0x80842eca       0x22 lib/built-in.o
                0x80842eca                crc32_wd_buf
 .text.crc32c_cal
                0x80842eec       0x1c lib/built-in.o
                0x80842eec                crc32c_cal
 .text.crc32c_init
                0x80842f08       0x26 lib/built-in.o
                0x80842f08                crc32c_init
 .text.__div64_32
                0x80842f2e       0x7a lib/built-in.o
                0x80842f2e                __div64_32
 .text.hang     0x80842fa8       0x18 lib/built-in.o
                0x80842fa8                hang
 .text.kmalloc  0x80842fc0       0x26 lib/built-in.o
                0x80842fc0                kmalloc
 *fill*         0x80842fe6        0x2 
 .text.skip_spaces
                0x80842fe8       0x18 lib/built-in.o
                0x80842fe8                skip_spaces
 .text.strim    0x80843000       0x34 lib/built-in.o
                0x80843000                strim
 .text.lmb_add_region
                0x80843034       0xfa lib/built-in.o
 .text.lmb_overlaps_region
                0x8084312e       0x36 lib/built-in.o
 .text.lmb_dump_all
                0x80843164        0x2 lib/built-in.o
                0x80843164                lmb_dump_all
 .text.lmb_add  0x80843166        0x4 lib/built-in.o
                0x80843166                lmb_add
 .text.lmb_free
                0x8084316a       0x88 lib/built-in.o
                0x8084316a                lmb_free
 .text.lmb_reserve
                0x808431f2        0x6 lib/built-in.o
                0x808431f2                lmb_reserve
 .text.__lmb_alloc_base
                0x808431f8       0x96 lib/built-in.o
                0x808431f8                __lmb_alloc_base
 *fill*         0x8084328e        0x2 
 .text.lmb_alloc_base
                0x80843290       0x20 lib/built-in.o
                0x80843290                lmb_alloc_base
 .text.lmb_alloc
                0x808432b0        0x6 lib/built-in.o
                0x808432b0                lmb_alloc
 .text.lmb_alloc_addr
                0x808432b6       0x3c lib/built-in.o
                0x808432b6                lmb_alloc_addr
 .text.lmb_get_free_size
                0x808432f2       0x48 lib/built-in.o
                0x808432f2                lmb_get_free_size
 .text.board_lmb_reserve
                0x8084333a        0x2 lib/built-in.o
                0x8084333a                board_lmb_reserve
 .text.lmb_init_and_reserve
                0x8084333c       0x44 lib/built-in.o
                0x8084333c                lmb_init_and_reserve
 .text.lmb_init_and_reserve_range
                0x80843380       0x30 lib/built-in.o
                0x80843380                lmb_init_and_reserve_range
 .text.emit     0x808433b0       0x20 lib/built-in.o
 .text.store_char_in_data
                0x808433d0       0x24 lib/built-in.o
 .text.get_escape_char
                0x808433f4       0x54 lib/built-in.o
 .text.relocate
                0x80843448       0x2a lib/built-in.o
 *fill*         0x80843472        0x2 
 .text.match    0x80843474      0x258 lib/built-in.o
 .text.loop_greedy
                0x808436cc       0x5a lib/built-in.o
 .text.loop_non_greedy
                0x80843726       0x52 lib/built-in.o
 .text.fixup_branch.part.0
                0x80843778       0x24 lib/built-in.o
 .text.quantifier
                0x8084379c       0x5c lib/built-in.o
 .text.compile  0x808437f8      0x24c lib/built-in.o
 .text.slre_compile
                0x80843a44       0x74 lib/built-in.o
                0x80843a44                slre_compile
 .text.slre_match
                0x80843ab8       0x5a lib/built-in.o
                0x80843ab8                slre_match
 *fill*         0x80843b12        0x2 
 .text.strncasecmp
                0x80843b14       0x44 lib/built-in.o
                0x80843b14                strncasecmp
 .text.strcasecmp
                0x80843b58        0x8 lib/built-in.o
                0x80843b58                strcasecmp
 .text.strcpy   0x80843b60       0x10 lib/built-in.o
                0x80843b60                strcpy
 .text.strncpy  0x80843b70       0x18 lib/built-in.o
                0x80843b70                strncpy
 .text.strcat   0x80843b88       0x1e lib/built-in.o
                0x80843b88                strcat
 .text.strncat  0x80843ba6       0x28 lib/built-in.o
                0x80843ba6                strncat
 .text.strcmp   0x80843bce       0x16 lib/built-in.o
                0x80843bce                strcmp
 .text.strncmp  0x80843be4       0x22 lib/built-in.o
                0x80843be4                strncmp
 .text.strchr   0x80843c06       0x1a lib/built-in.o
                0x80843c06                strchr
 .text.strlen   0x80843c20       0x10 lib/built-in.o
                0x80843c20                strlen
 .text.strlcpy  0x80843c30       0x2e lib/built-in.o
                0x80843c30                strlcpy
 .text.strrchr  0x80843c5e       0x20 lib/built-in.o
                0x80843c5e                strrchr
 .text.strnlen  0x80843c7e       0x18 lib/built-in.o
                0x80843c7e                strnlen
 .text.strdup   0x80843c96       0x22 lib/built-in.o
                0x80843c96                strdup
 .text.strspn   0x80843cb8       0x20 lib/built-in.o
                0x80843cb8                strspn
 .text.strpbrk  0x80843cd8       0x22 lib/built-in.o
                0x80843cd8                strpbrk
 *fill*         0x80843cfa        0x2 
 .text.strtok   0x80843cfc       0x3c lib/built-in.o
                0x80843cfc                strtok
 .text.strsep   0x80843d38       0x1c lib/built-in.o
                0x80843d38                strsep
 .text.memmove  0x80843d54       0x26 lib/built-in.o
                0x80843d54                memmove
 .text.memcmp   0x80843d7a       0x1e lib/built-in.o
                0x80843d7a                memcmp
 .text.strstr   0x80843d98       0x40 lib/built-in.o
                0x80843d98                strstr
 .text.memchr   0x80843dd8       0x1c lib/built-in.o
                0x80843dd8                memchr
 .text.tick_to_time
                0x80843df4       0x38 lib/built-in.o
 .text.timer_get_us
                0x80843e2c       0x18 lib/built-in.o
                0x80843e2c                timer_get_us
 .text.udelay   0x80843e44       0x24 lib/built-in.o
                0x80843e44                udelay
 .text.hex_dump_to_buffer
                0x80843e68      0x294 lib/built-in.o
                0x80843e68                hex_dump_to_buffer
 .text.print_hex_dump
                0x808440fc       0x94 lib/built-in.o
                0x808440fc                print_hex_dump
 .text.uuid_str_valid
                0x80844190       0x4c lib/built-in.o
                0x80844190                uuid_str_valid
 .text.uuid_str_to_bin
                0x808441dc      0x102 lib/built-in.o
                0x808441dc                uuid_str_to_bin
 *fill*         0x808442de        0x2 
 .text.uuid_bin_to_str
                0x808442e0       0x6c lib/built-in.o
                0x808442e0                uuid_bin_to_str
 .text.gen_rand_uuid
                0x8084434c       0x4e lib/built-in.o
                0x8084434c                gen_rand_uuid
 .text.gen_rand_uuid_str
                0x8084439a       0x1c lib/built-in.o
                0x8084439a                gen_rand_uuid_str
 .text.rand_r   0x808443b6       0x14 lib/built-in.o
                0x808443b6                rand_r
 *fill*         0x808443ca        0x2 
 .text.rand     0x808443cc        0xc lib/built-in.o
                0x808443cc                rand
 .text.panic_finish
                0x808443d8       0x20 lib/built-in.o
 .text.panic_str
                0x808443f8        0xa lib/built-in.o
                0x808443f8                panic_str
 .text.panic    0x80844402       0x14 lib/built-in.o
                0x80844402                panic
 .text.put_dec_trunc
                0x80844416       0x94 lib/built-in.o
 *fill*         0x808444aa        0x2 
 .text.put_dec  0x808444ac      0x100 lib/built-in.o
 .text.number   0x808445ac      0x200 lib/built-in.o
 .text.string16
                0x808447ac       0x9c lib/built-in.o
 .text.string   0x80844848       0xa8 lib/built-in.o
 .text.vsnprintf_internal
                0x808448f0      0x540 lib/built-in.o
 .text.vsnprintf
                0x80844e30        0x4 lib/built-in.o
                0x80844e30                vsnprintf
 .text.vscnprintf
                0x80844e34       0x16 lib/built-in.o
                0x80844e34                vscnprintf
 .text.snprintf
                0x80844e4a       0x1a lib/built-in.o
                0x80844e4a                snprintf
 .text.vsprintf
                0x80844e64        0xc lib/built-in.o
                0x80844e64                vsprintf
 .text.sprintf  0x80844e70       0x1a lib/built-in.o
                0x80844e70                sprintf
 .text.printf   0x80844e8a       0x34 lib/built-in.o
                0x80844e8a                printf
 .text.vprintf  0x80844ebe       0x26 lib/built-in.o
                0x80844ebe                vprintf
 .text.simple_itoa
                0x80844ee4       0x38 lib/built-in.o
                0x80844ee4                simple_itoa
 .text.str2off  0x80844f1c       0x24 lib/built-in.o
                0x80844f1c                str2off
 .text._parse_integer_fixup_radix
                0x80844f40       0x5c lib/built-in.o
 .text.simple_strtoul
                0x80844f9c       0x50 lib/built-in.o
                0x80844f9c                simple_strtoul
 .text.strict_strtoul
                0x80844fec       0x42 lib/built-in.o
                0x80844fec                strict_strtoul
 .text.simple_strtol
                0x8084502e       0x1a lib/built-in.o
                0x8084502e                simple_strtol
 .text.ustrtoul
                0x80845048       0x4c lib/built-in.o
                0x80845048                ustrtoul
 .text.simple_strtoull
                0x80845094       0x64 lib/built-in.o
                0x80845094                simple_strtoull
 .text.ustrtoull
                0x808450f8       0x5c lib/built-in.o
                0x808450f8                ustrtoull
 .text.trailing_strtoln
                0x80845154       0x44 lib/built-in.o
                0x80845154                trailing_strtoln
 .text.trailing_strtol
                0x80845198        0x6 lib/built-in.o
                0x80845198                trailing_strtol
 .text.compute_ip_checksum
                0x8084519e       0x2e net/built-in.o
                0x8084519e                compute_ip_checksum
 .text.ip_checksum_ok
                0x808451cc       0x14 net/built-in.o
                0x808451cc                ip_checksum_ok
 .text.arp_init
                0x808451e0       0x38 net/built-in.o
                0x808451e0                arp_init
 .text.arp_raw_request
                0x80845218       0x94 net/built-in.o
                0x80845218                arp_raw_request
 .text.arp_request
                0x808452ac       0x54 net/built-in.o
                0x808452ac                arp_request
 .text.arp_timeout_check
                0x80845300       0x5c net/built-in.o
                0x80845300                arp_timeout_check
 .text.arp_receive
                0x8084535c      0x174 net/built-in.o
                0x8084535c                arp_receive
 .text.arp_is_waiting
                0x808454d0       0x10 net/built-in.o
                0x808454d0                arp_is_waiting
 .text.dhcp_extended
                0x808454e0      0x184 net/built-in.o
 .text.dhcp_process_options
                0x80845664      0x1c4 net/built-in.o
 .text.dhcp_packet_process_options
                0x80845828       0x64 net/built-in.o
 .text.dhcp_handler
                0x8084588c      0x2a4 net/built-in.o
 .text.bootp_reset
                0x80845b30       0x2c net/built-in.o
                0x80845b30                bootp_reset
 .text.bootp_request
                0x80845b5c      0x1d4 net/built-in.o
                0x80845b5c                bootp_request
 .text.bootp_timeout_handler
                0x80845d30       0x54 net/built-in.o
 .text.dhcp_request
                0x80845d84        0x4 net/built-in.o
                0x80845d84                dhcp_request
 .text.__def_eth_init
                0x80845d88        0x6 net/built-in.o
                0x80845d88                cpu_eth_init
 *fill*         0x80845d8e        0x2 
 .text.eth_set_current_to_next
                0x80845d90       0x10 net/built-in.o
                0x80845d90                eth_set_current_to_next
 .text.eth_set_dev
                0x80845da0        0xc net/built-in.o
                0x80845da0                eth_set_dev
 .text.eth_get_dev_by_name
                0x80845dac       0x4c net/built-in.o
                0x80845dac                eth_get_dev_by_name
 .text.eth_get_dev_by_index
                0x80845df8       0x20 net/built-in.o
                0x80845df8                eth_get_dev_by_index
 .text.eth_get_dev_index
                0x80845e18       0x14 net/built-in.o
                0x80845e18                eth_get_dev_index
 .text.eth_write_hwaddr
                0x80845e2c      0x124 net/built-in.o
                0x80845e2c                eth_write_hwaddr
 .text.on_ethaddr
                0x80845f50       0x68 net/built-in.o
 .text.eth_register
                0x80845fb8       0x48 net/built-in.o
                0x80845fb8                eth_register
 .text.eth_unregister
                0x80846000       0x4c net/built-in.o
                0x80846000                eth_unregister
 .text.eth_initialize
                0x8084604c      0x110 net/built-in.o
                0x8084604c                eth_initialize
 .text.eth_init
                0x8084615c       0x48 net/built-in.o
                0x8084615c                eth_init
 .text.eth_halt
                0x808461a4       0x18 net/built-in.o
                0x808461a4                eth_halt
 .text.eth_send
                0x808461bc       0x24 net/built-in.o
                0x808461bc                eth_send
 .text.eth_rx   0x808461e0       0x14 net/built-in.o
                0x808461e0                eth_rx
 .text.eth_env_get_enetaddr_by_index
                0x808461f4       0x2c net/built-in.o
                0x808461f4                eth_env_get_enetaddr_by_index
 .text.eth_env_set_enetaddr_by_index
                0x80846220       0x2c net/built-in.o
                0x80846220                eth_env_set_enetaddr_by_index
 .text.eth_common_init
                0x8084624c       0x14 net/built-in.o
                0x8084624c                eth_common_init
 .text.eth_mac_skip
                0x80846260       0x2c net/built-in.o
                0x80846260                eth_mac_skip
 .text.eth_get_name
                0x8084628c       0x18 net/built-in.o
                0x8084628c                eth_get_name
 .text.eth_current_changed
                0x808462a4       0x5c net/built-in.o
                0x808462a4                eth_current_changed
 .text.eth_try_another
                0x80846300       0x54 net/built-in.o
                0x80846300                eth_try_another
 .text.eth_set_current
                0x80846354       0x58 net/built-in.o
                0x80846354                eth_set_current
 .text.net_clear_handlers
                0x808463ac       0x24 net/built-in.o
 .text.start_again_timeout_handler
                0x808463d0        0xc net/built-in.o
 .text.dummy_handler
                0x808463dc        0x2 net/built-in.o
 *fill*         0x808463de        0x2 
 .text.on_ipaddr
                0x808463e0       0x18 net/built-in.o
 .text.on_gatewayip
                0x808463f8       0x18 net/built-in.o
 .text.on_netmask
                0x80846410       0x18 net/built-in.o
 .text.on_serverip
                0x80846428       0x18 net/built-in.o
 .text.net_init_loop
                0x80846440       0x1c net/built-in.o
 .text.net_init
                0x8084645c       0x50 net/built-in.o
                0x8084645c                net_init
 .text.net_start_again
                0x808464ac       0xec net/built-in.o
                0x808464ac                net_start_again
 .text.net_set_udp_handler
                0x80846598       0x18 net/built-in.o
                0x80846598                net_set_udp_handler
 .text.net_get_arp_handler
                0x808465b0        0xc net/built-in.o
                0x808465b0                net_get_arp_handler
 .text.net_set_timeout_handler
                0x808465bc       0x3c net/built-in.o
                0x808465bc                net_set_timeout_handler
 .text.net_get_async_tx_pkt_buf
                0x808465f8       0x1c net/built-in.o
                0x808465f8                net_get_async_tx_pkt_buf
 .text.net_process_received_packet
                0x80846614      0x1e8 net/built-in.o
                0x80846614                net_process_received_packet
 .text.net_eth_hdr_size
                0x808467fc       0x28 net/built-in.o
                0x808467fc                net_eth_hdr_size
 .text.net_set_ether
                0x80846824       0x70 net/built-in.o
                0x80846824                net_set_ether
 .text.net_update_ether
                0x80846894       0x54 net/built-in.o
                0x80846894                net_update_ether
 .text.net_set_ip_header
                0x808468e8       0x74 net/built-in.o
                0x808468e8                net_set_ip_header
 .text.net_set_udp_header
                0x8084695c       0x58 net/built-in.o
                0x8084695c                net_set_udp_header
 .text.net_send_ip_packet
                0x808469b4       0xbc net/built-in.o
                0x808469b4                net_send_ip_packet
 .text.net_send_udp_packet
                0x80846a70       0x1c net/built-in.o
                0x80846a70                net_send_udp_packet
 .text.copy_filename
                0x80846a8c       0x30 net/built-in.o
                0x80846a8c                copy_filename
 .text.is_serverip_in_cmd
                0x80846abc       0x18 net/built-in.o
                0x80846abc                is_serverip_in_cmd
 .text.net_check_prereq
                0x80846ad4       0xc0 net/built-in.o
 .text.net_auto_load
                0x80846b94       0x68 net/built-in.o
                0x80846b94                net_auto_load
 .text.net_loop
                0x80846bfc      0x1b8 net/built-in.o
                0x80846bfc                net_loop
 .text.net_parse_bootfile
                0x80846db4       0x50 net/built-in.o
                0x80846db4                net_parse_bootfile
 .text.ip_to_string
                0x80846e04       0x28 net/built-in.o
                0x80846e04                ip_to_string
 .text.string_to_vlan
                0x80846e2c       0x28 net/built-in.o
                0x80846e2c                string_to_vlan
 .text.on_nvlan
                0x80846e54       0x18 net/built-in.o
 .text.on_vlan  0x80846e6c       0x18 net/built-in.o
 .text.rpc_lookup_reply
                0x80846e84       0x68 net/built-in.o
 .text.nfs_mount_reply
                0x80846eec       0x60 net/built-in.o
 .text.nfs_umountall_reply
                0x80846f4c       0x58 net/built-in.o
 .text.nfs_lookup_reply
                0x80846fa4       0xac net/built-in.o
 .text.nfs3_get_attributes_offset
                0x80847050        0xc net/built-in.o
 .text.nfs_readlink_reply
                0x8084705c       0xac net/built-in.o
 .text.basename
                0x80847108       0x20 net/built-in.o
 .text.rpc_req  0x80847128       0xc4 net/built-in.o
 .text.nfs_mount_req
                0x808471ec       0x88 net/built-in.o
 .text.nfs_read_reply.constprop.0
                0x80847274       0xe0 net/built-in.o
 .text.nfs_readlink_req
                0x80847354       0x84 net/built-in.o
 .text.nfs_read_req
                0x808473d8       0xa8 net/built-in.o
 .text.nfs_lookup_req
                0x80847480      0x10c net/built-in.o
 .text.nfs_umountall_req
                0x8084758c       0x54 net/built-in.o
 .text.nfs_send
                0x808475e0       0xe8 net/built-in.o
 .text.nfs_handler
                0x808476c8      0x178 net/built-in.o
 .text.nfs_timeout_handler
                0x80847840       0x4c net/built-in.o
 .text.nfs_start
                0x8084788c      0x164 net/built-in.o
                0x8084788c                nfs_start
 .text.ping_timeout_handler
                0x808479f0       0x14 net/built-in.o
 .text.ping_start
                0x80847a04       0xc4 net/built-in.o
                0x80847a04                ping_start
 .text.ping_receive
                0x80847ac8       0xbc net/built-in.o
                0x80847ac8                ping_receive
 .text.tftp_send
                0x80847b84      0x124 net/built-in.o
 .text.tftp_handler
                0x80847ca8      0x28c net/built-in.o
 .text.tftp_timeout_handler
                0x80847f34       0x64 net/built-in.o
 .text.tftp_start
                0x80847f98      0x28c net/built-in.o
                0x80847f98                tftp_start
 .text.__udivsi3
                0x80848224       0x9c arch/arm/lib/lib.a(lib1funcs.o)
                0x80848224                __udivsi3
                0x80848224                __aeabi_uidiv
 .text.__divsi3
                0x808482c0       0xcc arch/arm/lib/lib.a(lib1funcs.o)
                0x808482c0                __aeabi_idiv
                0x808482c0                __divsi3
 .text.__aeabi_uidivmod
                0x8084838c       0x30 arch/arm/lib/lib.a(lib1funcs.o)
                0x8084838c                __aeabi_uidivmod
                0x808483a4                __aeabi_idivmod
 .text.Ldiv0    0x808483bc       0x10 arch/arm/lib/lib.a(lib1funcs.o)
 .text.__aeabi_uldivmod
                0x808483cc      0x188 arch/arm/lib/lib.a(uldivmod.o)
                0x808483cc                __aeabi_uldivmod
 .text.__div0   0x80848554        0x4 arch/arm/lib/lib.a(div0.o)
                0x80848554                __div0
                0x80848558                        . = ALIGN (0x4)

.rodata         0x80848558    0x1d7dc
 *(SORT_BY_ALIGNMENT(SORT_BY_NAME(.rodata*)))
 .rodata        0x80848558       0x20 fs/built-in.o
 .rodata.efi_block_io_guid
                0x80848578       0x10 lib/built-in.o
                0x80848578                efi_block_io_guid
 .rodata.efi_file_handle_protocol
                0x80848588       0x30 lib/built-in.o
 .rodata.efi_file_info_guid
                0x808485b8       0x10 lib/built-in.o
                0x808485b8                efi_file_info_guid
 .rodata.efi_file_system_info_guid
                0x808485c8       0x10 lib/built-in.o
                0x808485c8                efi_file_system_info_guid
 .rodata.efi_global_variable_guid
                0x808485d8       0x10 lib/built-in.o
                0x808485d8                efi_global_variable_guid
 .rodata.efi_guid_device_path
                0x808485e8       0x10 lib/built-in.o
                0x808485e8                efi_guid_device_path
 .rodata.efi_guid_device_path_to_text_protocol
                0x808485f8       0x10 lib/built-in.o
                0x808485f8                efi_guid_device_path_to_text_protocol
 .rodata.efi_guid_device_path_utilities_protocol
                0x80848608       0x10 lib/built-in.o
                0x80848608                efi_guid_device_path_utilities_protocol
 .rodata.efi_guid_driver_binding_protocol
                0x80848618       0x10 lib/built-in.o
                0x80848618                efi_guid_driver_binding_protocol
 .rodata.efi_guid_event_group_exit_boot_services
                0x80848628       0x10 lib/built-in.o
                0x80848628                efi_guid_event_group_exit_boot_services
 .rodata.efi_guid_event_group_reset_system
                0x80848638       0x10 lib/built-in.o
                0x80848638                efi_guid_event_group_reset_system
 .rodata.efi_guid_fdt
                0x80848648       0x10 lib/built-in.o
                0x80848648                efi_guid_fdt
 .rodata.efi_guid_loaded_image
                0x80848658       0x10 lib/built-in.o
                0x80848658                efi_guid_loaded_image
 .rodata.efi_guid_text_input_ex_protocol
                0x80848668       0x10 lib/built-in.o
                0x80848668                efi_guid_text_input_ex_protocol
 .rodata.efi_guid_text_input_protocol
                0x80848678       0x10 lib/built-in.o
                0x80848678                efi_guid_text_input_protocol
 .rodata.efi_guid_text_output_protocol
                0x80848688       0x10 lib/built-in.o
                0x80848688                efi_guid_text_output_protocol
 .rodata.efi_guid_unicode_collation_protocol
                0x80848698       0x10 lib/built-in.o
                0x80848698                efi_guid_unicode_collation_protocol
 .rodata.efi_net_guid
                0x808486a8       0x10 lib/built-in.o
 .rodata.efi_pxe_guid
                0x808486b8       0x10 lib/built-in.o
 .rodata.efi_simple_file_system_protocol_guid
                0x808486c8       0x10 lib/built-in.o
                0x808486c8                efi_simple_file_system_protocol_guid
 .rodata.efi_u_boot_guid
                0x808486d8       0x10 lib/built-in.o
                0x808486d8                efi_u_boot_guid
 .rodata.partition_basic_data_guid
                0x808486e8       0x10 disk/built-in.o
 .rodata.smbios_guid
                0x808486f8       0x10 lib/built-in.o
 .rodata.system_guid
                0x80848708       0x10 disk/built-in.o
 .rodata        0x80848718       0x80 arch/arm/lib/built-in.o
 .rodata        0x80848798       0x3c drivers/built-in.o
 .rodata.CSWTCH.18
                0x808487d4       0x1c drivers/usb/musb-new/built-in.o
 .rodata.CSWTCH.183
                0x808487f0       0x74 common/built-in.o
 .rodata.CSWTCH.23
                0x80848864       0x14 cmd/built-in.o
 .rodata.CSWTCH.30
                0x80848878       0x20 disk/built-in.o
 .rodata.CSWTCH.32
                0x80848898       0x20 common/built-in.o
 .rodata.CSWTCH.53
                0x808488b8       0x1c cmd/built-in.o
 .rodata.am33xx_ctrl
                0x808488d4      0x1c8 arch/arm/mach-omap2/built-in.o
                0x808488d4                am33xx_ctrl
 .rodata.boot_os
                0x80848a9c       0x60 common/built-in.o
 .rodata.bootm_args.0
                0x80848afc        0xc drivers/built-in.o
 .rodata.color  0x80848b08       0x40 lib/built-in.o
 .rodata.commands
                0x80848b48       0x50 drivers/built-in.o
 .rodata.desc_and_len_tbl
                0x80848b98       0x30 cmd/built-in.o
 .rodata.dev_types
                0x80848bc8       0x10 arch/arm/mach-omap2/built-in.o
 .rodata.dfu_state
                0x80848bd8       0x2c drivers/usb/gadget/built-in.o
 .rodata.efi_device_path_to_text
                0x80848c04        0x8 lib/built-in.o
                0x80848c04                efi_device_path_to_text
 .rodata.efi_device_path_utilities
                0x80848c0c       0x20 lib/built-in.o
                0x80848c0c                efi_device_path_utilities
 .rodata.efi_unicode_collation_protocol
                0x80848c2c       0x1c lib/built-in.o
                0x80848c2c                efi_unicode_collation_protocol
 .rodata.efi_var_attrs
                0x80848c48       0x28 cmd/built-in.o
 .rodata.env_flags_varaccess_mask
                0x80848c70       0x10 env/built-in.o
 .rodata.ext_csd_bus_width
                0x80848c80       0x3c drivers/built-in.o
 .rodata.fbase  0x80848cbc       0x10 drivers/built-in.o
 .rodata.fdt_errtable
                0x80848ccc       0x48 lib/built-in.o
 .rodata.fdt_member_table
                0x80848d14       0x28 cmd/built-in.o
 .rodata.freqs.3
                0x80848d3c       0x34 drivers/built-in.o
 .rodata.generic_simple_bus_ids
                0x80848d70       0x18 drivers/built-in.o
 .rodata.getvar_dispatch
                0x80848d88       0x68 drivers/built-in.o
 .rodata.gpio_function
                0x80848df0       0x14 drivers/gpio/built-in.o
 .rodata.gpio_omap_ops
                0x80848e04       0x28 drivers/gpio/built-in.o
 .rodata.hwcaps_pp2cmd.3
                0x80848e2c       0x38 drivers/mtd/spi/built-in.o
 .rodata.hwcaps_read2cmd.4
                0x80848e64       0x78 drivers/mtd/spi/built-in.o
 .rodata.init_sequence_f
                0x80848edc       0xcc common/built-in.o
 .rodata.keywords
                0x80848fa8       0x98 cmd/built-in.o
 .rodata.machines
                0x80849040       0x10 lib/built-in.o
 .rodata.mmc_modes_by_pref
                0x80849050       0x20 drivers/built-in.o
 .rodata.mmc_versions.2
                0x80849070       0x24 drivers/built-in.o
 .rodata.mon_lengths.2
                0x80849094       0x60 fs/built-in.o
 .rodata.musb_ep_ops
                0x808490f4       0x28 drivers/usb/musb-new/built-in.o
 .rodata.musb_g_ep0_ops
                0x8084911c       0x28 drivers/usb/musb-new/built-in.o
                0x8084911c                musb_g_ep0_ops
 .rodata.musb_gadget_operations
                0x80849144       0x24 drivers/usb/musb-new/built-in.o
 .rodata.names.4
                0x80849168       0x34 drivers/built-in.o
 .rodata.ns16550_serial_ids
                0x8084919c       0x30 drivers/serial/built-in.o
 .rodata.ns16550_serial_ops
                0x808491cc       0x20 drivers/serial/built-in.o
                0x808491cc                ns16550_serial_ops
 .rodata.oid_supported_list
                0x808491ec       0x70 drivers/usb/gadget/built-in.o
 .rodata.omap_gpio_ids
                0x8084925c       0x20 drivers/gpio/built-in.o
 .rodata.omap_hsmmc_ops
                0x8084927c       0x14 drivers/built-in.o
 .rodata.omap_i2c_ids
                0x80849290       0x18 drivers/i2c/built-in.o
 .rodata.omap_i2c_ops
                0x808492a8       0x18 drivers/i2c/built-in.o
 .rodata.omap_serial_ids
                0x808492c0       0x40 drivers/serial/built-in.o
 .rodata.op_adv
                0x80849300      0x100 cmd/built-in.o
                0x80849300                op_adv
 .rodata.op_table
                0x80849400       0x68 cmd/built-in.o
 .rodata.reg_0_5_desc_tbl
                0x80849468       0x30 cmd/built-in.o
 .rodata.reg_0_desc_tbl
                0x80849498       0x78 cmd/built-in.o
 .rodata.reg_1_desc_tbl
                0x80849510       0xc0 cmd/built-in.o
 .rodata.reg_2_desc_tbl
                0x808495d0        0xc cmd/built-in.o
 .rodata.reg_3_desc_tbl
                0x808495dc       0x24 cmd/built-in.o
 .rodata.reg_4_desc_tbl
                0x80849600       0x90 cmd/built-in.o
 .rodata.reg_5_desc_tbl
                0x80849690       0x90 cmd/built-in.o
 .rodata.root_info
                0x80849720        0x8 drivers/built-in.o
 .rodata.sd_au_size.1
                0x80849728       0x40 drivers/built-in.o
 .rodata.sd_modes_by_pref
                0x80849768       0x10 drivers/built-in.o
 .rodata.smbios_write_funcs
                0x80849778       0x1c lib/built-in.o
 .rodata.spi_nor_ids
                0x80849794      0x2a0 drivers/mtd/spi/built-in.o
                0x80849794                spi_nor_ids
 .rodata.subcmd_list
                0x80849a34       0x10 cmd/built-in.o
 .rodata.uimage_arch
                0x80849a44      0x144 common/built-in.o
 .rodata.uimage_comp
                0x80849b88       0x54 common/built-in.o
 .rodata.uimage_os
                0x80849bdc       0x90 common/built-in.o
 .rodata.uimage_type
                0x80849c6c      0x1d4 common/built-in.o
 .rodata.year_lengths.3
                0x80849e40        0x8 fs/built-in.o
 .rodata.codepage
                0x80849e48      0x100 lib/built-in.o
 .rodata.crc16_tab
                0x80849f48      0x200 lib/built-in.o
 .rodata.crc16_table
                0x8084a148      0x200 fs/built-in.o
 .rodata.dbase.2
                0x8084a348       0x40 lib/built-in.o
 .rodata.dext.1
                0x8084a388       0x40 lib/built-in.o
 .rodata.distfix
                0x8084a3c8       0x80 lib/built-in.o
 .rodata.efi_bootmgr_load.str2.2
                0x8084a448       0x48 lib/built-in.o
 .rodata.enc_initdata
                0x8084a490       0x42 drivers/net/built-in.o
 .rodata.lbase.4
                0x8084a4d2       0x3e lib/built-in.o
 .rodata.lenfix
                0x8084a510      0x800 lib/built-in.o
 .rodata.lext.3
                0x8084ad10       0x3e lib/built-in.o
 .rodata.order.0
                0x8084ad4e       0x26 lib/built-in.o
 .rodata.string16.str2.2
                0x8084ad74        0xe lib/built-in.o
 .rodata        0x8084ad82       0x20 lib/built-in.o
 .rodata        0x8084ada2        0x7 net/built-in.o
 .rodata.All_Test_Cases.str1.1
                0x8084ada9      0x345 board/ti/am335x/built-in.o
                                0x387 (size before relaxing)
 .rodata.CSWTCH.22
                0x8084b0ee        0x3 drivers/serial/built-in.o
 .rodata.CSWTCH.65
                0x8084b0f1       0x16 common/built-in.o
 .rodata.END    0x8084b107        0x4 lib/built-in.o
 .rodata.ROOT   0x8084b10b       0x14 lib/built-in.o
 .rodata.__FUNCTION__.0
                0x8084b11f       0x17 common/built-in.o
 .rodata.__FUNCTION__.2
                0x8084b136       0x17 common/built-in.o
 .rodata.__func__.0
                0x8084b14d       0x15 board/ti/am335x/built-in.o
 .rodata.__func__.0
                0x8084b162        0x7 cmd/built-in.o
 .rodata.__func__.0
                0x8084b169       0x23 common/built-in.o
 .rodata.__func__.0
                0x8084b18c       0x31 disk/built-in.o
 .rodata.__func__.0
                0x8084b1bd       0x6e drivers/built-in.o
 .rodata.__func__.0
                0x8084b22b        0xf drivers/i2c/built-in.o
 .rodata.__func__.0
                0x8084b23a       0x11 drivers/net/phy/built-in.o
 .rodata.__func__.0
                0x8084b24b       0x18 drivers/usb/gadget/built-in.o
 .rodata.__func__.0
                0x8084b263       0x2e drivers/usb/musb-new/built-in.o
 .rodata.__func__.0
                0x8084b291       0xc8 fs/built-in.o
 .rodata.__func__.0
                0x8084b359       0x4f lib/built-in.o
 .rodata.__func__.0
                0x8084b3a8       0x14 net/built-in.o
 .rodata.__func__.1
                0x8084b3bc       0x13 disk/built-in.o
 .rodata.__func__.1
                0x8084b3cf       0x43 drivers/built-in.o
 .rodata.__func__.1
                0x8084b412        0xc drivers/i2c/built-in.o
 .rodata.__func__.1
                0x8084b41e       0x28 drivers/usb/gadget/built-in.o
 .rodata.__func__.1
                0x8084b446        0xf drivers/usb/musb-new/built-in.o
 .rodata.__func__.1
                0x8084b455       0x6c fs/built-in.o
 .rodata.__func__.1
                0x8084b4c1        0xc lib/built-in.o
 .rodata.__func__.10
                0x8084b4cd        0xe disk/built-in.o
 .rodata.__func__.2
                0x8084b4db        0xc disk/built-in.o
 .rodata.__func__.2
                0x8084b4e7       0x3c drivers/built-in.o
 .rodata.__func__.2
                0x8084b523       0x10 drivers/usb/musb-new/built-in.o
 .rodata.__func__.2
                0x8084b533       0x2d fs/built-in.o
 .rodata.__func__.3
                0x8084b560       0x18 common/built-in.o
 .rodata.__func__.3
                0x8084b578       0x13 disk/built-in.o
 .rodata.__func__.3
                0x8084b58b       0x4d drivers/built-in.o
 .rodata.__func__.3
                0x8084b5d8       0x14 drivers/usb/musb-new/built-in.o
 .rodata.__func__.3
                0x8084b5ec       0x17 fs/built-in.o
 .rodata.__func__.4
                0x8084b603       0x12 disk/built-in.o
 .rodata.__func__.4
                0x8084b615       0x2d drivers/built-in.o
 .rodata.__func__.4
                0x8084b642        0xf drivers/usb/musb-new/built-in.o
 .rodata.__func__.5
                0x8084b651       0x27 drivers/built-in.o
 .rodata.__func__.5
                0x8084b678       0x11 fs/built-in.o
 .rodata.__func__.6
                0x8084b689        0xd disk/built-in.o
 .rodata.__func__.6
                0x8084b696       0x1d drivers/built-in.o
 .rodata.__func__.6
                0x8084b6b3        0xc fs/built-in.o
 .rodata.__func__.7
                0x8084b6bf        0xf disk/built-in.o
 .rodata.__func__.8
                0x8084b6ce       0x17 disk/built-in.o
 .rodata.__func__.9
                0x8084b6e5        0xd disk/built-in.o
 .rodata.__omap24_i2c_setspeed.str1.1
                0x8084b6f2       0x4c drivers/i2c/built-in.o
 .rodata._cpsw_register.str1.1
                0x8084b73e       0x33 drivers/net/built-in.o
 .rodata._ctype
                0x8084b771      0x100 lib/built-in.o
                0x8084b771                _ctype
 .rodata._do_env_set.str1.1
                0x8084b871       0x7c cmd/built-in.o
 .rodata._do_help.str1.1
                0x8084b8ed       0x5f common/built-in.o
 .rodata.acm_descriptor
                0x8084b94c        0x4 drivers/usb/gadget/built-in.o
 .rodata.add_chunk_mapping.str1.1
                0x8084b950       0x3b fs/built-in.o
 .rodata.android_image_check_header.str1.1
                0x8084b98b        0x9 common/built-in.o
 .rodata.android_image_get_kernel.str1.1
                0x8084b994       0x8b common/built-in.o
                                 0x96 (size before relaxing)
 .rodata.android_image_get_ramdisk.str1.1
                0x8084ba1f       0x27 common/built-in.o
 .rodata.android_image_get_second.str1.1
                0x8084ba46       0x19 common/built-in.o
 .rodata.android_print_contents.str1.1
                0x8084ba5f      0x126 common/built-in.o
                                0x12a (size before relaxing)
 .rodata.announce_dram_init.str1.1
                0x8084bb85        0x8 common/built-in.o
 .rodata.arp_receive.str1.1
                0x8084bb8d       0x14 net/built-in.o
 .rodata.arp_request.str1.1
                0x8084bba1       0x2a net/built-in.o
 .rodata.arp_timeout_check.str1.1
                0x8084bbcb       0x2b net/built-in.o
 .rodata.autoboot_command.str1.1
                0x8084bbf6       0xea common/built-in.o
 .rodata.b_addqchr.isra.0.str1.1
                0x8084bce0        0x5 common/built-in.o
 .rodata.bad_mode.str1.1
                0x8084bce5       0x13 arch/arm/lib/built-in.o
 .rodata.binary_test.str1.1
                0x8084bcf8       0x17 cmd/built-in.o
 .rodata.blk_common_cmd.str1.1
                0x8084bd0f       0xed cmd/built-in.o
                                0x101 (size before relaxing)
 .rodata.blk_get_device_by_str.str1.1
                0x8084bdfc       0x52 disk/built-in.o
 .rodata.blk_get_device_part_str.str1.1
                0x8084be4e      0x107 disk/built-in.o
                                0x109 (size before relaxing)
 .rodata.blk_list_devices.str1.1
                0x8084bf55       0x49 drivers/built-in.o
                                  0xc (size before relaxing)
 .rodata.blk_print_device_num.str1.1
                0x8084bf55       0x10 drivers/built-in.o
 .rodata.blk_show_device.str1.1
                0x8084bf65       0x1d drivers/built-in.o
 .rodata.board_eth_init.str1.1
                0x8084bf82       0xa5 board/ti/am335x/built-in.o
 .rodata.board_init.str1.1
                0x8084c027      0x1cb board/ti/am335x/built-in.o
                                0x1cd (size before relaxing)
 .rodata.board_init_f.str1.1
                0x8084c1f2       0x31 common/built-in.o
 .rodata.board_init_r.str1.1
                0x8084c223       0x31 common/built-in.o
 .rodata.board_late_init.str1.1
                0x8084c223      0x11b board/ti/am335x/built-in.o
 .rodata.boot_fdt_add_mem_rsv_regions.str1.1
                0x8084c33e       0x52 common/built-in.o
                                 0x56 (size before relaxing)
 .rodata.boot_get_fdt.str1.1
                0x8084c390      0x1b5 common/built-in.o
                                0x1d4 (size before relaxing)
 .rodata.boot_get_fdt_fit.str1.1
                0x8084c545       0x4f common/built-in.o
 .rodata.boot_get_loadable.str1.1
                0x8084c594       0x3e common/built-in.o
 .rodata.boot_get_ramdisk.str1.1
                0x8084c5d2       0xb7 common/built-in.o
                                0x115 (size before relaxing)
 .rodata.boot_get_setup_fit.str1.1
                0x8084c689      0x1c5 common/built-in.o
                                  0x6 (size before relaxing)
 .rodata.boot_jump_linux.str1.1
                0x8084c689       0x5c arch/arm/lib/built-in.o
                                 0x5d (size before relaxing)
 .rodata.boot_prep_linux.str1.1
                0x8084c6e5       0x20 arch/arm/lib/built-in.o
                                 0x29 (size before relaxing)
 .rodata.boot_prep_vxworks.str1.1
                0x8084c705       0x2a arch/arm/lib/built-in.o
 .rodata.boot_ramdisk_high.str1.1
                0x8084c72f       0x54 common/built-in.o
 .rodata.boot_relocate_fdt.str1.1
                0x8084c783       0xcf common/built-in.o
                                 0xd3 (size before relaxing)
 .rodata.bootdelay_process.str1.1
                0x8084c852       0x8f common/built-in.o
                                 0x99 (size before relaxing)
 .rodata.bootm_decomp_image.str1.1
                0x8084c8e1       0x99 common/built-in.o
                                 0xc0 (size before relaxing)
 .rodata.bootm_find_images.str1.1
                0x8084c97a       0x6c common/built-in.o
 .rodata.bootm_maybe_autostart.str1.1
                0x8084c9e6       0x3b cmd/built-in.o
 .rodata.bootp_request.str1.1
                0x8084ca21       0x25 net/built-in.o
 .rodata.bootp_timeout_handler.str1.1
                0x8084ca46       0x26 net/built-in.o
 .rodata.btrfs_chunk_map_init.str1.1
                0x8084ca6c       0x19 fs/built-in.o
 .rodata.btrfs_decompress.str1.1
                0x8084ca85       0x31 fs/built-in.o
 .rodata.btrfs_file_read.str1.1
                0x8084cab6       0x1a fs/built-in.o
 .rodata.btrfs_find_root.str1.1
                0x8084cad0       0x2d fs/built-in.o
 .rodata.btrfs_get_default_subvol_objectid.str1.1
                0x8084cafd        0x8 fs/built-in.o
 .rodata.btrfs_lookup_inode_ref.str1.1
                0x8084cafd       0x1d fs/built-in.o
 .rodata.btrfs_lookup_path.str1.1
                0x8084cb1a       0x51 fs/built-in.o
 .rodata.btrfs_lookup_root_ref.str1.1
                0x8084cb6b       0x1e fs/built-in.o
 .rodata.btrfs_ls.str1.1
                0x8084cb89       0x59 fs/built-in.o
 .rodata.btrfs_map_logical_to_physical.str1.1
                0x8084cbe2       0x31 fs/built-in.o
 .rodata.btrfs_probe.str1.1
                0x8084cc13       0x63 fs/built-in.o
 .rodata.btrfs_read.str1.1
                0x8084cc76       0x28 fs/built-in.o
 .rodata.btrfs_read_superblock.str1.1
                0x8084cc9e      0x397 fs/built-in.o
 .rodata.btrfs_readlink.str1.1
                0x8084d035       0xb2 fs/built-in.o
 .rodata.btrfs_search_tree.str1.1
                0x8084d0e7       0x25 fs/built-in.o
 .rodata.btrfs_size.str1.1
                0x8084d10c       0x2f fs/built-in.o
 .rodata.calculate_hash.str1.1
                0x8084d13b        0x4 common/built-in.o
                                 0x16 (size before relaxing)
 .rodata.call_mgmt_descriptor
                0x8084d13f        0x5 drivers/usb/gadget/built-in.o
 .rodata.check_cache_range.str1.1
                0x8084d144       0x35 arch/arm/lib/built-in.o
 .rodata.check_reserved.str1.1
                0x8084d179       0x27 drivers/gpio/built-in.o
                                 0x28 (size before relaxing)
 .rodata.cli_process_fdt.str1.1
                0x8084d1a0        0xb common/built-in.o
                                 0x13 (size before relaxing)
 .rodata.cli_readline_into_buffer.str1.1
                0x8084d1ab        0x7 common/built-in.o
                                  0x8 (size before relaxing)
 .rodata.cli_secure_boot_cmd.str1.1
                0x8084d1b2       0x50 common/built-in.o
 .rodata.clk_synthesizer_reg_write.str1.1
                0x8084d202       0x33 arch/arm/mach-omap2/built-in.o
 .rodata.cmd_auto_complete.str1.1
                0x8084d235       0x5f common/built-in.o
                                  0xd (size before relaxing)
 .rodata.cmd_process.str1.1
                0x8084d235       0x3f common/built-in.o
 .rodata.cmd_process_error.str1.1
                0x8084d274       0x1f common/built-in.o
 .rodata.cmd_usage.str1.1
                0x8084d293       0x36 common/built-in.o
 .rodata.common_diskboot.str1.1
                0x8084d2c9       0xbf cmd/built-in.o
 .rodata.compile.str1.1
                0x8084d388       0x4a lib/built-in.o
 .rodata.complete_subcmdv.str1.1
                0x8084d3d2       0x5f common/built-in.o
                                  0x4 (size before relaxing)
 .rodata.composite_unbind.str1.1
                0x8084d3d2       0x38 drivers/usb/gadget/built-in.o
 .rodata.cpsw_init.str1.1
                0x8084d40a       0x5c drivers/net/built-in.o
                                 0x66 (size before relaxing)
 .rodata.cpsw_mdio_init.str1.1
                0x8084d466        0x5 drivers/net/built-in.o
                                  0x7 (size before relaxing)
 .rodata.cpsw_register.str1.1
                0x8084d466        0x5 drivers/net/built-in.o
 .rodata.cpsw_send.str1.1
                0x8084d46b       0x17 drivers/net/built-in.o
 .rodata.cread_add_char.str1.1
                0x8084d482      0x170 common/built-in.o
                                  0x5 (size before relaxing)
 .rodata.day_name.1
                0x8084d482       0x15 fs/built-in.o
 .rodata.default_environment
                0x8084d497     0x6675 env/built-in.o
                0x8084d497                default_environment
 .rodata.dev_get_platdata.str1.1
                0x80853b0c       0x11 drivers/built-in.o
 .rodata.dev_print.str1.1
                0x80853b1d      0x165 disk/built-in.o
                                0x176 (size before relaxing)
 .rodata.devfdt_get_addr_index.str1.1
                0x80853c82        0x4 drivers/built-in.o
 .rodata.device_bind_common.constprop.0.str1.1
                0x80853c82       0x5b drivers/built-in.o
 .rodata.device_probe.str1.1
                0x80853cdd       0x30 drivers/built-in.o
 .rodata.device_remove.str1.1
                0x80853d0d       0x98 drivers/built-in.o
 .rodata.dfu_add.str1.1
                0x80853da5        0x4 drivers/usb/gadget/built-in.o
 .rodata.dfu_bind.str1.1
                0x80853da5        0x8 drivers/usb/gadget/built-in.o
 .rodata.dfu_config_entities.str1.1
                0x80853da5       0xaf drivers/built-in.o
                                 0xc9 (size before relaxing)
 .rodata.dfu_fill_entity_mmc.str1.1
                0x80853e54       0xd7 drivers/built-in.o
                                 0xe2 (size before relaxing)
 .rodata.dfu_fill_entity_ram.str1.1
                0x80853f2b       0x18 drivers/built-in.o
                                 0x3c (size before relaxing)
 .rodata.dfu_flush.str1.1
                0x80853f43       0x1a drivers/built-in.o
 .rodata.dfu_func
                0x80853f5d        0x9 drivers/usb/gadget/built-in.o
 .rodata.dfu_get_buf.str1.1
                0x80853f66       0x2f drivers/built-in.o
 .rodata.dfu_init_env_entities.str1.1
                0x80853f95       0x8b drivers/built-in.o
 .rodata.dfu_name
                0x80854020       0x18 drivers/usb/gadget/built-in.o
 .rodata.dfu_read.str1.1
                0x80854038       0x40 drivers/built-in.o
 .rodata.dfu_read_medium_ram.str1.1
                0x80854078       0x36 drivers/built-in.o
 .rodata.dfu_show_entities.str1.1
                0x808540ae       0x3d drivers/built-in.o
 .rodata.dfu_tftp_write.str1.1
                0x808540eb       0x49 drivers/built-in.o
 .rodata.dfu_write.str1.1
                0x80854134       0x4d drivers/built-in.o
 .rodata.dfu_write_buffer_drain.str1.1
                0x80854181        0x2 drivers/built-in.o
 .rodata.dfu_write_from_mem_addr.str1.1
                0x80854181       0x24 drivers/built-in.o
 .rodata.dhcp_extended.str1.1
                0x808541a5       0x37 net/built-in.o
                                 0x48 (size before relaxing)
 .rodata.dhcp_handler.str1.1
                0x808541dc       0x41 net/built-in.o
                                 0x4a (size before relaxing)
 .rodata.dhcp_process_options.str1.1
                0x8085421d       0x78 net/built-in.o
 .rodata.digits.1
                0x80854295       0x10 lib/built-in.o
 .rodata.disk_write.str1.1
                0x808542a5       0x18 fs/built-in.o
 .rodata.display_options.str1.1
                0x808542a5        0x3 lib/built-in.o
 .rodata.display_options_get_banner_priv.str1.1
                0x808542a5        0xc lib/built-in.o
                                 0x15 (size before relaxing)
 .rodata.dm_dump_all.str1.1
                0x808542b1       0x73 drivers/built-in.o
 .rodata.dm_dump_uclass.str1.1
                0x80854324       0x33 drivers/built-in.o
                                 0x35 (size before relaxing)
 .rodata.dm_extended_scan_fdt.str1.1
                0x80854357       0x12 drivers/built-in.o
 .rodata.dm_fdt_pre_reloc.str1.1
                0x80854369       0x30 drivers/built-in.o
 .rodata.dm_gpio_get_value.str1.1
                0x80854399        0xa drivers/gpio/built-in.o
 .rodata.dm_gpio_set_dir_flags.str1.1
                0x808543a3        0x8 drivers/gpio/built-in.o
 .rodata.dm_gpio_set_value.str1.1
                0x808543ab        0xa drivers/gpio/built-in.o
 .rodata.dm_init.str1.1
                0x808543b5       0x25 drivers/built-in.o
 .rodata.dm_root.str1.1
                0x808543da       0x25 drivers/built-in.o
 .rodata.dm_scan_fdt_node.str1.1
                0x808543ff       0x1d drivers/built-in.o
                                 0x2d (size before relaxing)
 .rodata.dm_scan_platdata.str1.1
                0x8085441c       0x1d drivers/built-in.o
 .rodata.do_bdinfo.str1.1
                0x80854439       0xfb cmd/built-in.o
                                0x103 (size before relaxing)
 .rodata.do_bootd.str1.1
                0x80854534       0x2a cmd/built-in.o
                                  0x8 (size before relaxing)
 .rodata.do_bootefi.str1.1
                0x80854534       0xf4 cmd/built-in.o
 .rodata.do_bootefi_exec.str1.1
                0x80854628       0xc0 cmd/built-in.o
                                 0xc9 (size before relaxing)
 .rodata.do_bootelf.str1.1
                0x808546e8       0x4f cmd/built-in.o
                                 0x5c (size before relaxing)
 .rodata.do_bootm.str1.1
                0x80854737       0x2a cmd/built-in.o
 .rodata.do_bootm_netbsd.str1.1
                0x80854761       0x49 common/built-in.o
                                 0x4a (size before relaxing)
 .rodata.do_bootm_plan9.str1.1
                0x808547aa       0x43 common/built-in.o
 .rodata.do_bootm_qnxelf.str1.1
                0x808547ed        0x4 common/built-in.o
 .rodata.do_bootm_rtems.str1.1
                0x808547ed       0x39 common/built-in.o
 .rodata.do_bootm_standalone.str1.1
                0x80854826       0x16 common/built-in.o
 .rodata.do_bootm_states.str1.1
                0x80854826      0x2b0 common/built-in.o
                                0x328 (size before relaxing)
 .rodata.do_bootm_vxworks.str1.1
                0x80854ad6       0x57 common/built-in.o
                                 0x7e (size before relaxing)
 .rodata.do_bootvx.str1.1
                0x80854b2d      0x1b9 cmd/built-in.o
                                0x1d0 (size before relaxing)
 .rodata.do_cape_detect.str1.1
                0x80854ce6      0x78f board/ti/am335x/built-in.o
                                0x7a8 (size before relaxing)
 .rodata.do_coninfo.str1.1
                0x80855475       0x2c cmd/built-in.o
                                 0x30 (size before relaxing)
 .rodata.do_data_abort.str1.1
                0x808554a1        0xc arch/arm/lib/built-in.o
 .rodata.do_dfu.str1.1
                0x808554ad        0xc cmd/built-in.o
                                 0x16 (size before relaxing)
 .rodata.do_echo.str1.1
                0x808554b9        0x3 cmd/built-in.o
 .rodata.do_eeprom.str1.1
                0x808554bc       0x39 cmd/built-in.o
                                 0x4a (size before relaxing)
 .rodata.do_env_ask.str1.1
                0x808554f5       0x14 cmd/built-in.o
 .rodata.do_env_default.str1.1
                0x80855509       0x25 cmd/built-in.o
 .rodata.do_env_edit.str1.1
                0x8085552e        0x7 cmd/built-in.o
                                  0xa (size before relaxing)
 .rodata.do_env_export.str1.1
                0x80855535       0x6b cmd/built-in.o
                                 0x74 (size before relaxing)
 .rodata.do_env_import.str1.1
                0x808555a0      0x139 cmd/built-in.o
                                0x13b (size before relaxing)
 .rodata.do_env_print.str1.1
                0x808556d9       0x3d cmd/built-in.o
 .rodata.do_env_print_efi.str1.1
                0x80855716       0x33 cmd/built-in.o
 .rodata.do_env_set_efi.str1.1
                0x80855749        0xe cmd/built-in.o
 .rodata.do_fastboot.str1.1
                0x80855757       0xbd cmd/built-in.o
                                 0xc1 (size before relaxing)
 .rodata.do_fat_fsinfo.str1.1
                0x80855814       0x56 cmd/built-in.o
 .rodata.do_fat_fswrite.str1.1
                0x8085586a       0x6b cmd/built-in.o
 .rodata.do_fdt.str1.1
                0x808558d5      0x45b cmd/built-in.o
                                0x4ba (size before relaxing)
 .rodata.do_fiq.str1.1
                0x80855d30       0x18 arch/arm/lib/built-in.o
 .rodata.do_fixup_by_path.str1.1
                0x80855d48       0x29 common/built-in.o
 .rodata.do_fs_uuid.str1.1
                0x80855d71        0x4 fs/built-in.o
 .rodata.do_get_any.str1.1
                0x80855d71        0x5 cmd/built-in.o
 .rodata.do_get_ext2.str1.1
                0x80855d71        0x9 cmd/built-in.o
 .rodata.do_get_fat.str1.1
                0x80855d71        0x8 cmd/built-in.o
 .rodata.do_get_tftp.str1.1
                0x80855d71        0x5 cmd/built-in.o
 .rodata.do_go.str1.1
                0x80855d71       0x4f cmd/built-in.o
 .rodata.do_gpio.str1.1
                0x80855dc0       0x9b cmd/built-in.o
                                 0xd2 (size before relaxing)
 .rodata.do_gpt.str1.1
                0x80855e5b       0xd6 cmd/built-in.o
                                 0xef (size before relaxing)
 .rodata.do_i2c_bus_num.str1.1
                0x80855f31       0x26 cmd/built-in.o
                                 0x48 (size before relaxing)
 .rodata.do_i2c_bus_speed.str1.1
                0x80855f57       0x53 cmd/built-in.o
 .rodata.do_i2c_crc.str1.1
                0x80855faa       0x1f cmd/built-in.o
                                 0x26 (size before relaxing)
 .rodata.do_i2c_md.str1.1
                0x80855fc9        0xc cmd/built-in.o
                                 0x16 (size before relaxing)
 .rodata.do_i2c_olen.str1.1
                0x80855fd5       0x1f cmd/built-in.o
                                 0x23 (size before relaxing)
 .rodata.do_i2c_probe.str1.1
                0x80855ff4       0x1c cmd/built-in.o
 .rodata.do_i2c_reset.str1.1
                0x80855ff4       0x24 cmd/built-in.o
 .rodata.do_i2c_show_bus.str1.1
                0x80856018       0x18 cmd/built-in.o
 .rodata.do_i2c_write.str1.1
                0x80856030        0x3 cmd/built-in.o
 .rodata.do_imgextract.str1.1
                0x80856033      0x1af cmd/built-in.o
                                0x296 (size before relaxing)
 .rodata.do_irq.str1.1
                0x808561e2       0x18 arch/arm/lib/built-in.o
                                 0x13 (size before relaxing)
 .rodata.do_itest.str1.1
                0x808561e2       0x1e cmd/built-in.o
 .rodata.do_lcd.str1.1
                0x80856200       0x11 cmd/built-in.o
 .rodata.do_load.str1.1
                0x80856200       0x6d fs/built-in.o
                                 0x8f (size before relaxing)
 .rodata.do_load_serial.str1.1
                0x8085626d       0x6b cmd/built-in.o
 .rodata.do_load_serial_bin.str1.1
                0x808562d8      0x159 cmd/built-in.o
 .rodata.do_load_wrapper.str1.1
                0x80856431        0x1 cmd/built-in.o
 .rodata.do_ls.str1.1
                0x80856431        0x2 fs/built-in.o
 .rodata.do_mdio.str1.1
                0x80856431       0x65 cmd/built-in.o
 .rodata.do_mem_base.str1.1
                0x80856496       0x17 cmd/built-in.o
 .rodata.do_mem_cmp.str1.1
                0x808564ad       0x59 cmd/built-in.o
 .rodata.do_mem_cp.str1.1
                0x80856506       0x11 cmd/built-in.o
 .rodata.do_mem_crc.str1.1
                0x80856517        0x6 cmd/built-in.o
 .rodata.do_mii.str1.1
                0x80856517      0x297 cmd/built-in.o
                                0x2b0 (size before relaxing)
 .rodata.do_mkdir.str1.1
                0x808567ae       0x29 fs/built-in.o
 .rodata.do_mmc_dev.str1.1
                0x808567d7       0x80 cmd/built-in.o
                                 0x83 (size before relaxing)
 .rodata.do_mmc_erase.str1.1
                0x80856857       0x67 cmd/built-in.o
 .rodata.do_mmc_hwpartition.str1.1
                0x808568be      0x126 cmd/built-in.o
                                0x142 (size before relaxing)
 .rodata.do_mmc_part.str1.1
                0x808569e4       0x15 cmd/built-in.o
 .rodata.do_mmc_read.str1.1
                0x808569f9       0x43 cmd/built-in.o
 .rodata.do_mmc_setdsr.str1.1
                0x80856a3c       0x37 cmd/built-in.o
                                 0x3d (size before relaxing)
 .rodata.do_mmc_write.str1.1
                0x80856a73       0x47 cmd/built-in.o
 .rodata.do_mmcinfo.str1.1
                0x80856aba      0x135 cmd/built-in.o
                                0x187 (size before relaxing)
 .rodata.do_mmcops.str1.1
                0x80856bef       0x19 cmd/built-in.o
 .rodata.do_not_used.str1.1
                0x80856c08        0xa arch/arm/lib/built-in.o
 .rodata.do_part.str1.1
                0x80856c12        0x4 cmd/built-in.o
                                 0x15 (size before relaxing)
 .rodata.do_part_info.str1.1
                0x80856c12        0x4 cmd/built-in.o
                                  0x8 (size before relaxing)
 .rodata.do_part_list.str1.1
                0x80856c16       0x22 cmd/built-in.o
                                 0x25 (size before relaxing)
 .rodata.do_ping.str1.1
                0x80856c38       0x35 cmd/built-in.o
 .rodata.do_prefetch_abort.str1.1
                0x80856c6d       0x10 arch/arm/lib/built-in.o
 .rodata.do_pxe_boot.str1.1
                0x80856c7d       0x38 cmd/built-in.o
 .rodata.do_pxe_get.str1.1
                0x80856cb5       0x41 cmd/built-in.o
                                 0x46 (size before relaxing)
 .rodata.do_reset.str1.1
                0x80856cf6        0xf arch/arm/lib/built-in.o
 .rodata.do_run.str1.1
                0x80856d05       0x1c common/built-in.o
 .rodata.do_save.str1.1
                0x80856d05       0x1d fs/built-in.o
 .rodata.do_setexpr.str1.1
                0x80856d22       0x11 cmd/built-in.o
                                 0x15 (size before relaxing)
 .rodata.do_showvar.str1.1
                0x80856d33        0xc common/built-in.o
                                 0x2f (size before relaxing)
 .rodata.do_size.str1.1
                0x80856d3f        0x9 fs/built-in.o
 .rodata.do_software_interrupt.str1.1
                0x80856d3f       0x14 arch/arm/lib/built-in.o
 .rodata.do_source.str1.1
                0x80856d53       0x1e cmd/built-in.o
 .rodata.do_spi.str1.1
                0x80856d71       0x66 cmd/built-in.o
                                 0x6d (size before relaxing)
 .rodata.do_spi_flash.str1.1
                0x80856dd7      0x1de cmd/built-in.o
                                0x207 (size before relaxing)
 .rodata.do_spl.str1.1
                0x80856fb5       0xc2 cmd/built-in.o
 .rodata.do_sysboot.str1.1
                0x80857077       0x43 cmd/built-in.o
 .rodata.do_time.str1.1
                0x808570ba       0x29 cmd/built-in.o
 .rodata.do_undefined_instruction.str1.1
                0x808570e3       0x17 arch/arm/lib/built-in.o
 .rodata.do_usb.str1.1
                0x808570fa      0x272 cmd/built-in.o
                                0x293 (size before relaxing)
 .rodata.do_usbboot.str1.1
                0x8085736c        0x4 cmd/built-in.o
 .rodata.do_version.str1.1
                0x80857370       0xac cmd/built-in.o
 .rodata.download.str1.1
                0x8085741c       0x5b drivers/built-in.o
                                 0x5e (size before relaxing)
 .rodata.dp_unknown.isra.0.str1.1
                0x80857477       0x13 lib/built-in.o
 .rodata.driver_desc
                0x8085748a       0x10 drivers/usb/gadget/built-in.o
 .rodata.efi_bootmgr_load.str1.1
                0x8085749a       0x25 lib/built-in.o
 .rodata.efi_console_register.str1.1
                0x808574bf       0x9b lib/built-in.o
                                 0xb8 (size before relaxing)
 .rodata.efi_convert_single_device_node_to_text.str1.1
                0x8085755a      0x11a lib/built-in.o
                                0x124 (size before relaxing)
 .rodata.efi_cout_clear_screen.str1.1
                0x80857674        0x5 lib/built-in.o
 .rodata.efi_cout_enable_cursor.str1.1
                0x80857679        0x8 lib/built-in.o
 .rodata.efi_cout_set_attribute.str1.1
                0x80857681       0x17 lib/built-in.o
 .rodata.efi_cout_set_cursor_position.str1.1
                0x80857698        0x9 lib/built-in.o
 .rodata.efi_disk_create_partitions.str1.1
                0x808576a1       0x22 lib/built-in.o
 .rodata.efi_disk_register.str1.1
                0x808576c3       0x6b lib/built-in.o
                                 0x70 (size before relaxing)
 .rodata.efi_dp_from_name.str1.1
                0x8085772e        0x4 lib/built-in.o
                                  0x7 (size before relaxing)
 .rodata.efi_driver_init.str1.1
                0x80857732       0x58 lib/built-in.o
 .rodata.efi_dump_single_var.str1.1
                0x8085778a       0x33 cmd/built-in.o
                                 0x38 (size before relaxing)
 .rodata.efi_exit.str1.1
                0x808577bd       0x17 lib/built-in.o
 .rodata.efi_file_from_path.str1.1
                0x808577d4       0x10 lib/built-in.o
 .rodata.efi_get_next_variable_name.str1.1
                0x808577e4       0x16 lib/built-in.o
 .rodata.efi_get_variable.str1.1
                0x808577fa        0x7 lib/built-in.o
                                  0xe (size before relaxing)
 .rodata.efi_install_fdt.str1.1
                0x80857801       0x93 cmd/built-in.o
 .rodata.efi_load_pe.str1.1
                0x80857894       0xca lib/built-in.o
 .rodata.efi_net_register.str1.1
                0x8085795e       0x6d lib/built-in.o
                                 0x83 (size before relaxing)
 .rodata.efi_print_image_infos.str1.1
                0x808579cb       0x29 lib/built-in.o
                                 0x2b (size before relaxing)
 .rodata.efi_set_code_and_data_type.str1.1
                0x808579f4       0x1c lib/built-in.o
 .rodata.efi_set_variable.str1.1
                0x80857a10       0x14 lib/built-in.o
                                 0x1a (size before relaxing)
 .rodata.efi_setup_loaded_image.str1.1
                0x80857a24       0x36 lib/built-in.o
 .rodata.efi_to_native.str1.1
                0x80857a5a       0x34 lib/built-in.o
 .rodata.efi_uc_destroy.str1.1
                0x80857a8e       0x18 lib/built-in.o
 .rodata.efi_uc_init.str1.1
                0x80857aa6       0x1e lib/built-in.o
 .rodata.efi_uc_stop.str1.1
                0x80857ac4       0x1d lib/built-in.o
 .rodata.efi_watchdog_register.str1.1
                0x80857ae1       0x4f lib/built-in.o
 .rodata.efi_watchdog_timer_notify.str1.1
                0x80857b30       0x18 lib/built-in.o
 .rodata.emit.str1.1
                0x80857b48       0x1f lib/built-in.o
 .rodata.enc28j60_initialize.str1.1
                0x80857b67       0x2d drivers/net/built-in.o
 .rodata.enc_claim_bus.str1.1
                0x80857b94       0x1d drivers/net/built-in.o
 .rodata.enc_initcheck.str1.1
                0x80857bb1       0x7b drivers/net/built-in.o
                                 0x85 (size before relaxing)
 .rodata.enc_phy_read.str1.1
                0x80857c2c       0x19 drivers/net/built-in.o
 .rodata.enc_phy_write.str1.1
                0x80857c45       0x19 drivers/net/built-in.o
 .rodata.enc_recv.str1.1
                0x80857c5e       0x34 drivers/net/built-in.o
 .rodata.enc_w8_retry.str1.1
                0x80857c92       0x1d drivers/net/built-in.o
 .rodata.env_callback_init.str1.1
                0x80857caf        0xb env/built-in.o
 .rodata.env_complete.str1.1
                0x80857cba        0x7 env/built-in.o
                                 0x10 (size before relaxing)
 .rodata.env_export.str1.1
                0x80857cc1       0x3d env/built-in.o
                                 0x27 (size before relaxing)
 .rodata.env_ext4_load.str1.1
                0x80857cc1       0x59 env/built-in.o
 .rodata.env_ext4_save.str1.1
                0x80857d1a       0x66 env/built-in.o
                                 0x70 (size before relaxing)
 .rodata.env_flags_init.str1.1
                0x80857d80        0x7 env/built-in.o
 .rodata.env_flags_parse_varaccess.str1.1
                0x80857d87       0x3d env/built-in.o
 .rodata.env_flags_parse_vartype.str1.1
                0x80857dc4       0x34 env/built-in.o
 .rodata.env_flags_validate.str1.1
                0x80857df8       0xb2 env/built-in.o
                                 0xb3 (size before relaxing)
 .rodata.env_flags_varaccess_rep
                0x80857eaa        0x5 env/built-in.o
 .rodata.env_flags_vartype_rep
                0x80857eaf        0x7 env/built-in.o
 .rodata.env_get_bootm_low.str1.1
                0x80857eb6        0xa common/built-in.o
 .rodata.env_get_bootm_mapsize.str1.1
                0x80857ec0        0xe common/built-in.o
 .rodata.env_get_bootm_size.str1.1
                0x80857ece        0xb common/built-in.o
 .rodata.env_get_f.str1.1
                0x80857ed9       0x30 cmd/built-in.o
 .rodata.env_import.str1.1
                0x80857f09       0x3d env/built-in.o
 .rodata.env_load.str1.1
                0x80857f46       0x20 env/built-in.o
                                 0x24 (size before relaxing)
 .rodata.env_print.str1.1
                0x80857f66       0x25 cmd/built-in.o
                                 0x2c (size before relaxing)
 .rodata.env_save.str1.1
                0x80857f8b       0x2a env/built-in.o
 .rodata.env_set.str1.1
                0x80857fb5        0x7 cmd/built-in.o
 .rodata.env_set_hex.str1.1
                0x80857fbc        0x4 cmd/built-in.o
 .rodata.erase_seq
                0x80857fbc        0x4 common/built-in.o
 .rodata.eth_bind.str1.1
                0x80857fc0      0x113 drivers/usb/gadget/built-in.o
                                0x11d (size before relaxing)
 .rodata.eth_current_changed.str1.1
                0x808580d3       0x11 net/built-in.o
                                 0x14 (size before relaxing)
 .rodata.eth_env_get_enetaddr_by_index.str1.1
                0x808580e4       0x10 net/built-in.o
 .rodata.eth_env_set_enetaddr.str1.1
                0x808580f4        0x4 cmd/built-in.o
 .rodata.eth_get_dev_by_name.str1.1
                0x808580f8       0x11 net/built-in.o
                                 0x2a (size before relaxing)
 .rodata.eth_get_name.str1.1
                0x80858109        0x8 net/built-in.o
 .rodata.eth_initialize.str1.1
                0x80858109       0x96 net/built-in.o
                                 0xb0 (size before relaxing)
 .rodata.eth_mac_skip.str1.1
                0x8085819f       0x18 net/built-in.o
 .rodata.eth_set_current.str1.1
                0x808581b7        0x9 net/built-in.o
 .rodata.eth_setup.str1.1
                0x808581b7       0x3d drivers/usb/gadget/built-in.o
                                 0x49 (size before relaxing)
 .rodata.eth_write_hwaddr.str1.1
                0x808581f4       0xd4 net/built-in.o
 .rodata.ext4_read_file.str1.1
                0x808582c8       0x19 fs/built-in.o
 .rodata.ext4_write_file.str1.1
                0x808582e1       0x42 fs/built-in.o
 .rodata.ext4fs_allocate_blocks.str1.1
                0x80858323       0x61 fs/built-in.o
 .rodata.ext4fs_check_journal_state.str1.1
                0x80858384       0x2e fs/built-in.o
 .rodata.ext4fs_filename_unlink.str1.1
                0x808583b2       0x16 fs/built-in.o
 .rodata.ext4fs_get_bgdtable.str1.1
                0x808583c8       0x19 fs/built-in.o
 .rodata.ext4fs_get_parent_inode_num.str1.1
                0x808583e1       0x3e fs/built-in.o
                                 0x40 (size before relaxing)
 .rodata.ext4fs_init.str1.1
                0x8085841f       0x33 fs/built-in.o
 .rodata.ext4fs_iterate_dir.str1.1
                0x80858452       0x43 fs/built-in.o
                                 0x4a (size before relaxing)
 .rodata.ext4fs_log_journal.str1.1
                0x80858495       0x1c fs/built-in.o
 .rodata.ext4fs_ls.str1.1
                0x808584b1       0x1f fs/built-in.o
 .rodata.ext4fs_mount.str1.1
                0x808584d0       0x24 fs/built-in.o
 .rodata.ext4fs_push_revoke_blk.str1.1
                0x808584f4       0x2e fs/built-in.o
 .rodata.ext4fs_update_journal.str1.1
                0x80858522       0x19 fs/built-in.o
 .rodata.ext4fs_update_parent_dentry.str1.1
                0x8085853b       0x86 fs/built-in.o
 .rodata.ext4fs_write.str1.1
                0x808585c1       0xaf fs/built-in.o
 .rodata.extract_env.str1.1
                0x80858670        0x3 cmd/built-in.o
 .rodata.extract_val.str1.1
                0x80858673        0x4 cmd/built-in.o
 .rodata.fastboot_add.str1.1
                0x80858673        0xb drivers/usb/gadget/built-in.o
 .rodata.fastboot_bind.str1.1
                0x8085867e        0x8 drivers/usb/gadget/built-in.o
 .rodata.fastboot_boot.str1.1
                0x8085867e       0x2c drivers/built-in.o
                                 0x31 (size before relaxing)
 .rodata.fastboot_complete.str1.1
                0x808586aa       0x1e drivers/usb/gadget/built-in.o
 .rodata.fastboot_data_complete.str1.1
                0x808586c8       0x23 drivers/built-in.o
                                 0x2c (size before relaxing)
 .rodata.fastboot_data_download.str1.1
                0x808586eb       0x1d drivers/built-in.o
 .rodata.fastboot_fail.str1.1
                0x80858708       0x1d drivers/built-in.o
                                  0x8 (size before relaxing)
 .rodata.fastboot_getvar.str1.1
                0x80858708       0x31 drivers/built-in.o
                                 0x36 (size before relaxing)
 .rodata.fastboot_handle_command.str1.1
                0x80858739       0x31 drivers/built-in.o
                                 0x33 (size before relaxing)
 .rodata.fastboot_mmc_erase.str1.1
                0x8085876a       0x8b drivers/built-in.o
 .rodata.fastboot_mmc_flash_write.str1.1
                0x808587f5      0x56d drivers/built-in.o
                                0x576 (size before relaxing)
 .rodata.fastboot_mmc_get_part_info.str1.1
                0x80858d62       0x2b drivers/built-in.o
                                 0x2f (size before relaxing)
 .rodata.fastboot_name
                0x80858d8d       0x11 drivers/usb/gadget/built-in.o
 .rodata.fastboot_okay.str1.1
                0x80858d9e        0x5 drivers/built-in.o
 .rodata.fastboot_set_alt.str1.1
                0x80858da3       0x5f drivers/usb/gadget/built-in.o
 .rodata.fastboot_tx_write_str.isra.0.str1.1
                0x80858e02       0x13 drivers/usb/gadget/built-in.o
 .rodata.fat_itr_resolve.str1.1
                0x80858e15       0x12 fs/built-in.o
                                  0x5 (size before relaxing)
 .rodata.fat_itr_root.str1.1
                0x80858e15       0x85 fs/built-in.o
 .rodata.fat_mkdir.str1.1
                0x80858e9a       0x26 fs/built-in.o
                                 0x2a (size before relaxing)
 .rodata.fat_read_file.str1.1
                0x80858ec0       0x1e fs/built-in.o
 .rodata.fat_set_blk_dev.str1.1
                0x80858ede        0x3 fs/built-in.o
                                  0xd (size before relaxing)
 .rodata.fat_unlink.str1.1
                0x80858ee1       0x6b fs/built-in.o
                                 0x6c (size before relaxing)
 .rodata.fb_mmc_blk_write.str1.1
                0x80858f4c        0x8 drivers/built-in.o
                                 0x10 (size before relaxing)
 .rodata.fdt_address_cells.str1.1
                0x80858f54        0xf lib/built-in.o
 .rodata.fdt_chosen.str1.1
                0x80858f63       0x35 common/built-in.o
                                 0x3e (size before relaxing)
 .rodata.fdt_error.str1.1
                0x80858f98       0x2d common/built-in.o
 .rodata.fdt_find_or_add_subnode.str1.1
                0x80858fc5        0xc common/built-in.o
 .rodata.fdt_fixup_ethernet.str1.1
                0x80858fd1       0x2e common/built-in.o
                                 0x42 (size before relaxing)
 .rodata.fdt_fixup_memory_banks.str1.1
                0x80858fff       0x85 common/built-in.o
                                 0x94 (size before relaxing)
 .rodata.fdt_get_alias_namelen.str1.1
                0x80859084        0x9 lib/built-in.o
 .rodata.fdt_get_phandle.str1.1
                0x80859084       0x16 lib/built-in.o
 .rodata.fdt_initrd.str1.1
                0x80859084       0x90 common/built-in.o
                                 0x97 (size before relaxing)
 .rodata.fdt_overlay_apply.str1.1
                0x80859114       0x38 lib/built-in.o
                                 0x51 (size before relaxing)
 .rodata.fdt_overlay_apply_verbose.str1.1
                0x8085914c       0x83 common/built-in.o
 .rodata.fdt_root.str1.1
                0x808591cf       0x46 common/built-in.o
                                 0x4e (size before relaxing)
 .rodata.fdt_size_cells.str1.1
                0x80859215        0xc lib/built-in.o
 .rodata.fdt_strerror.str1.1
                0x80859215       0x31 lib/built-in.o
 .rodata.fdt_support_default_count_cells.str1.1
                0x80859246        0xc common/built-in.o
 .rodata.fdt_translate_address.str1.1
                0x80859252       0x22 common/built-in.o
 .rodata.fdt_valid.str1.1
                0x80859274       0x79 cmd/built-in.o
                                 0x7b (size before relaxing)
 .rodata.fdtdec_add_aliases_for_id.str1.1
                0x808592ed        0x9 lib/built-in.o
 .rodata.fdtdec_get_chosen_prop.str1.1
                0x808592ed        0x8 lib/built-in.o
 .rodata.fdtdec_get_config_int.str1.1
                0x808592ed        0x8 lib/built-in.o
 .rodata.fdtdec_get_is_enabled.str1.1
                0x808592f5        0x5 lib/built-in.o
                                  0xc (size before relaxing)
 .rodata.fdtdec_prepare_fdt.str1.1
                0x808592fa       0x96 lib/built-in.o
 .rodata.fdtdec_setup.str1.1
                0x80859390        0xf lib/built-in.o
 .rodata.file_fat_detectfs.str1.1
                0x80859390       0x64 fs/built-in.o
                                 0x84 (size before relaxing)
 .rodata.file_fat_read_at.str1.1
                0x808593f4       0x2a fs/built-in.o
 .rodata.file_fat_write_at.str1.1
                0x8085941e       0xa7 fs/built-in.o
 .rodata.file_get.str1.1
                0x808594c5        0x6 common/built-in.o
                                  0x9 (size before relaxing)
 .rodata.file_open.str1.1
                0x808594cb        0xa lib/built-in.o
                                  0xb (size before relaxing)
 .rodata.find_mmc_device.str1.1
                0x808594d5       0x19 drivers/built-in.o
 .rodata.fit_all_image_verify.str1.1
                0x808594ee       0x51 common/built-in.o
 .rodata.fit_get_desc.str1.1
                0x8085953f        0xc common/built-in.o
 .rodata.fit_get_timestamp.str1.1
                0x8085954b        0xa common/built-in.o
 .rodata.fit_image_get_address.str1.1
                0x80859555       0x1d common/built-in.o
 .rodata.fit_image_get_arch.str1.1
                0x80859572        0xa common/built-in.o
                                  0x5 (size before relaxing)
 .rodata.fit_image_get_comp.str1.1
                0x80859572        0xc common/built-in.o
 .rodata.fit_image_get_data.str1.1
                0x80859572        0x5 common/built-in.o
 .rodata.fit_image_get_data_offset.str1.1
                0x80859577        0xc common/built-in.o
 .rodata.fit_image_get_data_position.str1.1
                0x80859583        0xe common/built-in.o
 .rodata.fit_image_get_data_size.str1.1
                0x80859591        0xa common/built-in.o
 .rodata.fit_image_get_entry.str1.1
                0x8085959b        0x6 common/built-in.o
 .rodata.fit_image_get_load.str1.1
                0x808595a1        0x5 common/built-in.o
 .rodata.fit_image_get_node.str1.1
                0x808595a1        0x8 common/built-in.o
 .rodata.fit_image_get_os.str1.1
                0x808595a1        0xa common/built-in.o
                                  0x3 (size before relaxing)
 .rodata.fit_image_get_type.str1.1
                0x808595a1        0xa common/built-in.o
                                  0x5 (size before relaxing)
 .rodata.fit_image_hash_get_algo.str1.1
                0x808595a1        0xa common/built-in.o
                                  0x5 (size before relaxing)
 .rodata.fit_image_hash_get_value.str1.1
                0x808595a1        0xa common/built-in.o
                                  0x6 (size before relaxing)
 .rodata.fit_image_load.str1.1
                0x808595a1      0x1c5 common/built-in.o
                                0x1e0 (size before relaxing)
 .rodata.fit_image_print.str1.1
                0x80859766       0xe5 common/built-in.o
                                 0xf2 (size before relaxing)
 .rodata.fit_image_print_data.str1.1
                0x8085984b       0x96 common/built-in.o
                                 0xa4 (size before relaxing)
 .rodata.fit_image_print_verification_data.str1.1
                0x808598e1       0x19 common/built-in.o
 .rodata.fit_image_verify.str1.1
                0x808598fa       0x1a common/built-in.o
                                 0x4b (size before relaxing)
 .rodata.fit_image_verify_with_data.str1.1
                0x80859914       0xe0 common/built-in.o
 .rodata.fit_print_contents.str1.1
                0x808599f4      0x13b common/built-in.o
                                0x172 (size before relaxing)
 .rodata.fixup_branch.part.0.str1.1
                0x80859b2f       0x17 lib/built-in.o
 .rodata.flush_dir_table.str1.1
                0x80859b46       0x20 fs/built-in.o
 .rodata.format_mac_pxe.constprop.0.str1.1
                0x80859b66       0x25 cmd/built-in.o
 .rodata.from_env.str1.1
                0x80859b8b       0x22 cmd/built-in.o
 .rodata.fs_devread.str1.1
                0x80859bad       0x98 fs/built-in.o
 .rodata.fs_ls_generic.str1.1
                0x80859c45       0x37 fs/built-in.o
 .rodata.fs_probe_unsupported.str1.1
                0x80859c7c       0x24 fs/built-in.o
 .rodata.fs_write.str1.1
                0x80859ca0       0x1f fs/built-in.o
 .rodata.fw_patch_vsc8574
                0x80859cbf      0x677 drivers/net/phy/built-in.o
 .rodata.fw_patch_vsc8584
                0x8085a336       0x5c drivers/net/phy/built-in.o
 .rodata.g_dnl_bind.str1.1
                0x8085a392       0x15 drivers/usb/gadget/built-in.o
 .rodata.g_dnl_register.str1.1
                0x8085a3a7       0x18 drivers/usb/gadget/built-in.o
 .rodata.genimg_get_arch_id.str1.1
                0x8085a3bf       0xe1 common/built-in.o
                                  0x4 (size before relaxing)
 .rodata.genimg_get_arch_name.str1.1
                0x8085a3bf       0x15 common/built-in.o
 .rodata.genimg_get_comp_id.str1.1
                0x8085a3d4       0xe1 common/built-in.o
                                  0xc (size before relaxing)
 .rodata.genimg_get_comp_name.str1.1
                0x8085a3d4       0x14 common/built-in.o
 .rodata.genimg_get_os_id.str1.1
                0x8085a3e8       0xe1 common/built-in.o
                                  0x3 (size before relaxing)
 .rodata.genimg_get_os_name.str1.1
                0x8085a3e8        0xb common/built-in.o
 .rodata.genimg_get_type_id.str1.1
                0x8085a3f3       0xe1 common/built-in.o
                                  0x6 (size before relaxing)
 .rodata.genimg_get_type_name.str1.1
                0x8085a3f3        0xe common/built-in.o
 .rodata.genimg_print_size.str1.1
                0x8085a401        0xc common/built-in.o
                                  0xe (size before relaxing)
 .rodata.genimg_print_time.str1.1
                0x8085a40d       0x22 common/built-in.o
 .rodata.genphy_update_link.str1.1
                0x8085a42f       0x54 drivers/net/phy/built-in.o
                                 0x56 (size before relaxing)
 .rodata.get_descriptor_len.str1.1
                0x8085a483       0x64 common/built-in.o
 .rodata.get_fatent.str1.1
                0x8085a4e7       0x22 fs/built-in.o
 .rodata.get_local_var.str1.1
                0x8085a509        0x3 common/built-in.o
 .rodata.get_phy_device_by_mask.str1.1
                0x8085a50c       0x29 drivers/net/phy/built-in.o
 .rodata.get_pxe_file.str1.1
                0x8085a535        0x9 cmd/built-in.o
 .rodata.get_pxelinux_path.str1.1
                0x8085a535       0x3e cmd/built-in.o
 .rodata.get_relfile.str1.1
                0x8085a573       0x56 cmd/built-in.o
                                 0x63 (size before relaxing)
 .rodata.getvar_bootloader_version.str1.1
                0x8085a5c9       0x27 drivers/built-in.o
 .rodata.getvar_current_slot.str1.1
                0x8085a5f0        0x3 drivers/built-in.o
 .rodata.getvar_downloadsize.str1.1
                0x8085a5f3        0x7 drivers/built-in.o
                                  0xc (size before relaxing)
 .rodata.getvar_has_slot.str1.1
                0x8085a5fa       0x18 drivers/built-in.o
                                 0x13 (size before relaxing)
 .rodata.getvar_partition_size.str1.1
                0x8085a5fa        0x9 drivers/built-in.o
 .rodata.getvar_partition_type.str1.1
                0x8085a603       0x18 drivers/built-in.o
 .rodata.getvar_product.str1.1
                0x8085a61b        0xe drivers/built-in.o
                                 0x14 (size before relaxing)
 .rodata.getvar_serialno.str1.1
                0x8085a629        0xe drivers/built-in.o
                                 0x16 (size before relaxing)
 .rodata.getvar_slot_suffixes.str1.1
                0x8085a637        0x6 drivers/built-in.o
 .rodata.getvar_version.str1.1
                0x8085a63d        0x4 drivers/built-in.o
 .rodata.getvar_version_baseband.str1.1
                0x8085a641        0x4 drivers/built-in.o
 .rodata.gpio_direction_input.str1.1
                0x8085a645        0xa drivers/gpio/built-in.o
 .rodata.gpio_direction_output.str1.1
                0x8085a64f        0xb drivers/gpio/built-in.o
 .rodata.gpio_get_description.str1.1
                0x8085a65a        0xa cmd/built-in.o
                                 0x18 (size before relaxing)
 .rodata.gpio_get_status.str1.1
                0x8085a664       0x17 drivers/gpio/built-in.o
                                 0x19 (size before relaxing)
 .rodata.gpio_input_testcase.str1.1
                0x8085a67b        0x8 board/ti/am335x/built-in.o
 .rodata.gpio_output_testcase.str1.1
                0x8085a683       0x29 board/ti/am335x/built-in.o
 .rodata.gpio_request_by_name_nodev.str1.1
                0x8085a6ac        0xc drivers/gpio/built-in.o
 .rodata.gpio_request_tail.str1.1
                0x8085a6b8        0xe drivers/gpio/built-in.o
 .rodata.gpt_fill_header.str1.1
                0x8085a6c6       0x24 disk/built-in.o
 .rodata.gpt_fill_pte.str1.1
                0x8085a6ea       0x5b disk/built-in.o
 .rodata.gpt_verify_partitions.str1.1
                0x8085a745       0xa3 disk/built-in.o
 .rodata.gzip_parse_header.str1.1
                0x8085a7e8       0x3e lib/built-in.o
 .rodata.handle_include.str1.1
                0x8085a826       0x33 cmd/built-in.o
 .rodata.handle_pxe_menu.str1.1
                0x8085a859       0x15 cmd/built-in.o
                                 0x18 (size before relaxing)
 .rodata.hang.str1.1
                0x8085a86e       0x2a lib/built-in.o
 .rodata.hash_command.str1.1
                0x8085a898       0x58 common/built-in.o
                                 0x5f (size before relaxing)
 .rodata.header_desc
                0x8085a8f0        0x5 drivers/usb/gadget/built-in.o
 .rodata.hex_asc
                0x8085a8f5       0x11 lib/built-in.o
                0x8085a8f5                hex_asc
 .rodata.hex_dump_to_buffer.str1.1
                0x8085a906       0x1c lib/built-in.o
                                 0x1f (size before relaxing)
 .rodata.hexport_r.str1.1
                0x8085a922       0x30 lib/built-in.o
 .rodata.himport_r.str1.1
                0x8085a952       0x99 lib/built-in.o
 .rodata.i2c_chip_ofdata_to_platdata.str1.1
                0x8085a9eb       0x16 drivers/i2c/built-in.o
                                 0x1a (size before relaxing)
 .rodata.i2c_compat_get_device.str1.1
                0x8085aa01       0x42 drivers/i2c/built-in.o
 .rodata.i2c_deblock.str1.1
                0x8085aa43        0x6 drivers/i2c/built-in.o
 .rodata.i2c_get_chip.str1.1
                0x8085aa49       0x20 drivers/i2c/built-in.o
 .rodata.i2c_get_cur_bus.str1.1
                0x8085aa69       0x33 cmd/built-in.o
 .rodata.i2c_post_probe.str1.1
                0x8085aa9c       0x10 drivers/i2c/built-in.o
 .rodata.i2c_uclass_init.str1.1
                0x8085aaac        0x4 drivers/i2c/built-in.o
 .rodata.illegal
                0x8085aaac        0xa lib/built-in.o
 .rodata.image_info.str1.1
                0x8085aab6      0x107 cmd/built-in.o
 .rodata.image_print_contents.str1.1
                0x8085abbd       0xe1 common/built-in.o
                                 0xe5 (size before relaxing)
 .rodata.image_setup_libfdt.str1.1
                0x8085ac9e       0x8f common/built-in.o
 .rodata.inflate.str1.1
                0x8085ad2d      0x158 lib/built-in.o
 .rodata.inflate_fast.str1.1
                0x8085ae85       0x50 lib/built-in.o
 .rodata.init_baud_rate.str1.1
                0x8085aed5        0x9 common/built-in.o
 .rodata.init_peripheral_ep.str1.1
                0x8085aede        0x7 drivers/usb/musb-new/built-in.o
                                  0xf (size before relaxing)
 .rodata.initr_env.str1.1
                0x8085aee5       0x20 common/built-in.o
                                 0x29 (size before relaxing)
 .rodata.initr_ethaddr.str1.1
                0x8085af05        0x8 common/built-in.o
 .rodata.initr_mmc.str1.1
                0x8085af05        0x8 common/built-in.o
 .rodata.initr_net.str1.1
                0x8085af0d        0x8 common/built-in.o
 .rodata.insert_var_value_sub.str1.1
                0x8085af15        0x6 common/built-in.o
 .rodata.ip_to_string.str1.1
                0x8085af1b        0xc net/built-in.o
 .rodata.is_gpt_valid.str1.1
                0x8085af27       0xd1 disk/built-in.o
 .rodata.is_pte_valid.str1.1
                0x8085aff8       0x19 disk/built-in.o
 .rodata.label_boot.str1.1
                0x8085b011      0x174 cmd/built-in.o
                                0x1bc (size before relaxing)
 .rodata.label_print.str1.1
                0x8085b185        0x8 cmd/built-in.o
 .rodata.lcd_bootmenu.str1.1
                0x8085b18d      0x102 board/ti/am335x/built-in.o
                                0x113 (size before relaxing)
 .rodata.list_sort.str1.1
                0x8085b28f       0x34 lib/built-in.o
 .rodata.list_subvols.str1.1
                0x8085b2c3       0x6f fs/built-in.o
                                 0x79 (size before relaxing)
 .rodata.lists_bind_drivers.str1.1
                0x8085b332       0x1a drivers/built-in.o
 .rodata.lists_bind_fdt.str1.1
                0x8085b34c       0x4a drivers/built-in.o
 .rodata.lmb_alloc_base.str1.1
                0x8085b396       0x34 lib/built-in.o
 .rodata.load_serial.str1.1
                0x8085b3ca       0x6e cmd/built-in.o
 .rodata.load_serial_ymodem.isra.0.str1.1
                0x8085b438       0x28 cmd/built-in.o
                                 0x2c (size before relaxing)
 .rodata.lzop_magic
                0x8085b460        0x9 lib/built-in.o
 .rodata.main_loop.str1.1
                0x8085b469       0x11 common/built-in.o
                                 0x15 (size before relaxing)
 .rodata.manufacturer
                0x8085b47a       0x12 drivers/usb/gadget/built-in.o
 .rodata.match.str1.1
                0x8085b48c       0x18 lib/built-in.o
 .rodata.match_entry.str1.1
                0x8085b4a4       0x1b lib/built-in.o
 .rodata.match_string.str1.1
                0x8085b4a4       0x2c lib/built-in.o
 .rodata.mdio_list_devices.str1.1
                0x8085b4d0       0x12 common/built-in.o
                                 0x19 (size before relaxing)
 .rodata.mdio_phydev_for_ethname.str1.1
                0x8085b4e2       0x1c common/built-in.o
 .rodata.mdio_register.str1.1
                0x8085b4fe       0x2c common/built-in.o
 .rodata.menu_get_choice.str1.1
                0x8085b52a       0x1d common/built-in.o
                                 0x2a (size before relaxing)
 .rodata.miiphy_duplex.str1.1
                0x8085b547       0x4f common/built-in.o
 .rodata.miiphy_get_dev_by_name.str1.1
                0x8085b596       0x13 common/built-in.o
 .rodata.miiphy_listdev.str1.1
                0x8085b5a9       0x2a common/built-in.o
 .rodata.miiphy_set_current_dev.str1.1
                0x8085b5d3       0x14 common/built-in.o
 .rodata.miiphy_speed.str1.1
                0x8085b5e7       0x49 common/built-in.o
 .rodata.mmc_berase.str1.1
                0x8085b630       0x6f drivers/built-in.o
 .rodata.mmc_block_op.str1.1
                0x8085b69f       0x57 drivers/built-in.o
 .rodata.mmc_bread.str1.1
                0x8085b6f6       0x47 drivers/built-in.o
 .rodata.mmc_bwrite.str1.1
                0x8085b73d       0x12 drivers/built-in.o
                                 0x59 (size before relaxing)
 .rodata.mmc_file_op.str1.1
                0x8085b74f       0x88 drivers/built-in.o
                                 0x8c (size before relaxing)
 .rodata.mmc_get_op_cond.str1.1
                0x8085b7d7       0x29 drivers/built-in.o
 .rodata.mmc_hwpart_config.str1.1
                0x8085b800      0x19f drivers/built-in.o
 .rodata.mmc_init.str1.1
                0x8085b99f       0x67 drivers/built-in.o
                                 0x6d (size before relaxing)
 .rodata.mmc_init_stream.str1.1
                0x8085ba06       0x3d drivers/built-in.o
 .rodata.mmc_mode_name.str1.1
                0x8085ba43        0xd drivers/built-in.o
 .rodata.mmc_reset_controller_fsm.str1.1
                0x8085ba50       0x2d drivers/built-in.o
 .rodata.mmc_send_status.str1.1
                0x8085ba7d       0x32 drivers/built-in.o
 .rodata.mmc_start_init.str1.1
                0x8085baaf       0x16 drivers/built-in.o
 .rodata.mod_i2c_mem.constprop.0.str1.1
                0x8085bac5       0x21 cmd/built-in.o
                                 0x28 (size before relaxing)
 .rodata.mod_mem.part.0.str1.1
                0x8085bae6        0xc cmd/built-in.o
                                 0x1d (size before relaxing)
 .rodata.mon_name.0
                0x8085baf2       0x24 fs/built-in.o
 .rodata.mscc_phy_soft_reset.str1.1
                0x8085bb16       0x2b drivers/net/phy/built-in.o
 .rodata.mtd_arg_off.str1.1
                0x8085bb41       0x38 drivers/mtd/built-in.o
 .rodata.mtd_arg_off_size.str1.1
                0x8085bb79       0x5b drivers/mtd/built-in.o
                                 0x71 (size before relaxing)
 .rodata.multiboot.str1.1
                0x8085bbd4     0x151f common/built-in.o
 .rodata.multipliers
                0x8085d0f3       0x10 drivers/built-in.o
 .rodata.musb_driver_name
                0x8085d103        0xa drivers/usb/musb-new/built-in.o
                0x8085d103                musb_driver_name
 .rodata.musb_g_ep0_irq.str1.1
                0x8085d10d       0xaf drivers/usb/musb-new/built-in.o
                                 0xb1 (size before relaxing)
 .rodata.musb_h_ep0_irq.str1.1
                0x8085d1bc       0x34 drivers/usb/musb-new/built-in.o
 .rodata.musb_h_tx_flush_fifo.str1.1
                0x8085d1f0       0x2b drivers/usb/musb-new/built-in.o
 .rodata.musb_host_rx.str1.1
                0x8085d21b       0x2f drivers/usb/musb-new/built-in.o
 .rodata.musb_init_controller.str1.1
                0x8085d24a       0xbc drivers/usb/musb-new/built-in.o
                                 0xd9 (size before relaxing)
 .rodata.musb_lowlevel_init.str1.1
                0x8085d306       0x1d drivers/usb/musb-new/built-in.o
 .rodata.musb_register.str1.1
                0x8085d323       0x1f drivers/usb/musb-new/built-in.o
 .rodata.musb_start_urb.str1.1
                0x8085d342       0x48 drivers/usb/musb-new/built-in.o
 .rodata.musb_test_packet
                0x8085d38a       0x35 drivers/usb/musb-new/built-in.o
 .rodata.names.0
                0x8085d3bf        0x6 lib/built-in.o
 .rodata.net_auto_load.str1.1
                0x8085d3c5       0x45 net/built-in.o
 .rodata.net_bcast_ethaddr
                0x8085d40a        0x6 net/built-in.o
                0x8085d40a                net_bcast_ethaddr
 .rodata.net_check_prereq.str1.1
                0x8085d410       0xbc net/built-in.o
 .rodata.net_loop.str1.1
                0x8085d4cc       0x29 net/built-in.o
                                 0x3b (size before relaxing)
 .rodata.net_null_ethaddr
                0x8085d4f5        0x6 net/built-in.o
                0x8085d4f5                net_null_ethaddr
 .rodata.net_process_received_packet.str1.1
                0x8085d4fb       0x1d net/built-in.o
 .rodata.net_start_again.str1.1
                0x8085d518        0x5 net/built-in.o
                                 0x15 (size before relaxing)
 .rodata.netboot_common.str1.1
                0x8085d51d       0x1d cmd/built-in.o
                                 0x5a (size before relaxing)
 .rodata.nfs_handler.str1.1
                0x8085d53a       0x56 net/built-in.o
 .rodata.nfs_lookup_reply.str1.1
                0x8085d590       0x25 net/built-in.o
                                 0x27 (size before relaxing)
 .rodata.nfs_read_reply.constprop.0.str1.1
                0x8085d5b5        0x4 net/built-in.o
 .rodata.nfs_readlink_reply.str1.1
                0x8085d5b9        0x2 net/built-in.o
 .rodata.nfs_start.str1.1
                0x8085d5b9      0x104 net/built-in.o
                                0x105 (size before relaxing)
 .rodata.nfs_timeout_handler.str1.1
                0x8085d6bd       0x2a net/built-in.o
 .rodata.normalize_longname.str1.1
                0x8085d6e7       0x12 fs/built-in.o
 .rodata.ns16550_serial_ofdata_to_platdata.str1.1
                0x8085d6f9       0x22 drivers/serial/built-in.o
                                 0x32 (size before relaxing)
 .rodata.oem_format.str1.1
                0x8085d71b       0x30 drivers/built-in.o
                                 0x3c (size before relaxing)
 .rodata.omap_gpio_probe.str1.1
                0x8085d74b        0xa drivers/gpio/built-in.o
 .rodata.omap_hsmmc_init_setup.str1.1
                0x8085d755       0x28 drivers/built-in.o
 .rodata.omap_hsmmc_send_cmd.str1.1
                0x8085d77d       0x9d drivers/built-in.o
 .rodata.omap_hsmmc_set_ios.str1.1
                0x8085d81a       0x1f drivers/built-in.o
 .rodata.omap_i2c_ofdata_to_platdata.str1.1
                0x8085d839       0x10 drivers/i2c/built-in.o
 .rodata.omap_i2c_probe.str1.1
                0x8085d839       0x45 drivers/i2c/built-in.o
 .rodata.omap_i2c_probe_chip.str1.1
                0x8085d87e       0x3e drivers/i2c/built-in.o
 .rodata.omap_i2c_xfer.str1.1
                0x8085d8bc      0x191 drivers/i2c/built-in.o
 .rodata.omap_mmc_init.str1.1
                0x8085da4d       0x1a drivers/built-in.o
 .rodata.omap_serial_ofdata_to_platdata.str1.1
                0x8085da67       0x1b drivers/serial/built-in.o
 .rodata.on_baudrate.str1.1
                0x8085da67       0x42 drivers/serial/built-in.o
                                 0x74 (size before relaxing)
 .rodata.on_callbacks.str1.1
                0x8085daa9      0x105 env/built-in.o
 .rodata.on_console.str1.1
                0x8085dbae        0x7 common/built-in.o
                                 0x27 (size before relaxing)
 .rodata.on_ethaddr.str1.1
                0x8085dbae        0x4 net/built-in.o
 .rodata.on_flags.str1.1
                0x8085dbae       0x50 env/built-in.o
 .rodata.overlay_adjust_node_phandles.str1.1
                0x8085dbfe        0xe lib/built-in.o
                                 0x16 (size before relaxing)
 .rodata.overlay_get_target.str1.1
                0x8085dc0c       0x13 lib/built-in.o
 .rodata.parse_attr.str1.1
                0x8085dc1f       0x1a lib/built-in.o
                                 0x23 (size before relaxing)
 .rodata.parse_integer.str1.1
                0x8085dc39       0x17 cmd/built-in.o
 .rodata.parse_pxefile_top.str1.1
                0x8085dc50       0x89 cmd/built-in.o
                                 0x8b (size before relaxing)
 .rodata.parse_sliteral.str1.1
                0x8085dcd9       0x1f cmd/built-in.o
 .rodata.parse_stream_outer.str1.1
                0x8085dcf8       0x4d common/built-in.o
 .rodata.parse_string_outer.str1.1
                0x8085dd45        0x2 common/built-in.o
 .rodata.part_get_info_by_name_or_alias.str1.1
                0x8085dd45       0x1a drivers/built-in.o
 .rodata.part_get_info_efi.str1.1
                0x8085dd5f        0xa disk/built-in.o
 .rodata.part_get_info_extended.str1.1
                0x8085dd5f        0xa disk/built-in.o
                                 0x11 (size before relaxing)
 .rodata.part_get_info_iso_verb.str1.1
                0x8085dd69      0x1bf disk/built-in.o
                                0x1c6 (size before relaxing)
 .rodata.part_get_info_whole_disk.str1.1
                0x8085df28        0xb disk/built-in.o
                                 0x12 (size before relaxing)
 .rodata.part_print.str1.1
                0x8085df33       0x8e disk/built-in.o
                                 0x97 (size before relaxing)
 .rodata.part_print_dos.str1.1
                0x8085dfc1       0x2a disk/built-in.o
 .rodata.part_print_efi.str1.1
                0x8085dfeb       0xf9 disk/built-in.o
 .rodata.part_print_iso.str1.1
                0x8085e0e4       0x68 disk/built-in.o
 .rodata.part_set_generic_name.str1.1
                0x8085e14c        0x7 disk/built-in.o
                                  0xa (size before relaxing)
 .rodata.phy_connect.str1.1
                0x8085e153       0x23 drivers/net/phy/built-in.o
 .rodata.phy_connect_dev.str1.1
                0x8085e176       0x2f drivers/net/phy/built-in.o
 .rodata.phy_reset.str1.1
                0x8085e1a5       0x15 drivers/net/phy/built-in.o
 .rodata.ping_start.str1.1
                0x8085e1ba       0x11 net/built-in.o
 .rodata.print_buffer.str1.1
                0x8085e1ba        0x6 lib/built-in.o
                                 0x17 (size before relaxing)
 .rodata.print_cpuinfo.str1.1
                0x8085e1c0       0x3b arch/arm/mach-omap2/built-in.o
                                 0x3d (size before relaxing)
 .rodata.print_data.part.0.str1.1
                0x8085e1fb       0x25 cmd/built-in.o
                                 0x32 (size before relaxing)
 .rodata.print_freq.str1.1
                0x8085e220       0x1b lib/built-in.o
 .rodata.print_hex_dump.str1.1
                0x8085e23b       0x16 lib/built-in.o
                                 0x1c (size before relaxing)
 .rodata.print_jrnl_status.str1.1
                0x8085e251       0x34 fs/built-in.o
 .rodata.print_mmc_devices.str1.1
                0x8085e285        0xd drivers/built-in.o
                                 0x1c (size before relaxing)
 .rodata.print_num.str1.1
                0x8085e292       0x10 cmd/built-in.o
 .rodata.print_partition_extended.str1.1
                0x8085e2a2       0x83 disk/built-in.o
                                 0x84 (size before relaxing)
 .rodata.print_size.str1.1
                0x8085e325       0x15 lib/built-in.o
 .rodata.product
                0x8085e33a       0x14 drivers/usb/gadget/built-in.o
 .rodata.put_ext4.str1.1
                0x8085e34e       0x42 fs/built-in.o
 .rodata.read_allocated_block.str1.1
                0x8085e390      0x240 fs/built-in.o
 .rodata.read_bootsectandvi.str1.1
                0x8085e5d0       0x1b fs/built-in.o
 .rodata.readdir_callback.str1.1
                0x8085e5eb       0xa7 fs/built-in.o
                                 0xab (size before relaxing)
 .rodata.realloc.str1.1
                0x8085e692       0x25 common/built-in.o
 .rodata.reboot_bootloader.str1.1
                0x8085e6b7       0x17 drivers/built-in.o
 .rodata.reg_map_ip_v1
                0x8085e6ce       0x11 drivers/i2c/built-in.o
 .rodata.reg_map_ip_v2
                0x8085e6df       0x16 drivers/i2c/built-in.o
 .rodata.regex_callback.str1.1
                0x8085e6f5        0x5 env/built-in.o
                                 0x20 (size before relaxing)
 .rodata.regex_sub.str1.1
                0x8085e6fa       0xbd cmd/built-in.o
 .rodata.request_and_set_gpio.str1.1
                0x8085e7b7       0x3b board/ti/am335x/built-in.o
 .rodata.rndis_command_complete.str1.1
                0x8085e7f2       0x19 drivers/usb/gadget/built-in.o
 .rodata.rndis_control_ack_complete.str1.1
                0x8085e80b       0x17 drivers/usb/gadget/built-in.o
 .rodata.rndis_control_intf
                0x8085e822        0x9 drivers/usb/gadget/built-in.o
 .rodata.rndis_data_intf
                0x8085e82b        0x9 drivers/usb/gadget/built-in.o
 .rodata.rtc32k_enable.str1.1
                0x8085e834        0x9 board/ti/am335x/built-in.o
 .rodata.rtc_days_in_month
                0x8085e83d        0xc drivers/built-in.o
 .rodata.run_list_real.str1.1
                0x8085e849       0x45 common/built-in.o
                                 0x4b (size before relaxing)
 .rodata.run_usb_dnl_gadget.str1.1
                0x8085e88e       0x51 common/built-in.o
 .rodata.rx_handler_command.str1.1
                0x8085e8df       0x10 drivers/usb/gadget/built-in.o
                                 0x1a (size before relaxing)
 .rodata.rx_handler_dl_image.str1.1
                0x8085e8ef       0x10 drivers/usb/gadget/built-in.o
 .rodata.rx_submit.constprop.0.isra.0.str1.1
                0x8085e8ff       0x11 drivers/usb/gadget/built-in.o
 .rodata.search_dir.str1.1
                0x8085e910       0x1b fs/built-in.o
 .rodata.serial_init.str1.1
                0x8085e92b       0x23 drivers/serial/built-in.o
                                 0x2b (size before relaxing)
 .rodata.set_board_info_env.str1.1
                0x8085e94e       0x15 board/ti/common/built-in.o
                                 0x22 (size before relaxing)
 .rodata.set_contents.str1.1
                0x8085e963       0x3b fs/built-in.o
 .rodata.set_default_env.str1.1
                0x8085e99e       0x2e env/built-in.o
                                 0x5f (size before relaxing)
 .rodata.set_ether_config.constprop.0.str1.1
                0x8085e9cc       0x15 drivers/usb/gadget/built-in.o
 .rodata.set_gpt_info.constprop.0.str1.1
                0x8085e9e1       0x8e cmd/built-in.o
                                 0xb0 (size before relaxing)
 .rodata.set_local_var.str1.1
                0x8085ea6f       0x59 common/built-in.o
 .rodata.set_working_fdt_addr.str1.1
                0x8085eac8        0x8 cmd/built-in.o
 .rodata.setup_clock_synthesizer.str1.1
                0x8085ead0       0x63 arch/arm/mach-omap2/built-in.o
 .rodata.sha1_padding
                0x8085eb33       0x40 lib/built-in.o
 .rodata.show_board_info.str1.1
                0x8085eb73        0xb common/built-in.o
                                 0x11 (size before relaxing)
 .rodata.show_bus.str1.1
                0x8085eb7e       0x3f cmd/built-in.o
                                 0x41 (size before relaxing)
 .rodata.show_devices.str1.1
                0x8085ebbd       0x33 drivers/built-in.o
                                 0x3c (size before relaxing)
 .rodata.show_dram_config.str1.1
                0x8085ebf0        0x1 common/built-in.o
 .rodata.show_regs.str1.1
                0x8085ebf0      0x114 arch/arm/lib/built-in.o
                                0x140 (size before relaxing)
 .rodata.simple_bus_post_bind.str1.1
                0x8085ed04        0x7 drivers/built-in.o
 .rodata.smbios_write_type0.str1.1
                0x8085ed04        0xb lib/built-in.o
                                 0x32 (size before relaxing)
 .rodata.smbios_write_type1.str1.1
                0x8085ed0f        0x8 lib/built-in.o
 .rodata.smbios_write_type2.str1.1
                0x8085ed0f        0x7 lib/built-in.o
 .rodata.smbios_write_type3.str1.1
                0x8085ed16       0x38 lib/built-in.o
                                  0x3 (size before relaxing)
 .rodata.smbios_write_type4.str1.1
                0x8085ed16        0x8 lib/built-in.o
 .rodata.source.str1.1
                0x8085ed16      0x106 cmd/built-in.o
                                0x124 (size before relaxing)
 .rodata.spi_nor_3to4_erase.0
                0x8085ee1c        0x6 drivers/mtd/spi/built-in.o
 .rodata.spi_nor_3to4_program.1
                0x8085ee22        0x6 drivers/mtd/spi/built-in.o
 .rodata.spi_nor_3to4_read.2
                0x8085ee28       0x12 drivers/mtd/spi/built-in.o
 .rodata.spi_nor_scan.str1.1
                0x8085ee3a       0xa4 drivers/mtd/spi/built-in.o
                                 0xa7 (size before relaxing)
 .rodata.spi_nor_wait_till_ready.str1.1
                0x8085eede       0x1b drivers/mtd/spi/built-in.o
 .rodata.spi_setup_slave.str1.1
                0x8085eef9       0xf9 drivers/spi/built-in.o
 .rodata.spi_xfer.str1.1
                0x8085eff2       0x63 drivers/spi/built-in.o
 .rodata.split_filename.isra.0.str1.1
                0x8085f055        0x2 fs/built-in.o
 .rodata.state_dfu_manifest.str1.1
                0x8085f055       0x24 drivers/usb/gadget/built-in.o
 .rodata.stdio_add_devices.str1.1
                0x8085f079        0x7 common/built-in.o
 .rodata.store_char_in_data.str1.1
                0x8085f079       0x1f lib/built-in.o
 .rodata.str1.1
                0x8085f098       0xeb arch/arm/lib/built-in.o
 .rodata.str1.1
                0x8085f183       0x22 arch/arm/mach-omap2/built-in.o
                                 0x2c (size before relaxing)
 .rodata.str1.1
                0x8085f1a5     0x41a5 cmd/built-in.o
                               0x4558 (size before relaxing)
 .rodata.str1.1
                0x8086334a      0x880 common/built-in.o
                                0x90c (size before relaxing)
 .rodata.str1.1
                0x80863bca       0x1f disk/built-in.o
                                 0x22 (size before relaxing)
 .rodata.str1.1
                0x80863be9      0x256 drivers/built-in.o
                                0x28d (size before relaxing)
 .rodata.str1.1
                0x80863e3f       0x41 drivers/gpio/built-in.o
                                 0x5b (size before relaxing)
 .rodata.str1.1
                0x80863e80       0x2f drivers/i2c/built-in.o
 .rodata.str1.1
                0x80863eaf       0xe1 drivers/mtd/spi/built-in.o
 .rodata.str1.1
                0x80863f90      0x16c drivers/net/phy/built-in.o
                                0x185 (size before relaxing)
 .rodata.str1.1
                0x808640fc       0xca drivers/serial/built-in.o
                                 0xda (size before relaxing)
 .rodata.str1.1
                0x808641c6       0x2b drivers/usb/gadget/built-in.o
                                 0x51 (size before relaxing)
 .rodata.str1.1
                0x808641f1        0x4 drivers/usb/gadget/udc/built-in.o
 .rodata.str1.1
                0x808641f1       0x1f drivers/usb/musb-new/built-in.o
                                 0x2c (size before relaxing)
 .rodata.str1.1
                0x80864210        0xb env/built-in.o
                                 0x15 (size before relaxing)
 .rodata.str1.1
                0x80864210       0x12 fs/built-in.o
                                 0x1b (size before relaxing)
 .rodata.str1.1
                0x80864222      0x49b lib/built-in.o
                                0x4a3 (size before relaxing)
 .rodata.str1.1
                0x808646bd        0x6 net/built-in.o
                                 0x35 (size before relaxing)
 .rodata.string.str1.1
                0x808646c3        0x7 lib/built-in.o
 .rodata.submit_urb.constprop.0.str1.1
                0x808646ca       0x25 drivers/usb/musb-new/built-in.o
 .rodata.substitute.str1.1
                0x808646ef       0x28 cmd/built-in.o
 .rodata.syntax_err.str1.1
                0x80864717        0xe common/built-in.o
 .rodata.tab_seq
                0x80864725        0x9 common/built-in.o
 .rodata.test_block_type.str1.1
                0x8086472e        0xa disk/built-in.o
 .rodata.tftp_handler.str1.1
                0x80864738       0x9a net/built-in.o
                                 0xa8 (size before relaxing)
 .rodata.tftp_send.str1.1
                0x808647d2       0x36 net/built-in.o
                                 0x42 (size before relaxing)
 .rodata.tftp_start.str1.1
                0x80864808       0xe8 net/built-in.o
                                0x181 (size before relaxing)
 .rodata.tftp_timeout_handler.str1.1
                0x808648f0       0x2a net/built-in.o
                                 0x2d (size before relaxing)
 .rodata.typestr.4
                0x8086491a       0x24 fs/built-in.o
 .rodata.u_boot_hush_start.str1.1
                0x8086493e       0x12 common/built-in.o
 .rodata.uclass_resolve_seq.str1.1
                0x80864950       0x27 drivers/built-in.o
 .rodata.union_desc
                0x80864977        0x5 drivers/usb/gadget/built-in.o
 .rodata.update_tftp.str1.1
                0x8086497c      0x170 common/built-in.o
                                0x186 (size before relaxing)
 .rodata.us_direction
                0x80864aec       0x20 common/built-in.o
 .rodata.usb_alloc_new_device.str1.1
                0x80864b0c       0x25 common/built-in.o
 .rodata.usb_composite_register.str1.1
                0x80864b31        0xa drivers/usb/gadget/built-in.o
 .rodata.usb_display_class_sub.str1.1
                0x80864b3b       0xb6 cmd/built-in.o
                                 0xbc (size before relaxing)
 .rodata.usb_display_config.str1.1
                0x80864bf1      0x105 cmd/built-in.o
                                0x118 (size before relaxing)
 .rodata.usb_display_desc.str1.1
                0x80864cf6       0xac cmd/built-in.o
                                 0xae (size before relaxing)
 .rodata.usb_display_string.str1.1
                0x80864da2        0xd cmd/built-in.o
 .rodata.usb_eth_init.str1.1
                0x80864daf       0xab drivers/usb/gadget/built-in.o
                                 0xba (size before relaxing)
 .rodata.usb_eth_initialize.str1.1
                0x80864e5a        0xa drivers/usb/gadget/built-in.o
 .rodata.usb_eth_recv.str1.1
                0x80864e64       0x14 drivers/usb/gadget/built-in.o
 .rodata.usb_eth_send.str1.1
                0x80864e78       0x49 drivers/usb/gadget/built-in.o
 .rodata.usb_find_usb2_hub_address_port.str1.1
                0x80864ec1       0x36 common/built-in.o
 .rodata.usb_gadget_register_driver.str1.1
                0x80864ef7       0x5c drivers/usb/musb-new/built-in.o
 .rodata.usb_get_class_desc.str1.1
                0x80864f53       0x64 cmd/built-in.o
                                 0x65 (size before relaxing)
 .rodata.usb_get_configuration_len.str1.1
                0x80864fb7       0x58 common/built-in.o
 .rodata.usb_hub_configure.str1.1
                0x8086500f       0x80 common/built-in.o
 .rodata.usb_hub_port_connect_change.str1.1
                0x8086508f       0x39 common/built-in.o
 .rodata.usb_init.str1.1
                0x808650c8       0xb3 common/built-in.o
 .rodata.usb_select_config.str1.1
                0x8086517b      0x220 common/built-in.o
 .rodata.usb_set_interface.str1.1
                0x8086539b       0x1f common/built-in.o
 .rodata.usb_setup_descriptor.str1.1
                0x808653ba       0x1d common/built-in.o
 .rodata.usb_setup_device.str1.1
                0x808653d7       0x68 common/built-in.o
 .rodata.usb_show_tree_graph.str1.1
                0x8086543f       0x2b cmd/built-in.o
                                 0x3a (size before relaxing)
 .rodata.usb_stop.str1.1
                0x8086546a       0x22 common/built-in.o
 .rodata.usb_stor_CBI_get_status.str1.1
                0x8086548c       0x1f common/built-in.o
 .rodata.usb_stor_CB_transport.str1.1
                0x808654ab       0x6e common/built-in.o
 .rodata.usb_stor_get_info.str1.1
                0x80865519       0x5d common/built-in.o
 .rodata.usb_stor_info.str1.1
                0x80865576       0x32 common/built-in.o
                                 0x40 (size before relaxing)
 .rodata.usb_stor_scan.str1.1
                0x808655a8       0x75 common/built-in.o
 .rodata.usb_storage_probe.str1.1
                0x8086561d       0x5c common/built-in.o
 .rodata.uuid_bin_to_str.str1.1
                0x80865679        0x5 lib/built-in.o
 .rodata.valid_elf_image.str1.1
                0x80865679       0x52 cmd/built-in.o
 .rodata.validate_gpt_entries.str1.1
                0x808656cb       0x40 disk/built-in.o
 .rodata.validate_gpt_header.str1.1
                0x8086570b       0xe1 disk/built-in.o
 .rodata.var_complete.str1.1
                0x808657ec        0x1 common/built-in.o
 .rodata.verify_dir_item.str1.1
                0x808657ec       0x42 fs/built-in.o
 .rodata.version_string
                0x8086582e       0x46 cmd/built-in.o
                0x8086582e                version_string
 .rodata.vsc8531_config.str1.1
                0x80865874       0x32 drivers/net/phy/built-in.o
 .rodata.vsc8531_vsc8541_mac_config.str1.1
                0x808658a6       0x33 drivers/net/phy/built-in.o
 .rodata.vsc8541_config.str1.1
                0x808658d9       0x2f drivers/net/phy/built-in.o
 .rodata.vsc8574_config_pre_init.str1.1
                0x80865908       0x25 drivers/net/phy/built-in.o
                                 0x21 (size before relaxing)
 .rodata.vsc8584_patch_fw.isra.0.str1.1
                0x80865908       0x25 drivers/net/phy/built-in.o
 .rodata.wait_for_bb.str1.1
                0x8086592d       0x1e drivers/i2c/built-in.o
 .rodata.wait_for_event.str1.1
                0x8086594b       0x37 drivers/i2c/built-in.o
 .rodata.write_gpt_table.str1.1
                0x80865982       0x55 disk/built-in.o
 .rodata.write_mbr_and_gpt_partitions.str1.1
                0x808659d7       0x78 disk/built-in.o
                                 0x7c (size before relaxing)
 .rodata.write_mbr_partition.str1.1
                0x80865a4f       0x2d disk/built-in.o
 .rodata.write_smbios_table.str1.1
                0x80865a7c        0xb lib/built-in.o
 .rodata.write_sparse_image.str1.1
                0x80865a87      0x1f9 lib/built-in.o
 .rodata.xmalloc.str1.1
                0x80865c80       0x1e common/built-in.o
 .rodata.xyzModem_error.str1.1
                0x80865c9e        0xe common/built-in.o
 .rodata.xyzModem_stream_close.str1.1
                0x80865cac       0x47 common/built-in.o
                                 0x4b (size before relaxing)
 .rodata.xyzModem_stream_open.str1.1
                0x80865cf3        0x2 common/built-in.o
 .rodata.zunzip.str1.1
                0x80865cf3       0x41 lib/built-in.o
                                 0x47 (size before relaxing)

.dtb.init.rodata
                0x80865d40     0x9750
 .dtb.init.rodata
                0x80865d40     0x9750 dts/built-in.o
                0x80865d40                __dtb_dt_begin
                0x8086f481                __dtb_dt_end
                0x8086f490                        . = ALIGN (0x4)

.data           0x8086f490     0x3f64
 *(.data*)
 .data.rel.ro   0x8086f490        0x0 arch/arm/cpu/armv7/start.o
 .data.cpsw_data
                0x8086f490       0x4c board/ti/am335x/built-in.o
 .data.cpsw_slaves
                0x8086f4dc       0x28 board/ti/am335x/built-in.o
 .data.cdce913_data
                0x8086f504       0x14 board/ti/am335x/built-in.o
 .data.cpu_revs_am43xx
                0x8086f518        0xc arch/arm/mach-omap2/built-in.o
 .data.cpu_revs
                0x8086f524        0xc arch/arm/mach-omap2/built-in.o
 .data.otg1_plat
                0x8086f530       0x20 arch/arm/mach-omap2/built-in.o
 .data.otg1_board_data
                0x8086f550       0x14 arch/arm/mach-omap2/built-in.o
                0x8086f550                otg1_board_data
 .data.otg0_plat
                0x8086f564       0x20 arch/arm/mach-omap2/built-in.o
 .data.otg0_board_data
                0x8086f584       0x14 arch/arm/mach-omap2/built-in.o
                0x8086f584                otg0_board_data
 .data.musb_config
                0x8086f598       0x18 arch/arm/mach-omap2/built-in.o
 .data.ctrl     0x8086f5b0        0x4 arch/arm/mach-omap2/built-in.o
                0x8086f5b0                ctrl
 .data.bootm_help_text
                0x8086f5b4      0x4cf cmd/built-in.o
 *fill*         0x8086fa83        0x1 
 .data.cmd_bootm_sub
                0x8086fa84       0xfc cmd/built-in.o
 .data.source_help_text
                0x8086fb80       0xac cmd/built-in.o
 .data.bootefi_help_text
                0x8086fc2c      0x188 cmd/built-in.o
 .data.bootz_help_text
                0x8086fdb4      0x208 cmd/built-in.o
 .data.test_commands
                0x8086ffbc       0x54 cmd/built-in.o
 .data.tabs.0   0x80870010       0x21 cmd/built-in.o
 .data.root.1   0x80870031        0x2 cmd/built-in.o
 .data.fdt_help_text
                0x80870033      0x6a5 cmd/built-in.o
 .data.i2c_help_text
                0x808706d8      0x3ed cmd/built-in.o
 *fill*         0x80870ac5        0x3 
 .data.cmd_i2c_sub
                0x80870ac8      0x1a4 cmd/built-in.o
 .data.i2c_dp_last_length
                0x80870c6c        0x4 cmd/built-in.o
 .data.do_echo  0x80870c70        0x4 cmd/built-in.o
 .data.dp_last_length
                0x80870c74        0x4 cmd/built-in.o
 .data.cmd_mmc  0x80870c78      0x118 cmd/built-in.o
 .data.curr_device
                0x80870d90        0x4 cmd/built-in.o
 .data.cmd_pxe_sub
                0x80870d94       0x38 cmd/built-in.o
 .data.pxe_default_paths
                0x80870dcc       0x10 cmd/built-in.o
                0x80870dcc                pxe_default_paths
 .data.usb_stor_curr_dev
                0x80870ddc        0x4 cmd/built-in.o
 .data.fastboot_help_text
                0x80870de0       0xab cmd/built-in.o
 .data.imgextract_help_text
                0x80870e8b       0xb2 cmd/built-in.o
 *fill*         0x80870f3d        0x3 
 .data.cmd_spl_sub
                0x80870f40       0x1c cmd/built-in.o
 .data.cmd_spl_export_sub
                0x80870f5c       0x38 cmd/built-in.o
 .data.__compound_literal.1
                0x80870f94       0x1c cmd/built-in.o
 .data.__compound_literal.0
                0x80870fb0       0x20 cmd/built-in.o
 .data.env_help_text
                0x80870fd0      0x313 cmd/built-in.o
 *fill*         0x808712e3        0x1 
 .data.cmd_env_sub
                0x808712e4      0x134 cmd/built-in.o
 .data.env_id   0x80871418        0x4 cmd/built-in.o
 .data.hash_algo
                0x8087141c       0x70 common/built-in.o
 .data.reserved_list
                0x8087148c       0x84 common/built-in.o
 .data.init_sequence_r
                0x80871510       0x98 common/built-in.o
 .data.usb_scan_list
                0x808715a8        0x8 common/built-in.o
 .data.hist_cur
                0x808715b0        0x4 common/built-in.o
 .data.sbrk_base
                0x808715b4        0x4 common/built-in.o
 .data.trim_threshold
                0x808715b8        0x4 common/built-in.o
 .data.av_      0x808715bc      0x408 common/built-in.o
 .data.load_addr
                0x808719c4        0x4 common/built-in.o
                0x808719c4                load_addr
 .data.stdio_names
                0x808719c8        0xc common/built-in.o
                0x808719c8                stdio_names
 .data.dfu_list
                0x808719d4        0x8 drivers/built-in.o
 .data.cur_dev_num
                0x808719dc        0x4 drivers/built-in.o
 .data.wdt_trgr_pattern
                0x808719e0        0x4 drivers/built-in.o
 .data          0x808719e4        0x4 drivers/i2c/built-in.o
 .data.phy_drivers
                0x808719e8        0x8 drivers/net/phy/built-in.o
 .data.genphy_driver
                0x808719f0       0x34 drivers/net/phy/built-in.o
 .data.AR8035_driver
                0x80871a24       0x34 drivers/net/phy/built-in.o
 .data.AR8031_driver
                0x80871a58       0x34 drivers/net/phy/built-in.o
 .data.AR8021_driver
                0x80871a8c       0x34 drivers/net/phy/built-in.o
 .data.lan8742_driver
                0x80871ac0       0x34 drivers/net/phy/built-in.o
 .data.lan8741_driver
                0x80871af4       0x34 drivers/net/phy/built-in.o
 .data.lan8740_driver
                0x80871b28       0x34 drivers/net/phy/built-in.o
 .data.lan8710_driver
                0x80871b5c       0x34 drivers/net/phy/built-in.o
 .data.lan911x_driver
                0x80871b90       0x34 drivers/net/phy/built-in.o
 .data.lan8700_driver
                0x80871bc4       0x34 drivers/net/phy/built-in.o
 .data.VSC8584_driver
                0x80871bf8       0x34 drivers/net/phy/built-in.o
 .data.VSC8574_driver
                0x80871c2c       0x34 drivers/net/phy/built-in.o
 .data.VSC8541_driver
                0x80871c60       0x34 drivers/net/phy/built-in.o
 .data.VSC8540_driver
                0x80871c94       0x34 drivers/net/phy/built-in.o
 .data.VSC8531_driver
                0x80871cc8       0x34 drivers/net/phy/built-in.o
 .data.VSC8530_driver
                0x80871cfc       0x34 drivers/net/phy/built-in.o
 .data.vsc8584_priv
                0x80871d30        0x4 drivers/net/phy/built-in.o
 .data.vsc8574_priv
                0x80871d34        0x4 drivers/net/phy/built-in.o
 .data.g_dnl_driver
                0x80871d38       0x20 drivers/usb/gadget/built-in.o
 .data.g_dnl_composite_strings
                0x80871d58        0x8 drivers/usb/gadget/built-in.o
 .data.g_dnl_string_tab
                0x80871d60        0x8 drivers/usb/gadget/built-in.o
 .data.g_dnl_string_defs
                0x80871d68       0x20 drivers/usb/gadget/built-in.o
 .data.device_desc
                0x80871d88       0x24 drivers/usb/gadget/built-in.o
 .data.composite_driver
                0x80871dac       0x24 drivers/usb/gadget/built-in.o
 .data.dfu_strings
                0x80871dd0        0x8 drivers/usb/gadget/built-in.o
 .data.stringtab_dfu
                0x80871dd8        0x8 drivers/usb/gadget/built-in.o
 .data.dfu_generic_strings
                0x80871de0        0x8 drivers/usb/gadget/built-in.o
 .data.stringtab_dfu_generic
                0x80871de8        0x8 drivers/usb/gadget/built-in.o
 .data.strings_dfu_generic
                0x80871df0       0x10 drivers/usb/gadget/built-in.o
 .data.dfu_runtime_descs
                0x80871e00        0x8 drivers/usb/gadget/built-in.o
 .data.dfu_intf_runtime
                0x80871e08        0x9 drivers/usb/gadget/built-in.o
 *fill*         0x80871e11        0x3 
 .data.fastboot_strings
                0x80871e14        0x8 drivers/usb/gadget/built-in.o
 .data.stringtab_fastboot
                0x80871e1c        0x8 drivers/usb/gadget/built-in.o
 .data.fastboot_string_defs
                0x80871e24       0x10 drivers/usb/gadget/built-in.o
 .data.fb_hs_function
                0x80871e34       0x10 drivers/usb/gadget/built-in.o
 .data.fb_fs_function
                0x80871e44        0xc drivers/usb/gadget/built-in.o
 .data.interface_desc
                0x80871e50        0x9 drivers/usb/gadget/built-in.o
 .data.hs_ep_out
                0x80871e59        0x9 drivers/usb/gadget/built-in.o
 .data.hs_ep_in
                0x80871e62        0x9 drivers/usb/gadget/built-in.o
 .data.fs_ep_out
                0x80871e6b        0x9 drivers/usb/gadget/built-in.o
 .data.fs_ep_in
                0x80871e74        0x9 drivers/usb/gadget/built-in.o
 *fill*         0x80871e7d        0x3 
 .data.stringtab
                0x80871e80        0x8 drivers/usb/gadget/built-in.o
 .data.strings  0x80871e88       0x40 drivers/usb/gadget/built-in.o
 .data.product_desc
                0x80871ec8       0x28 drivers/usb/gadget/built-in.o
 .data.hs_rndis_function
                0x80871ef0       0x2c drivers/usb/gadget/built-in.o
 .data.hs_eth_function
                0x80871f1c       0x2c drivers/usb/gadget/built-in.o
 .data.dev_qualifier
                0x80871f48        0xa drivers/usb/gadget/built-in.o
 .data.hs_sink_desc
                0x80871f52        0x9 drivers/usb/gadget/built-in.o
 .data.hs_source_desc
                0x80871f5b        0x9 drivers/usb/gadget/built-in.o
 .data.hs_status_desc
                0x80871f64        0x9 drivers/usb/gadget/built-in.o
 *fill*         0x80871f6d        0x3 
 .data.fs_rndis_function
                0x80871f70       0x2c drivers/usb/gadget/built-in.o
 .data.fs_eth_function
                0x80871f9c       0x2c drivers/usb/gadget/built-in.o
 .data.fs_sink_desc
                0x80871fc8        0x9 drivers/usb/gadget/built-in.o
 .data.fs_source_desc
                0x80871fd1        0x9 drivers/usb/gadget/built-in.o
 .data.fs_status_desc
                0x80871fda        0x9 drivers/usb/gadget/built-in.o
 .data.rndis_config
                0x80871fe3        0x9 drivers/usb/gadget/built-in.o
 .data.eth_config
                0x80871fec        0x9 drivers/usb/gadget/built-in.o
 .data.otg_descriptor
                0x80871ff5        0x3 drivers/usb/gadget/built-in.o
 .data.l_priv   0x80871ff8        0x4 drivers/usb/gadget/built-in.o
                0x80871ff8                l_priv
 .data.ep0_cfg  0x80871ffc        0x6 drivers/usb/musb-new/built-in.o
 .data.mode_5_cfg
                0x80872002       0xa2 drivers/usb/musb-new/built-in.o
 .data.mode_4_cfg
                0x808720a4       0xa2 drivers/usb/musb-new/built-in.o
 .data.mode_3_cfg
                0x80872146       0x24 drivers/usb/musb-new/built-in.o
 .data.mode_2_cfg
                0x8087216a       0x24 drivers/usb/musb-new/built-in.o
 .data.mode_1_cfg
                0x8087218e       0x1e drivers/usb/musb-new/built-in.o
 .data.mode_0_cfg
                0x808721ac       0x1e drivers/usb/musb-new/built-in.o
 .data.fifo_mode
                0x808721ca        0x2 drivers/usb/musb-new/built-in.o
 .data.musb_dsps_ops
                0x808721cc       0x2c drivers/usb/musb-new/built-in.o
                0x808721cc                musb_dsps_ops
 .data.env_htab
                0x808721f8       0x10 env/built-in.o
                0x808721f8                env_htab
 .data.first_call
                0x80872208        0x8 env/built-in.o
 .data.fstypes  0x80872210      0x100 fs/built-in.o
 .data.prev_inode_bitmap_index.1
                0x80872310        0x4 fs/built-in.o
 .data.prev_bg_bitmap_index.2
                0x80872314        0x4 fs/built-in.o
 .data.ext4fs_indir3_blkno
                0x80872318        0x4 fs/built-in.o
                0x80872318                ext4fs_indir3_blkno
 .data.ext4fs_indir2_blkno
                0x8087231c        0x4 fs/built-in.o
                0x8087231c                ext4fs_indir2_blkno
 .data.ext4fs_indir1_blkno
                0x80872320        0x4 fs/built-in.o
                0x80872320                ext4fs_indir1_blkno
 .data.prev_bg_bmap_idx.0
                0x80872324        0x4 fs/built-in.o
 .data.prev_bg_bmap_idx.1
                0x80872328        0x4 fs/built-in.o
 .data.prev_bg_bmap_idx.2
                0x8087232c        0x4 fs/built-in.o
 .data.prev_bg_bmap_idx.3
                0x80872330        0x4 fs/built-in.o
 .data.first_node
                0x80872334        0x4 fs/built-in.o
 .data.efi_boot_services
                0x80872338       0xc8 lib/built-in.o
 .data.entry_count
                0x80872400        0x4 lib/built-in.o
 .data.efi_is_direct_boot
                0x80872404        0x1 lib/built-in.o
 *fill*         0x80872405        0x3 
 .data.efi_events
                0x80872408        0x8 lib/built-in.o
                0x80872408                efi_events
 .data.efi_obj_list
                0x80872410        0x8 lib/built-in.o
                0x80872410                efi_obj_list
 .data.efi_tpl  0x80872418        0x4 lib/built-in.o
 .data.efi_con_in
                0x8087241c        0xc lib/built-in.o
                0x8087241c                efi_con_in
 .data.efi_con_in_ex
                0x80872428       0x18 lib/built-in.o
 .data.cin_notify_functions
                0x80872440        0x8 lib/built-in.o
 .data.efi_con_out
                0x80872448       0x28 lib/built-in.o
                0x80872448                efi_con_out
 .data.efi_con_mode
                0x80872470       0x18 lib/built-in.o
 .data.efi_cout_modes
                0x80872488       0x24 lib/built-in.o
 .data.efi_mem  0x808724ac        0x8 lib/built-in.o
                0x808724ac                efi_mem
 .data.lastoff.1
                0x808724b4        0x4 lib/built-in.o
 .data.efi_obj_list_initialized
                0x808724b8        0x4 lib/built-in.o
 .data.capitalization_table
                0x808724bc      0xed0 lib/built-in.o
 .data.sha256_padding
                0x8087338c       0x40 lib/built-in.o
 .data.y        0x808733cc        0x4 lib/built-in.o
 .data.first_call.0
                0x808733d0        0x4 net/built-in.o
 .data.net_native_vlan
                0x808733d4        0x2 net/built-in.o
                0x808733d4                net_native_vlan
 .data.net_our_vlan
                0x808733d6        0x2 net/built-in.o
                0x808733d6                net_our_vlan
 .data.supported_nfs_versions
                0x808733d8        0x1 net/built-in.o
 *fill*         0x808733d9        0x3 
 .data.nfs_offset
                0x808733dc        0x4 net/built-in.o
 .data.tftp_block_size_option
                0x808733e0        0x2 net/built-in.o
 .data.tftp_block_size
                0x808733e2        0x2 net/built-in.o
 .data.tftp_timeout_count_max
                0x808733e4        0x4 net/built-in.o
                0x808733e4                tftp_timeout_count_max
 .data.tftp_timeout_ms
                0x808733e8        0x4 net/built-in.o
                0x808733e8                tftp_timeout_ms
 .data.timeout_count_max
                0x808733ec        0x4 net/built-in.o
 .data.timeout_ms
                0x808733f0        0x4 net/built-in.o

.got            0x808733f4        0x0
 .got           0x808733f4        0x0 arch/arm/cpu/armv7/start.o

.got.plt        0x808733f4        0xc
 .got.plt       0x808733f4        0xc arch/arm/cpu/armv7/start.o
                0x808733f4                _GLOBAL_OFFSET_TABLE_

.igot.plt       0x80873400        0x0
 .igot.plt      0x80873400        0x0 arch/arm/cpu/armv7/start.o
                0x80873400                        . = ALIGN (0x4)
                0x80873400                        . = .
                0x80873400                        . = ALIGN (0x4)

.u_boot_list    0x80873400      0xf6c
 *(SORT_BY_NAME(.u_boot_list*))
 .u_boot_list_2_blk_driver_1
                0x80873400        0x0 drivers/built-in.o
 .u_boot_list_2_blk_driver_2_mmc
                0x80873400       0x18 drivers/built-in.o
                0x80873400                _u_boot_list_2_blk_driver_2_mmc
 .u_boot_list_2_blk_driver_2_usb
                0x80873418       0x18 common/built-in.o
                0x80873418                _u_boot_list_2_blk_driver_2_usb
 .u_boot_list_2_blk_driver_3
                0x80873430        0x0 drivers/built-in.o
 .u_boot_list_2_cmd_1
                0x80873430        0x0 cmd/built-in.o
 .u_boot_list_2_cmd_1
                0x80873430        0x0 common/built-in.o
 .u_boot_list_2_cmd_2_askenv
                0x80873430       0x1c cmd/built-in.o
                0x80873430                _u_boot_list_2_cmd_2_askenv
 .u_boot_list_2_cmd_2_base
                0x8087344c       0x1c cmd/built-in.o
                0x8087344c                _u_boot_list_2_cmd_2_base
 .u_boot_list_2_cmd_2_bdinfo
                0x80873468       0x1c cmd/built-in.o
                0x80873468                _u_boot_list_2_cmd_2_bdinfo
 .u_boot_list_2_cmd_2_boot
                0x80873484       0x1c cmd/built-in.o
                0x80873484                _u_boot_list_2_cmd_2_boot
 .u_boot_list_2_cmd_2_bootd
                0x808734a0       0x1c cmd/built-in.o
                0x808734a0                _u_boot_list_2_cmd_2_bootd
 .u_boot_list_2_cmd_2_bootefi
                0x808734bc       0x1c cmd/built-in.o
                0x808734bc                _u_boot_list_2_cmd_2_bootefi
 .u_boot_list_2_cmd_2_bootelf
                0x808734d8       0x1c cmd/built-in.o
                0x808734d8                _u_boot_list_2_cmd_2_bootelf
 .u_boot_list_2_cmd_2_bootm
                0x808734f4       0x1c cmd/built-in.o
                0x808734f4                _u_boot_list_2_cmd_2_bootm
 .u_boot_list_2_cmd_2_bootp
                0x80873510       0x1c cmd/built-in.o
                0x80873510                _u_boot_list_2_cmd_2_bootp
 .u_boot_list_2_cmd_2_bootvx
                0x8087352c       0x1c cmd/built-in.o
                0x8087352c                _u_boot_list_2_cmd_2_bootvx
 .u_boot_list_2_cmd_2_bootz
                0x80873548       0x1c cmd/built-in.o
                0x80873548                _u_boot_list_2_cmd_2_bootz
 .u_boot_list_2_cmd_2_btrsubvol
                0x80873564       0x1c cmd/built-in.o
                0x80873564                _u_boot_list_2_cmd_2_btrsubvol
 .u_boot_list_2_cmd_2_cmp
                0x80873580       0x1c cmd/built-in.o
                0x80873580                _u_boot_list_2_cmd_2_cmp
 .u_boot_list_2_cmd_2_coninfo
                0x8087359c       0x1c cmd/built-in.o
                0x8087359c                _u_boot_list_2_cmd_2_coninfo
 .u_boot_list_2_cmd_2_cp
                0x808735b8       0x1c cmd/built-in.o
                0x808735b8                _u_boot_list_2_cmd_2_cp
 .u_boot_list_2_cmd_2_crc32
                0x808735d4       0x1c cmd/built-in.o
                0x808735d4                _u_boot_list_2_cmd_2_crc32
 .u_boot_list_2_cmd_2_dfu
                0x808735f0       0x1c cmd/built-in.o
                0x808735f0                _u_boot_list_2_cmd_2_dfu
 .u_boot_list_2_cmd_2_dhcp
                0x8087360c       0x1c cmd/built-in.o
                0x8087360c                _u_boot_list_2_cmd_2_dhcp
 .u_boot_list_2_cmd_2_dm
                0x80873628       0x1c cmd/built-in.o
                0x80873628                _u_boot_list_2_cmd_2_dm
 .u_boot_list_2_cmd_2_echo
                0x80873644       0x1c cmd/built-in.o
                0x80873644                _u_boot_list_2_cmd_2_echo
 .u_boot_list_2_cmd_2_editenv
                0x80873660       0x1c cmd/built-in.o
                0x80873660                _u_boot_list_2_cmd_2_editenv
 .u_boot_list_2_cmd_2_eeprom
                0x8087367c       0x1c cmd/built-in.o
                0x8087367c                _u_boot_list_2_cmd_2_eeprom
 .u_boot_list_2_cmd_2_env
                0x80873698       0x1c cmd/built-in.o
                0x80873698                _u_boot_list_2_cmd_2_env
 .u_boot_list_2_cmd_2_exit
                0x808736b4       0x1c cmd/built-in.o
                0x808736b4                _u_boot_list_2_cmd_2_exit
 .u_boot_list_2_cmd_2_ext2load
                0x808736d0       0x1c cmd/built-in.o
                0x808736d0                _u_boot_list_2_cmd_2_ext2load
 .u_boot_list_2_cmd_2_ext2ls
                0x808736ec       0x1c cmd/built-in.o
                0x808736ec                _u_boot_list_2_cmd_2_ext2ls
 .u_boot_list_2_cmd_2_ext4load
                0x80873708       0x1c cmd/built-in.o
                0x80873708                _u_boot_list_2_cmd_2_ext4load
 .u_boot_list_2_cmd_2_ext4ls
                0x80873724       0x1c cmd/built-in.o
                0x80873724                _u_boot_list_2_cmd_2_ext4ls
 .u_boot_list_2_cmd_2_ext4size
                0x80873740       0x1c cmd/built-in.o
                0x80873740                _u_boot_list_2_cmd_2_ext4size
 .u_boot_list_2_cmd_2_ext4write
                0x8087375c       0x1c cmd/built-in.o
                0x8087375c                _u_boot_list_2_cmd_2_ext4write
 .u_boot_list_2_cmd_2_false
                0x80873778       0x1c cmd/built-in.o
                0x80873778                _u_boot_list_2_cmd_2_false
 .u_boot_list_2_cmd_2_fastboot
                0x80873794       0x1c cmd/built-in.o
                0x80873794                _u_boot_list_2_cmd_2_fastboot
 .u_boot_list_2_cmd_2_fatinfo
                0x808737b0       0x1c cmd/built-in.o
                0x808737b0                _u_boot_list_2_cmd_2_fatinfo
 .u_boot_list_2_cmd_2_fatload
                0x808737cc       0x1c cmd/built-in.o
                0x808737cc                _u_boot_list_2_cmd_2_fatload
 .u_boot_list_2_cmd_2_fatls
                0x808737e8       0x1c cmd/built-in.o
                0x808737e8                _u_boot_list_2_cmd_2_fatls
 .u_boot_list_2_cmd_2_fatmkdir
                0x80873804       0x1c cmd/built-in.o
                0x80873804                _u_boot_list_2_cmd_2_fatmkdir
 .u_boot_list_2_cmd_2_fatrm
                0x80873820       0x1c cmd/built-in.o
                0x80873820                _u_boot_list_2_cmd_2_fatrm
 .u_boot_list_2_cmd_2_fatsize
                0x8087383c       0x1c cmd/built-in.o
                0x8087383c                _u_boot_list_2_cmd_2_fatsize
 .u_boot_list_2_cmd_2_fatwrite
                0x80873858       0x1c cmd/built-in.o
                0x80873858                _u_boot_list_2_cmd_2_fatwrite
 .u_boot_list_2_cmd_2_fdt
                0x80873874       0x1c cmd/built-in.o
                0x80873874                _u_boot_list_2_cmd_2_fdt
 .u_boot_list_2_cmd_2_fstype
                0x80873890       0x1c cmd/built-in.o
                0x80873890                _u_boot_list_2_cmd_2_fstype
 .u_boot_list_2_cmd_2_go
                0x808738ac       0x1c cmd/built-in.o
                0x808738ac                _u_boot_list_2_cmd_2_go
 .u_boot_list_2_cmd_2_gpio
                0x808738c8       0x1c cmd/built-in.o
                0x808738c8                _u_boot_list_2_cmd_2_gpio
 .u_boot_list_2_cmd_2_gpt
                0x808738e4       0x1c cmd/built-in.o
                0x808738e4                _u_boot_list_2_cmd_2_gpt
 .u_boot_list_2_cmd_2_help
                0x80873900       0x1c cmd/built-in.o
                0x80873900                _u_boot_list_2_cmd_2_help
 .u_boot_list_2_cmd_2_i2c
                0x8087391c       0x1c cmd/built-in.o
                0x8087391c                _u_boot_list_2_cmd_2_i2c
 .u_boot_list_2_cmd_2_iminfo
                0x80873938       0x1c cmd/built-in.o
                0x80873938                _u_boot_list_2_cmd_2_iminfo
 .u_boot_list_2_cmd_2_imxtract
                0x80873954       0x1c cmd/built-in.o
                0x80873954                _u_boot_list_2_cmd_2_imxtract
 .u_boot_list_2_cmd_2_itest
                0x80873970       0x1c cmd/built-in.o
                0x80873970                _u_boot_list_2_cmd_2_itest
 .u_boot_list_2_cmd_2_km_bootmenu
                0x8087398c       0x1c cmd/built-in.o
                0x8087398c                _u_boot_list_2_cmd_2_km_bootmenu
 .u_boot_list_2_cmd_2_lcd
                0x808739a8       0x1c cmd/built-in.o
                0x808739a8                _u_boot_list_2_cmd_2_lcd
 .u_boot_list_2_cmd_2_load
                0x808739c4       0x1c cmd/built-in.o
                0x808739c4                _u_boot_list_2_cmd_2_load
 .u_boot_list_2_cmd_2_loadb
                0x808739e0       0x1c cmd/built-in.o
                0x808739e0                _u_boot_list_2_cmd_2_loadb
 .u_boot_list_2_cmd_2_loads
                0x808739fc       0x1c cmd/built-in.o
                0x808739fc                _u_boot_list_2_cmd_2_loads
 .u_boot_list_2_cmd_2_loadx
                0x80873a18       0x1c cmd/built-in.o
                0x80873a18                _u_boot_list_2_cmd_2_loadx
 .u_boot_list_2_cmd_2_loady
                0x80873a34       0x1c cmd/built-in.o
                0x80873a34                _u_boot_list_2_cmd_2_loady
 .u_boot_list_2_cmd_2_loop
                0x80873a50       0x1c cmd/built-in.o
                0x80873a50                _u_boot_list_2_cmd_2_loop
 .u_boot_list_2_cmd_2_ls
                0x80873a6c       0x1c cmd/built-in.o
                0x80873a6c                _u_boot_list_2_cmd_2_ls
 .u_boot_list_2_cmd_2_md
                0x80873a88       0x1c cmd/built-in.o
                0x80873a88                _u_boot_list_2_cmd_2_md
 .u_boot_list_2_cmd_2_mdio
                0x80873aa4       0x1c cmd/built-in.o
                0x80873aa4                _u_boot_list_2_cmd_2_mdio
 .u_boot_list_2_cmd_2_mii
                0x80873ac0       0x1c cmd/built-in.o
                0x80873ac0                _u_boot_list_2_cmd_2_mii
 .u_boot_list_2_cmd_2_mm
                0x80873adc       0x1c cmd/built-in.o
                0x80873adc                _u_boot_list_2_cmd_2_mm
 .u_boot_list_2_cmd_2_mmc
                0x80873af8       0x1c cmd/built-in.o
                0x80873af8                _u_boot_list_2_cmd_2_mmc
 .u_boot_list_2_cmd_2_mmcinfo
                0x80873b14       0x1c cmd/built-in.o
                0x80873b14                _u_boot_list_2_cmd_2_mmcinfo
 .u_boot_list_2_cmd_2_mw
                0x80873b30       0x1c cmd/built-in.o
                0x80873b30                _u_boot_list_2_cmd_2_mw
 .u_boot_list_2_cmd_2_nfs
                0x80873b4c       0x1c cmd/built-in.o
                0x80873b4c                _u_boot_list_2_cmd_2_nfs
 .u_boot_list_2_cmd_2_nm
                0x80873b68       0x1c cmd/built-in.o
                0x80873b68                _u_boot_list_2_cmd_2_nm
 .u_boot_list_2_cmd_2_part
                0x80873b84       0x1c cmd/built-in.o
                0x80873b84                _u_boot_list_2_cmd_2_part
 .u_boot_list_2_cmd_2_ping
                0x80873ba0       0x1c cmd/built-in.o
                0x80873ba0                _u_boot_list_2_cmd_2_ping
 .u_boot_list_2_cmd_2_printenv
                0x80873bbc       0x1c cmd/built-in.o
                0x80873bbc                _u_boot_list_2_cmd_2_printenv
 .u_boot_list_2_cmd_2_pxe
                0x80873bd8       0x1c cmd/built-in.o
                0x80873bd8                _u_boot_list_2_cmd_2_pxe
 .u_boot_list_2_cmd_2_question_mark
                0x80873bf4       0x1c cmd/built-in.o
                0x80873bf4                _u_boot_list_2_cmd_2_question_mark
 .u_boot_list_2_cmd_2_reset
                0x80873c10       0x1c cmd/built-in.o
                0x80873c10                _u_boot_list_2_cmd_2_reset
 .u_boot_list_2_cmd_2_run
                0x80873c2c       0x1c cmd/built-in.o
                0x80873c2c                _u_boot_list_2_cmd_2_run
 .u_boot_list_2_cmd_2_save
                0x80873c48       0x1c cmd/built-in.o
                0x80873c48                _u_boot_list_2_cmd_2_save
 .u_boot_list_2_cmd_2_saveenv
                0x80873c64       0x1c cmd/built-in.o
                0x80873c64                _u_boot_list_2_cmd_2_saveenv
 .u_boot_list_2_cmd_2_setenv
                0x80873c80       0x1c cmd/built-in.o
                0x80873c80                _u_boot_list_2_cmd_2_setenv
 .u_boot_list_2_cmd_2_setexpr
                0x80873c9c       0x1c cmd/built-in.o
                0x80873c9c                _u_boot_list_2_cmd_2_setexpr
 .u_boot_list_2_cmd_2_sf
                0x80873cb8       0x1c cmd/built-in.o
                0x80873cb8                _u_boot_list_2_cmd_2_sf
 .u_boot_list_2_cmd_2_showvar
                0x80873cd4       0x1c common/built-in.o
                0x80873cd4                _u_boot_list_2_cmd_2_showvar
 .u_boot_list_2_cmd_2_size
                0x80873cf0       0x1c cmd/built-in.o
                0x80873cf0                _u_boot_list_2_cmd_2_size
 .u_boot_list_2_cmd_2_sleep
                0x80873d0c       0x1c cmd/built-in.o
                0x80873d0c                _u_boot_list_2_cmd_2_sleep
 .u_boot_list_2_cmd_2_source
                0x80873d28       0x1c cmd/built-in.o
                0x80873d28                _u_boot_list_2_cmd_2_source
 .u_boot_list_2_cmd_2_spl
                0x80873d44       0x1c cmd/built-in.o
                0x80873d44                _u_boot_list_2_cmd_2_spl
 .u_boot_list_2_cmd_2_sspi
                0x80873d60       0x1c cmd/built-in.o
                0x80873d60                _u_boot_list_2_cmd_2_sspi
 .u_boot_list_2_cmd_2_sysboot
                0x80873d7c       0x1c cmd/built-in.o
                0x80873d7c                _u_boot_list_2_cmd_2_sysboot
 .u_boot_list_2_cmd_2_test
                0x80873d98       0x1c cmd/built-in.o
                0x80873d98                _u_boot_list_2_cmd_2_test
 .u_boot_list_2_cmd_2_tftpboot
                0x80873db4       0x1c cmd/built-in.o
                0x80873db4                _u_boot_list_2_cmd_2_tftpboot
 .u_boot_list_2_cmd_2_time
                0x80873dd0       0x1c cmd/built-in.o
                0x80873dd0                _u_boot_list_2_cmd_2_time
 .u_boot_list_2_cmd_2_true
                0x80873dec       0x1c cmd/built-in.o
                0x80873dec                _u_boot_list_2_cmd_2_true
 .u_boot_list_2_cmd_2_usb
                0x80873e08       0x1c cmd/built-in.o
                0x80873e08                _u_boot_list_2_cmd_2_usb
 .u_boot_list_2_cmd_2_usbboot
                0x80873e24       0x1c cmd/built-in.o
                0x80873e24                _u_boot_list_2_cmd_2_usbboot
 .u_boot_list_2_cmd_2_version
                0x80873e40       0x1c cmd/built-in.o
                0x80873e40                _u_boot_list_2_cmd_2_version
 .u_boot_list_2_cmd_3
                0x80873e5c        0x0 cmd/built-in.o
 .u_boot_list_2_cmd_3
                0x80873e5c        0x0 common/built-in.o
 .u_boot_list_2_driver_1
                0x80873e5c        0x0 drivers/built-in.o
 .u_boot_list_2_driver_1
                0x80873e5c        0x0 lib/built-in.o
 .u_boot_list_2_driver_2_gpio_omap
                0x80873e5c       0x44 drivers/gpio/built-in.o
                0x80873e5c                _u_boot_list_2_driver_2_gpio_omap
 .u_boot_list_2_driver_2_i2c_generic_chip_drv
                0x80873ea0       0x44 drivers/i2c/built-in.o
                0x80873ea0                _u_boot_list_2_driver_2_i2c_generic_chip_drv
 .u_boot_list_2_driver_2_i2c_omap
                0x80873ee4       0x44 drivers/i2c/built-in.o
                0x80873ee4                _u_boot_list_2_driver_2_i2c_omap
 .u_boot_list_2_driver_2_ns16550_serial
                0x80873f28       0x44 drivers/serial/built-in.o
                0x80873f28                _u_boot_list_2_driver_2_ns16550_serial
 .u_boot_list_2_driver_2_omap_serial
                0x80873f6c       0x44 drivers/serial/built-in.o
                0x80873f6c                _u_boot_list_2_driver_2_omap_serial
 .u_boot_list_2_driver_2_root_driver
                0x80873fb0       0x44 drivers/built-in.o
                0x80873fb0                _u_boot_list_2_driver_2_root_driver
 .u_boot_list_2_driver_2_simple_bus_drv
                0x80873ff4       0x44 drivers/built-in.o
                0x80873ff4                _u_boot_list_2_driver_2_simple_bus_drv
 .u_boot_list_2_driver_3
                0x80874038        0x0 drivers/built-in.o
 .u_boot_list_2_driver_3
                0x80874038        0x0 lib/built-in.o
 .u_boot_list_2_driver_info_1
                0x80874038        0x0 drivers/built-in.o
 .u_boot_list_2_driver_info_3
                0x80874038        0x0 drivers/built-in.o
 .u_boot_list_2_env_clbk_1
                0x80874038        0x0 env/built-in.o
 .u_boot_list_2_env_clbk_2_baudrate
                0x80874038        0x8 drivers/serial/built-in.o
                0x80874038                _u_boot_list_2_env_clbk_2_baudrate
 .u_boot_list_2_env_clbk_2_callbacks
                0x80874040        0x8 env/built-in.o
                0x80874040                _u_boot_list_2_env_clbk_2_callbacks
 .u_boot_list_2_env_clbk_2_console
                0x80874048        0x8 common/built-in.o
                0x80874048                _u_boot_list_2_env_clbk_2_console
 .u_boot_list_2_env_clbk_2_ethaddr
                0x80874050        0x8 net/built-in.o
                0x80874050                _u_boot_list_2_env_clbk_2_ethaddr
 .u_boot_list_2_env_clbk_2_flags
                0x80874058        0x8 env/built-in.o
                0x80874058                _u_boot_list_2_env_clbk_2_flags
 .u_boot_list_2_env_clbk_2_gatewayip
                0x80874060        0x8 net/built-in.o
                0x80874060                _u_boot_list_2_env_clbk_2_gatewayip
 .u_boot_list_2_env_clbk_2_ipaddr
                0x80874068        0x8 net/built-in.o
                0x80874068                _u_boot_list_2_env_clbk_2_ipaddr
 .u_boot_list_2_env_clbk_2_loadaddr
                0x80874070        0x8 common/built-in.o
                0x80874070                _u_boot_list_2_env_clbk_2_loadaddr
 .u_boot_list_2_env_clbk_2_netmask
                0x80874078        0x8 net/built-in.o
                0x80874078                _u_boot_list_2_env_clbk_2_netmask
 .u_boot_list_2_env_clbk_2_nvlan
                0x80874080        0x8 net/built-in.o
                0x80874080                _u_boot_list_2_env_clbk_2_nvlan
 .u_boot_list_2_env_clbk_2_serialno
                0x80874088        0x8 drivers/usb/gadget/built-in.o
                0x80874088                _u_boot_list_2_env_clbk_2_serialno
 .u_boot_list_2_env_clbk_2_serverip
                0x80874090        0x8 net/built-in.o
                0x80874090                _u_boot_list_2_env_clbk_2_serverip
 .u_boot_list_2_env_clbk_2_vlan
                0x80874098        0x8 net/built-in.o
                0x80874098                _u_boot_list_2_env_clbk_2_vlan
 .u_boot_list_2_env_clbk_3
                0x808740a0        0x0 env/built-in.o
 .u_boot_list_2_env_driver_1
                0x808740a0        0x0 env/built-in.o
 .u_boot_list_2_env_driver_2_ext4
                0x808740a0       0x14 env/built-in.o
                0x808740a0                _u_boot_list_2_env_driver_2_ext4
 .u_boot_list_2_env_driver_3
                0x808740b4        0x0 env/built-in.o
 .u_boot_list_2_fit_loadable_1
                0x808740b4        0x0 common/built-in.o
 .u_boot_list_2_fit_loadable_3
                0x808740b4        0x0 common/built-in.o
 .u_boot_list_2_g_dnl_bind_callbacks_1
                0x808740b4        0x0 drivers/usb/gadget/built-in.o
 .u_boot_list_2_g_dnl_bind_callbacks_2___usb_function_name_usb_dnl_dfu
                0x808740b4        0x8 drivers/usb/gadget/built-in.o
                0x808740b4                _u_boot_list_2_g_dnl_bind_callbacks_2___usb_function_name_usb_dnl_dfu
 .u_boot_list_2_g_dnl_bind_callbacks_2___usb_function_name_usb_dnl_fastboot
                0x808740bc        0x8 drivers/usb/gadget/built-in.o
                0x808740bc                _u_boot_list_2_g_dnl_bind_callbacks_2___usb_function_name_usb_dnl_fastboot
 .u_boot_list_2_part_driver_1
                0x808740c4        0x0 disk/built-in.o
 .u_boot_list_2_part_driver_2_a_efi
                0x808740c4       0x18 disk/built-in.o
                0x808740c4                _u_boot_list_2_part_driver_2_a_efi
 .u_boot_list_2_part_driver_2_dos
                0x808740dc       0x18 disk/built-in.o
                0x808740dc                _u_boot_list_2_part_driver_2_dos
 .u_boot_list_2_part_driver_2_iso
                0x808740f4       0x18 disk/built-in.o
                0x808740f4                _u_boot_list_2_part_driver_2_iso
 .u_boot_list_2_part_driver_3
                0x8087410c        0x0 disk/built-in.o
 .u_boot_list_2_uclass_1
                0x8087410c        0x0 drivers/built-in.o
 .u_boot_list_2_uclass_2_efi
                0x8087410c       0x4c lib/built-in.o
                0x8087410c                _u_boot_list_2_uclass_2_efi
 .u_boot_list_2_uclass_2_gpio
                0x80874158       0x4c drivers/gpio/built-in.o
                0x80874158                _u_boot_list_2_uclass_2_gpio
 .u_boot_list_2_uclass_2_i2c
                0x808741a4       0x4c drivers/i2c/built-in.o
                0x808741a4                _u_boot_list_2_uclass_2_i2c
 .u_boot_list_2_uclass_2_i2c_generic
                0x808741f0       0x4c drivers/i2c/built-in.o
                0x808741f0                _u_boot_list_2_uclass_2_i2c_generic
 .u_boot_list_2_uclass_2_root
                0x8087423c       0x4c drivers/built-in.o
                0x8087423c                _u_boot_list_2_uclass_2_root
 .u_boot_list_2_uclass_2_serial
                0x80874288       0x4c drivers/serial/built-in.o
                0x80874288                _u_boot_list_2_uclass_2_serial
 .u_boot_list_2_uclass_2_simple_bus
                0x808742d4       0x4c drivers/built-in.o
                0x808742d4                _u_boot_list_2_uclass_2_simple_bus
 .u_boot_list_2_uclass_2_usb_gadget_generic
                0x80874320       0x4c drivers/usb/gadget/udc/built-in.o
                0x80874320                _u_boot_list_2_uclass_2_usb_gadget_generic
 .u_boot_list_2_uclass_3
                0x8087436c        0x0 drivers/built-in.o
                0x8087436c                        . = ALIGN (0x4)

.efi_runtime_rel_start
                0x8087436c        0x0
 *(.__efi_runtime_rel_start)
 .__efi_runtime_rel_start
                0x8087436c        0x0 arch/arm/lib/built-in.o

.efi_runtime_rel
                0x8087436c       0xa8
 *(.rel*.efi_runtime)
 .rel.text.efi_runtime
                0x8087436c        0x8 arch/arm/cpu/armv7/start.o
 .rel.data.efi_runtime
                0x80874374       0xa0 arch/arm/cpu/armv7/start.o
 *(.rel*.efi_runtime.*)

.efi_runtime_rel_stop
                0x80874414        0x0
 *(.__efi_runtime_rel_stop)
 .__efi_runtime_rel_stop
                0x80874414        0x0 arch/arm/lib/built-in.o
                0x80874414                        . = ALIGN (0x4)

.image_copy_end
                0x80874414        0x0
 *(.__image_copy_end)
 .__image_copy_end
                0x80874414        0x0 arch/arm/lib/built-in.o

.rel_dyn_start  0x80874414        0x0
 *(.__rel_dyn_start)
 .__rel_dyn_start
                0x80874414        0x0 arch/arm/lib/built-in.o

.rel.dyn        0x80874414     0xd9e0
 *(.rel*)
 .rel.got       0x80874414        0x0 arch/arm/cpu/armv7/start.o
 .rel.plt       0x80874414        0x0 arch/arm/cpu/armv7/start.o
 .rel.bss       0x80874414        0x0 arch/arm/cpu/armv7/start.o
 .rel.data.rel.ro
                0x80874414        0x0 arch/arm/cpu/armv7/start.o
 .rel.iplt      0x80874414        0x0 arch/arm/cpu/armv7/start.o
 .rel.text      0x80874414       0x20 arch/arm/cpu/armv7/start.o
 .rel.text.request_and_set_gpio
                0x80874434       0x18 arch/arm/cpu/armv7/start.o
 .rel.text.do_cape_detect
                0x8087444c      0x2a0 arch/arm/cpu/armv7/start.o
 .rel.text.board_init
                0x808746ec       0x98 arch/arm/cpu/armv7/start.o
 .rel.text.board_late_init
                0x80874784       0xe0 arch/arm/cpu/armv7/start.o
 .rel.text.board_eth_init
                0x80874864       0x90 arch/arm/cpu/armv7/start.o
 .rel.text.lcd_bootmenu
                0x808748f4       0x78 arch/arm/cpu/armv7/start.o
 .rel.text.gpio_output_testcase
                0x8087496c       0x10 arch/arm/cpu/armv7/start.o
 .rel.text.gpio_input_testcase
                0x8087497c       0x18 arch/arm/cpu/armv7/start.o
 .rel.text.All_Test_Cases
                0x80874994      0x110 arch/arm/cpu/armv7/start.o
 .rel.data.cpsw_data
                0x80874aa4       0x10 arch/arm/cpu/armv7/start.o
 .rel.vectors   0x80874ab4       0x38 arch/arm/cpu/armv7/start.o
 .rel.text.relocate_vectors
                0x80874aec       0x20 arch/arm/cpu/armv7/start.o
 .rel.text.boot_jump_linux
                0x80874b0c       0x28 arch/arm/cpu/armv7/start.o
 .rel.text.boot_prep_linux
                0x80874b34       0x18 arch/arm/cpu/armv7/start.o
 .rel.text.boot_prep_vxworks
                0x80874b4c       0x10 arch/arm/cpu/armv7/start.o
 .rel.text.interrupt_init
                0x80874b5c        0x8 arch/arm/cpu/armv7/start.o
 .rel.text.bad_mode
                0x80874b64        0x8 arch/arm/cpu/armv7/start.o
 .rel.text.show_regs
                0x80874b6c       0x80 arch/arm/cpu/armv7/start.o
 .rel.text.do_undefined_instruction
                0x80874bec        0x8 arch/arm/cpu/armv7/start.o
 .rel.text.do_software_interrupt
                0x80874bf4        0x8 arch/arm/cpu/armv7/start.o
 .rel.text.do_prefetch_abort
                0x80874bfc        0x8 arch/arm/cpu/armv7/start.o
 .rel.text.do_data_abort
                0x80874c04        0x8 arch/arm/cpu/armv7/start.o
 .rel.text.do_not_used
                0x80874c0c        0x8 arch/arm/cpu/armv7/start.o
 .rel.text.do_fiq
                0x80874c14        0x8 arch/arm/cpu/armv7/start.o
 .rel.text.do_irq
                0x80874c1c        0x8 arch/arm/cpu/armv7/start.o
 .rel.text.do_reset
                0x80874c24        0x8 arch/arm/cpu/armv7/start.o
 .rel.text.check_cache_range
                0x80874c2c        0x8 arch/arm/cpu/armv7/start.o
 .rel.rodata    0x80874c34      0x158 arch/arm/cpu/armv7/start.o
 .rel.text.print_cpuinfo
                0x80874d8c       0x48 arch/arm/cpu/armv7/start.o
 .rel.text.arch_misc_init
                0x80874dd4       0x20 arch/arm/cpu/armv7/start.o
 .rel.text.hw_data_init
                0x80874df4       0x10 arch/arm/cpu/armv7/start.o
 .rel.text.clk_synthesizer_reg_write
                0x80874e04        0x8 arch/arm/cpu/armv7/start.o
 .rel.text.setup_clock_synthesizer
                0x80874e0c       0x10 arch/arm/cpu/armv7/start.o
 .rel.text.get_device_type
                0x80874e1c        0x8 arch/arm/cpu/armv7/start.o
 .rel.rodata.dev_types
                0x80874e24       0x20 arch/arm/cpu/armv7/start.o
 .rel.data.cpu_revs_am43xx
                0x80874e44       0x18 arch/arm/cpu/armv7/start.o
 .rel.data.cpu_revs
                0x80874e5c       0x18 arch/arm/cpu/armv7/start.o
 .rel.data.otg1_plat
                0x80874e74       0x18 arch/arm/cpu/armv7/start.o
 .rel.data.otg1_board_data
                0x80874e8c        0x8 arch/arm/cpu/armv7/start.o
 .rel.data.otg0_plat
                0x80874e94       0x18 arch/arm/cpu/armv7/start.o
 .rel.data.otg0_board_data
                0x80874eac        0x8 arch/arm/cpu/armv7/start.o
 .rel.text.set_board_info_env
                0x80874eb4       0x18 arch/arm/cpu/armv7/start.o
 .rel.text.do_go
                0x80874ecc       0x10 arch/arm/cpu/armv7/start.o
 .rel.text.do_bootm
                0x80874edc       0x18 arch/arm/cpu/armv7/start.o
 .rel.text.do_bootd
                0x80874ef4        0x8 arch/arm/cpu/armv7/start.o
 .rel.text.image_info
                0x80874efc       0x60 arch/arm/cpu/armv7/start.o
 .rel.text.do_iminfo
                0x80874f5c        0x8 arch/arm/cpu/armv7/start.o
 .rel.text.bootm_maybe_autostart
                0x80874f64       0x20 arch/arm/cpu/armv7/start.o
 .rel.text.do_lcd
                0x80874f84        0x8 arch/arm/cpu/armv7/start.o
 .rel.text.do_help
                0x80874f8c       0x18 arch/arm/cpu/armv7/start.o
 .rel.text.do_version
                0x80874fa4       0x10 arch/arm/cpu/armv7/start.o
 .rel.text.blk_common_cmd
                0x80874fb4       0x70 arch/arm/cpu/armv7/start.o
 .rel.text.source
                0x80875024       0x78 arch/arm/cpu/armv7/start.o
 .rel.text.do_source
                0x8087509c       0x10 arch/arm/cpu/armv7/start.o
 .rel.text.print_num
                0x808750ac        0x8 arch/arm/cpu/armv7/start.o
 .rel.text.do_bdinfo
                0x808750b4       0xa8 arch/arm/cpu/armv7/start.o
 .rel.text.efi_install_fdt
                0x8087515c       0x28 arch/arm/cpu/armv7/start.o
 .rel.text.do_bootefi_exec
                0x80875184       0x30 arch/arm/cpu/armv7/start.o
 .rel.text.do_bootefi
                0x808751b4       0x50 arch/arm/cpu/armv7/start.o
 .rel.text.efi_set_bootdev
                0x80875204       0x10 arch/arm/cpu/armv7/start.o
 .rel.text.do_bootz
                0x80875214       0x18 arch/arm/cpu/armv7/start.o
 .rel.text.do_coninfo
                0x8087522c       0x28 arch/arm/cpu/armv7/start.o
 .rel.text.do_dm
                0x80875254        0x8 arch/arm/cpu/armv7/start.o
 .rel.text.do_echo
                0x8087525c        0x8 arch/arm/cpu/armv7/start.o
 .rel.text.do_eeprom
                0x80875264       0x20 arch/arm/cpu/armv7/start.o
 .rel.text.valid_elf_image
                0x80875284       0x10 arch/arm/cpu/armv7/start.o
 .rel.text.do_bootelf
                0x80875294       0x28 arch/arm/cpu/armv7/start.o
 .rel.text.do_bootvx
                0x808752bc       0xe0 arch/arm/cpu/armv7/start.o
 .rel.text.do_fat_fsinfo
                0x8087539c       0x10 arch/arm/cpu/armv7/start.o
 .rel.text.do_fat_fswrite
                0x808753ac       0x18 arch/arm/cpu/armv7/start.o
 .rel.text.fdt_valid
                0x808753c4       0x28 arch/arm/cpu/armv7/start.o
 .rel.text.is_printable_string
                0x808753ec        0x8 arch/arm/cpu/armv7/start.o
 .rel.text.print_data.part.0
                0x808753f4       0x58 arch/arm/cpu/armv7/start.o
 .rel.text.set_working_fdt_addr
                0x8087544c       0x10 arch/arm/cpu/armv7/start.o
 .rel.text.do_fdt
                0x8087545c      0x278 arch/arm/cpu/armv7/start.o
 .rel.text.do_load_wrapper
                0x808756d4        0x8 arch/arm/cpu/armv7/start.o
 .rel.text.gpio_get_description
                0x808756dc       0x18 arch/arm/cpu/armv7/start.o
 .rel.text.do_gpio
                0x808756f4       0x50 arch/arm/cpu/armv7/start.o
 .rel.text.do_i2c
                0x80875744        0x8 arch/arm/cpu/armv7/start.o
 .rel.text.i2c_get_cur_bus
                0x8087574c       0x18 arch/arm/cpu/armv7/start.o
 .rel.text.do_i2c_bus_speed
                0x80875764       0x18 arch/arm/cpu/armv7/start.o
 .rel.text.do_i2c_reset
                0x8087577c        0x8 arch/arm/cpu/armv7/start.o
 .rel.text.do_i2c_probe
                0x80875784       0x10 arch/arm/cpu/armv7/start.o
 .rel.text.show_bus
                0x80875794       0x20 arch/arm/cpu/armv7/start.o
 .rel.text.do_i2c_show_bus
                0x808757b4        0x8 arch/arm/cpu/armv7/start.o
 .rel.text.do_i2c_olen
                0x808757bc       0x18 arch/arm/cpu/armv7/start.o
 .rel.text.do_i2c_flags
                0x808757d4       0x18 arch/arm/cpu/armv7/start.o
 .rel.text.mod_i2c_mem.constprop.0
                0x808757ec       0x60 arch/arm/cpu/armv7/start.o
 .rel.text.do_i2c_write
                0x8087584c       0x18 arch/arm/cpu/armv7/start.o
 .rel.text.do_i2c_md
                0x80875864       0x58 arch/arm/cpu/armv7/start.o
 .rel.text.do_i2c_read
                0x808758bc       0x10 arch/arm/cpu/armv7/start.o
 .rel.text.do_i2c_mw
                0x808758cc       0x10 arch/arm/cpu/armv7/start.o
 .rel.text.do_i2c_crc
                0x808758dc       0x20 arch/arm/cpu/armv7/start.o
 .rel.text.do_i2c_loop
                0x808758fc       0x18 arch/arm/cpu/armv7/start.o
 .rel.text.do_i2c_bus_num
                0x80875914       0x20 arch/arm/cpu/armv7/start.o
 .rel.text.binary_test
                0x80875934       0x10 arch/arm/cpu/armv7/start.o
 .rel.text.do_itest
                0x80875944        0x8 arch/arm/cpu/armv7/start.o
 .rel.text.bin_data_init
                0x8087594c       0x18 arch/arm/cpu/armv7/start.o
 .rel.text.k_data_save
                0x80875964       0x30 arch/arm/cpu/armv7/start.o
 .rel.text.k_data_restore
                0x80875994       0x30 arch/arm/cpu/armv7/start.o
 .rel.text.bin_data_char
                0x808759c4       0x10 arch/arm/cpu/armv7/start.o
 .rel.text.chk1.constprop.0
                0x808759d4        0x8 arch/arm/cpu/armv7/start.o
 .rel.text.s1_sendpacket.constprop.0
                0x808759dc       0x18 arch/arm/cpu/armv7/start.o
 .rel.text.load_serial
                0x808759f4       0x20 arch/arm/cpu/armv7/start.o
 .rel.text.do_load_serial
                0x80875a14       0x30 arch/arm/cpu/armv7/start.o
 .rel.text.load_serial_ymodem.isra.0
                0x80875a44       0x20 arch/arm/cpu/armv7/start.o
 .rel.text.do_load_serial_bin
                0x80875a64      0x128 arch/arm/cpu/armv7/start.o
 .rel.text.do_mem_md
                0x80875b8c       0x20 arch/arm/cpu/armv7/start.o
 .rel.text.do_mem_base
                0x80875bac       0x10 arch/arm/cpu/armv7/start.o
 .rel.text.do_mem_crc
                0x80875bbc        0x8 arch/arm/cpu/armv7/start.o
 .rel.text.do_mem_mw
                0x80875bc4        0x8 arch/arm/cpu/armv7/start.o
 .rel.text.mod_mem.part.0
                0x80875bcc       0x48 arch/arm/cpu/armv7/start.o
 .rel.text.do_mem_cp
                0x80875c14       0x10 arch/arm/cpu/armv7/start.o
 .rel.text.do_mem_cmp
                0x80875c24       0x28 arch/arm/cpu/armv7/start.o
 .rel.text.do_mii
                0x80875c4c      0x178 arch/arm/cpu/armv7/start.o
 .rel.text.do_mdio
                0x80875dc4       0x70 arch/arm/cpu/armv7/start.o
 .rel.text.do_mmcops
                0x80875e34       0x20 arch/arm/cpu/armv7/start.o
 .rel.text.do_mmc_setdsr
                0x80875e54       0x28 arch/arm/cpu/armv7/start.o
 .rel.text.init_mmc_device
                0x80875e7c        0x8 arch/arm/cpu/armv7/start.o
 .rel.text.do_mmc_rescan
                0x80875e84        0x8 arch/arm/cpu/armv7/start.o
 .rel.text.do_mmc_hwpartition
                0x80875e8c       0xb0 arch/arm/cpu/armv7/start.o
 .rel.text.do_mmc_dev
                0x80875f3c       0x38 arch/arm/cpu/armv7/start.o
 .rel.text.do_mmc_part
                0x80875f74       0x10 arch/arm/cpu/armv7/start.o
 .rel.text.do_mmcinfo
                0x80875f84      0x110 arch/arm/cpu/armv7/start.o
 .rel.text.do_mmc_read
                0x80876094       0x28 arch/arm/cpu/armv7/start.o
 .rel.text.do_mmc_erase
                0x808760bc       0x30 arch/arm/cpu/armv7/start.o
 .rel.text.do_mmc_write
                0x808760ec       0x30 arch/arm/cpu/armv7/start.o
 .rel.text.netboot_common
                0x8087611c       0xb8 arch/arm/cpu/armv7/start.o
 .rel.text.do_ping
                0x808761d4       0x18 arch/arm/cpu/armv7/start.o
 .rel.text.efi_dump_single_var
                0x808761ec       0x28 arch/arm/cpu/armv7/start.o
 .rel.text.do_env_print_efi
                0x80876214       0x10 arch/arm/cpu/armv7/start.o
 .rel.text.do_env_set_efi
                0x80876224       0x38 arch/arm/cpu/armv7/start.o
 .rel.text.do_part_list
                0x8087625c       0x28 arch/arm/cpu/armv7/start.o
 .rel.text.do_part_info
                0x80876284       0x10 arch/arm/cpu/armv7/start.o
 .rel.text.do_part
                0x80876294       0x28 arch/arm/cpu/armv7/start.o
 .rel.text.do_pxe
                0x808762bc       0x10 arch/arm/cpu/armv7/start.o
 .rel.text.label_print
                0x808762cc        0x8 arch/arm/cpu/armv7/start.o
 .rel.text.do_get_tftp
                0x808762d4        0x8 arch/arm/cpu/armv7/start.o
 .rel.text.from_env
                0x808762dc        0x8 arch/arm/cpu/armv7/start.o
 .rel.text.do_get_any
                0x808762e4       0x10 arch/arm/cpu/armv7/start.o
 .rel.text.do_get_fat
                0x808762f4       0x10 arch/arm/cpu/armv7/start.o
 .rel.text.do_get_ext2
                0x80876304       0x10 arch/arm/cpu/armv7/start.o
 .rel.text.format_mac_pxe.constprop.0
                0x80876314       0x10 arch/arm/cpu/armv7/start.o
 .rel.text.get_relfile
                0x80876324       0x38 arch/arm/cpu/armv7/start.o
 .rel.text.get_pxe_file
                0x8087635c        0x8 arch/arm/cpu/armv7/start.o
 .rel.text.get_pxelinux_path
                0x80876364       0x18 arch/arm/cpu/armv7/start.o
 .rel.text.do_pxe_get
                0x8087637c       0x48 arch/arm/cpu/armv7/start.o
 .rel.text.label_boot
                0x808763c4      0x118 arch/arm/cpu/armv7/start.o
 .rel.text.handle_pxe_menu
                0x808764dc       0x18 arch/arm/cpu/armv7/start.o
 .rel.text.get_string.constprop.0.isra.0
                0x808764f4        0x8 arch/arm/cpu/armv7/start.o
 .rel.text.get_token
                0x808764fc        0x8 arch/arm/cpu/armv7/start.o
 .rel.text.parse_sliteral
                0x80876504        0x8 arch/arm/cpu/armv7/start.o
 .rel.text.parse_integer
                0x8087650c        0x8 arch/arm/cpu/armv7/start.o
 .rel.text.parse_pxefile_top
                0x80876514      0x158 arch/arm/cpu/armv7/start.o
 .rel.text.handle_include
                0x8087666c       0x10 arch/arm/cpu/armv7/start.o
 .rel.text.do_pxe_boot
                0x8087667c       0x38 arch/arm/cpu/armv7/start.o
 .rel.text.do_sysboot
                0x808766b4       0x80 arch/arm/cpu/armv7/start.o
 .rel.text.do_spi_flash
                0x80876734       0xf8 arch/arm/cpu/armv7/start.o
 .rel.text.substitute
                0x8087682c        0x8 arch/arm/cpu/armv7/start.o
 .rel.text.regex_sub
                0x80876834       0x30 arch/arm/cpu/armv7/start.o
 .rel.text.do_setexpr
                0x80876864       0x18 arch/arm/cpu/armv7/start.o
 .rel.text.do_spi
                0x8087687c       0x60 arch/arm/cpu/armv7/start.o
 .rel.text.do_time
                0x808768dc       0x18 arch/arm/cpu/armv7/start.o
 .rel.text.do_test
                0x808768f4        0x8 arch/arm/cpu/armv7/start.o
 .rel.text.usb_get_class_desc
                0x808768fc       0x50 arch/arm/cpu/armv7/start.o
 .rel.text.usb_show_tree_graph
                0x8087694c       0x48 arch/arm/cpu/armv7/start.o
 .rel.text.usb_display_class_sub
                0x80876994       0x98 arch/arm/cpu/armv7/start.o
 .rel.text.usb_display_desc
                0x80876a2c       0x38 arch/arm/cpu/armv7/start.o
 .rel.text.usb_display_string
                0x80876a64        0x8 arch/arm/cpu/armv7/start.o
 .rel.text.usb_display_config
                0x80876a6c       0xa8 arch/arm/cpu/armv7/start.o
 .rel.text.do_usbboot
                0x80876b14        0x8 arch/arm/cpu/armv7/start.o
 .rel.text.do_usb_start
                0x80876b1c        0x8 arch/arm/cpu/armv7/start.o
 .rel.text.do_usb
                0x80876b24       0xe8 arch/arm/cpu/armv7/start.o
 .rel.text.common_diskboot
                0x80876c0c       0x38 arch/arm/cpu/armv7/start.o
 .rel.text.do_fastboot
                0x80876c44       0x40 arch/arm/cpu/armv7/start.o
 .rel.text.do_imgextract
                0x80876c84       0xc8 arch/arm/cpu/armv7/start.o
 .rel.text.do_spl
                0x80876d4c       0x60 arch/arm/cpu/armv7/start.o
 .rel.text.do_dfu
                0x80876dac       0x18 arch/arm/cpu/armv7/start.o
 .rel.text.extract_val
                0x80876dc4       0x10 arch/arm/cpu/armv7/start.o
 .rel.text.extract_env
                0x80876dd4        0x8 arch/arm/cpu/armv7/start.o
 .rel.text.set_gpt_info.constprop.0
                0x80876ddc       0x80 arch/arm/cpu/armv7/start.o
 .rel.text.do_gpt
                0x80876e5c       0x78 arch/arm/cpu/armv7/start.o
 .rel.text.do_env_delete
                0x80876ed4       0x10 arch/arm/cpu/armv7/start.o
 .rel.text._do_env_set
                0x80876ee4       0x30 arch/arm/cpu/armv7/start.o
 .rel.text.do_env_ask
                0x80876f14       0x10 arch/arm/cpu/armv7/start.o
 .rel.text.do_env
                0x80876f24        0x8 arch/arm/cpu/armv7/start.o
 .rel.text.env_print
                0x80876f2c       0x18 arch/arm/cpu/armv7/start.o
 .rel.text.do_env_print
                0x80876f44       0x10 arch/arm/cpu/armv7/start.o
 .rel.text.do_env_import
                0x80876f54       0x50 arch/arm/cpu/armv7/start.o
 .rel.text.do_env_default
                0x80876fa4        0x8 arch/arm/cpu/armv7/start.o
 .rel.text.do_env_exists
                0x80876fac        0x8 arch/arm/cpu/armv7/start.o
 .rel.text.get_env_id
                0x80876fb4        0x8 arch/arm/cpu/armv7/start.o
 .rel.text.env_set
                0x80876fbc        0x8 arch/arm/cpu/armv7/start.o
 .rel.text.env_set_hex
                0x80876fc4        0x8 arch/arm/cpu/armv7/start.o
 .rel.text.do_env_export
                0x80876fcc       0x30 arch/arm/cpu/armv7/start.o
 .rel.text.env_get_f
                0x80876ffc        0x8 arch/arm/cpu/armv7/start.o
 .rel.text.env_get
                0x80877004        0x8 arch/arm/cpu/armv7/start.o
 .rel.text.eth_env_set_enetaddr
                0x8087700c        0x8 arch/arm/cpu/armv7/start.o
 .rel.text.do_env_edit
                0x80877014       0x18 arch/arm/cpu/armv7/start.o
 .rel.rodata.fdt_member_table
                0x8087702c       0x50 arch/arm/cpu/armv7/start.o
 .rel.rodata.op_table
                0x8087707c       0x68 arch/arm/cpu/armv7/start.o
 .rel.rodata.CSWTCH.53
                0x808770e4       0x38 arch/arm/cpu/armv7/start.o
 .rel.rodata.desc_and_len_tbl
                0x8087711c       0x30 arch/arm/cpu/armv7/start.o
 .rel.rodata.reg_5_desc_tbl
                0x8087714c       0x60 arch/arm/cpu/armv7/start.o
 .rel.rodata.reg_4_desc_tbl
                0x808771ac       0x60 arch/arm/cpu/armv7/start.o
 .rel.rodata.reg_3_desc_tbl
                0x8087720c       0x18 arch/arm/cpu/armv7/start.o
 .rel.rodata.reg_2_desc_tbl
                0x80877224        0x8 arch/arm/cpu/armv7/start.o
 .rel.rodata.reg_1_desc_tbl
                0x8087722c       0x80 arch/arm/cpu/armv7/start.o
 .rel.rodata.reg_0_desc_tbl
                0x808772ac       0x50 arch/arm/cpu/armv7/start.o
 .rel.rodata.reg_0_5_desc_tbl
                0x808772fc       0x30 arch/arm/cpu/armv7/start.o
 .rel.rodata.efi_var_attrs
                0x8087732c       0x28 arch/arm/cpu/armv7/start.o
 .rel.rodata.keywords
                0x80877354       0x90 arch/arm/cpu/armv7/start.o
 .rel.rodata.op_adv
                0x808773e4       0x80 arch/arm/cpu/armv7/start.o
 .rel.rodata.CSWTCH.23
                0x80877464       0x28 arch/arm/cpu/armv7/start.o
 .rel.rodata.subcmd_list
                0x8087748c       0x10 arch/arm/cpu/armv7/start.o
 .rel.u_boot_list_2_cmd_2_reset
                0x8087749c       0x28 arch/arm/cpu/armv7/start.o
 .rel.u_boot_list_2_cmd_2_go
                0x808774c4       0x28 arch/arm/cpu/armv7/start.o
 .rel.u_boot_list_2_cmd_2_iminfo
                0x808774ec       0x28 arch/arm/cpu/armv7/start.o
 .rel.u_boot_list_2_cmd_2_bootd
                0x80877514       0x28 arch/arm/cpu/armv7/start.o
 .rel.u_boot_list_2_cmd_2_boot
                0x8087753c       0x28 arch/arm/cpu/armv7/start.o
 .rel.u_boot_list_2_cmd_2_bootm
                0x80877564       0x28 arch/arm/cpu/armv7/start.o
 .rel.data.cmd_bootm_sub
                0x8087758c      0x120 arch/arm/cpu/armv7/start.o
 .rel.u_boot_list_2_cmd_2_lcd
                0x808776ac       0x28 arch/arm/cpu/armv7/start.o
 .rel.u_boot_list_2_cmd_2_km_bootmenu
                0x808776d4       0x28 arch/arm/cpu/armv7/start.o
 .rel.u_boot_list_2_cmd_2_question_mark
                0x808776fc       0x28 arch/arm/cpu/armv7/start.o
 .rel.u_boot_list_2_cmd_2_help
                0x80877724       0x28 arch/arm/cpu/armv7/start.o
 .rel.u_boot_list_2_cmd_2_version
                0x8087774c       0x28 arch/arm/cpu/armv7/start.o
 .rel.u_boot_list_2_cmd_2_source
                0x80877774       0x28 arch/arm/cpu/armv7/start.o
 .rel.u_boot_list_2_cmd_2_bdinfo
                0x8087779c       0x28 arch/arm/cpu/armv7/start.o
 .rel.u_boot_list_2_cmd_2_bootefi
                0x808777c4       0x28 arch/arm/cpu/armv7/start.o
 .rel.u_boot_list_2_cmd_2_bootz
                0x808777ec       0x28 arch/arm/cpu/armv7/start.o
 .rel.u_boot_list_2_cmd_2_btrsubvol
                0x80877814       0x28 arch/arm/cpu/armv7/start.o
 .rel.u_boot_list_2_cmd_2_coninfo
                0x8087783c       0x28 arch/arm/cpu/armv7/start.o
 .rel.u_boot_list_2_cmd_2_dm
                0x80877864       0x28 arch/arm/cpu/armv7/start.o
 .rel.data.test_commands
                0x8087788c       0x78 arch/arm/cpu/armv7/start.o
 .rel.u_boot_list_2_cmd_2_echo
                0x80877904       0x28 arch/arm/cpu/armv7/start.o
 .rel.u_boot_list_2_cmd_2_eeprom
                0x8087792c       0x28 arch/arm/cpu/armv7/start.o
 .rel.u_boot_list_2_cmd_2_bootvx
                0x80877954       0x28 arch/arm/cpu/armv7/start.o
 .rel.u_boot_list_2_cmd_2_bootelf
                0x8087797c       0x28 arch/arm/cpu/armv7/start.o
 .rel.u_boot_list_2_cmd_2_exit
                0x808779a4       0x28 arch/arm/cpu/armv7/start.o
 .rel.u_boot_list_2_cmd_2_ext4load
                0x808779cc       0x28 arch/arm/cpu/armv7/start.o
 .rel.u_boot_list_2_cmd_2_ext4ls
                0x808779f4       0x28 arch/arm/cpu/armv7/start.o
 .rel.u_boot_list_2_cmd_2_ext4size
                0x80877a1c       0x28 arch/arm/cpu/armv7/start.o
 .rel.u_boot_list_2_cmd_2_ext4write
                0x80877a44       0x28 arch/arm/cpu/armv7/start.o
 .rel.u_boot_list_2_cmd_2_ext2load
                0x80877a6c       0x28 arch/arm/cpu/armv7/start.o
 .rel.u_boot_list_2_cmd_2_ext2ls
                0x80877a94       0x28 arch/arm/cpu/armv7/start.o
 .rel.u_boot_list_2_cmd_2_fatmkdir
                0x80877abc       0x28 arch/arm/cpu/armv7/start.o
 .rel.u_boot_list_2_cmd_2_fatrm
                0x80877ae4       0x28 arch/arm/cpu/armv7/start.o
 .rel.u_boot_list_2_cmd_2_fatwrite
                0x80877b0c       0x28 arch/arm/cpu/armv7/start.o
 .rel.u_boot_list_2_cmd_2_fatinfo
                0x80877b34       0x28 arch/arm/cpu/armv7/start.o
 .rel.u_boot_list_2_cmd_2_fatls
                0x80877b5c       0x28 arch/arm/cpu/armv7/start.o
 .rel.u_boot_list_2_cmd_2_fatload
                0x80877b84       0x28 arch/arm/cpu/armv7/start.o
 .rel.u_boot_list_2_cmd_2_fatsize
                0x80877bac       0x28 arch/arm/cpu/armv7/start.o
 .rel.u_boot_list_2_cmd_2_fdt
                0x80877bd4       0x28 arch/arm/cpu/armv7/start.o
 .rel.u_boot_list_2_cmd_2_fstype
                0x80877bfc       0x28 arch/arm/cpu/armv7/start.o
 .rel.u_boot_list_2_cmd_2_ls
                0x80877c24       0x28 arch/arm/cpu/armv7/start.o
 .rel.u_boot_list_2_cmd_2_save
                0x80877c4c       0x28 arch/arm/cpu/armv7/start.o
 .rel.u_boot_list_2_cmd_2_load
                0x80877c74       0x28 arch/arm/cpu/armv7/start.o
 .rel.u_boot_list_2_cmd_2_size
                0x80877c9c       0x28 arch/arm/cpu/armv7/start.o
 .rel.u_boot_list_2_cmd_2_gpio
                0x80877cc4       0x28 arch/arm/cpu/armv7/start.o
 .rel.u_boot_list_2_cmd_2_i2c
                0x80877cec       0x28 arch/arm/cpu/armv7/start.o
 .rel.data.cmd_i2c_sub
                0x80877d14      0x258 arch/arm/cpu/armv7/start.o
 .rel.u_boot_list_2_cmd_2_itest
                0x80877f6c       0x28 arch/arm/cpu/armv7/start.o
 .rel.u_boot_list_2_cmd_2_loady
                0x80877f94       0x28 arch/arm/cpu/armv7/start.o
 .rel.u_boot_list_2_cmd_2_loadx
                0x80877fbc       0x28 arch/arm/cpu/armv7/start.o
 .rel.u_boot_list_2_cmd_2_loadb
                0x80877fe4       0x28 arch/arm/cpu/armv7/start.o
 .rel.u_boot_list_2_cmd_2_loads
                0x8087800c       0x28 arch/arm/cpu/armv7/start.o
 .rel.u_boot_list_2_cmd_2_loop
                0x80878034       0x28 arch/arm/cpu/armv7/start.o
 .rel.u_boot_list_2_cmd_2_base
                0x8087805c       0x28 arch/arm/cpu/armv7/start.o
 .rel.u_boot_list_2_cmd_2_crc32
                0x80878084       0x28 arch/arm/cpu/armv7/start.o
 .rel.u_boot_list_2_cmd_2_cmp
                0x808780ac       0x28 arch/arm/cpu/armv7/start.o
 .rel.u_boot_list_2_cmd_2_cp
                0x808780d4       0x28 arch/arm/cpu/armv7/start.o
 .rel.u_boot_list_2_cmd_2_mw
                0x808780fc       0x28 arch/arm/cpu/armv7/start.o
 .rel.u_boot_list_2_cmd_2_nm
                0x80878124       0x28 arch/arm/cpu/armv7/start.o
 .rel.u_boot_list_2_cmd_2_mm
                0x8087814c       0x28 arch/arm/cpu/armv7/start.o
 .rel.u_boot_list_2_cmd_2_md
                0x80878174       0x28 arch/arm/cpu/armv7/start.o
 .rel.u_boot_list_2_cmd_2_mii
                0x8087819c       0x28 arch/arm/cpu/armv7/start.o
 .rel.u_boot_list_2_cmd_2_mdio
                0x808781c4       0x28 arch/arm/cpu/armv7/start.o
 .rel.u_boot_list_2_cmd_2_sleep
                0x808781ec       0x28 arch/arm/cpu/armv7/start.o
 .rel.u_boot_list_2_cmd_2_mmcinfo
                0x80878214       0x28 arch/arm/cpu/armv7/start.o
 .rel.u_boot_list_2_cmd_2_mmc
                0x8087823c       0x28 arch/arm/cpu/armv7/start.o
 .rel.data.cmd_mmc
                0x80878264      0x190 arch/arm/cpu/armv7/start.o
 .rel.u_boot_list_2_cmd_2_ping
                0x808783f4       0x28 arch/arm/cpu/armv7/start.o
 .rel.u_boot_list_2_cmd_2_nfs
                0x8087841c       0x28 arch/arm/cpu/armv7/start.o
 .rel.u_boot_list_2_cmd_2_dhcp
                0x80878444       0x28 arch/arm/cpu/armv7/start.o
 .rel.u_boot_list_2_cmd_2_tftpboot
                0x8087846c       0x28 arch/arm/cpu/armv7/start.o
 .rel.u_boot_list_2_cmd_2_bootp
                0x80878494       0x28 arch/arm/cpu/armv7/start.o
 .rel.u_boot_list_2_cmd_2_part
                0x808784bc       0x28 arch/arm/cpu/armv7/start.o
 .rel.u_boot_list_2_cmd_2_sysboot
                0x808784e4       0x28 arch/arm/cpu/armv7/start.o
 .rel.u_boot_list_2_cmd_2_pxe
                0x8087850c       0x28 arch/arm/cpu/armv7/start.o
 .rel.data.cmd_pxe_sub
                0x80878534       0x50 arch/arm/cpu/armv7/start.o
 .rel.data.pxe_default_paths
                0x80878584       0x18 arch/arm/cpu/armv7/start.o
 .rel.u_boot_list_2_cmd_2_sf
                0x8087859c       0x28 arch/arm/cpu/armv7/start.o
 .rel.u_boot_list_2_cmd_2_setexpr
                0x808785c4       0x28 arch/arm/cpu/armv7/start.o
 .rel.u_boot_list_2_cmd_2_sspi
                0x808785ec       0x28 arch/arm/cpu/armv7/start.o
 .rel.u_boot_list_2_cmd_2_time
                0x80878614       0x28 arch/arm/cpu/armv7/start.o
 .rel.u_boot_list_2_cmd_2_true
                0x8087863c       0x20 arch/arm/cpu/armv7/start.o
 .rel.u_boot_list_2_cmd_2_false
                0x8087865c       0x20 arch/arm/cpu/armv7/start.o
 .rel.u_boot_list_2_cmd_2_test
                0x8087867c       0x28 arch/arm/cpu/armv7/start.o
 .rel.u_boot_list_2_cmd_2_usbboot
                0x808786a4       0x28 arch/arm/cpu/armv7/start.o
 .rel.u_boot_list_2_cmd_2_usb
                0x808786cc       0x28 arch/arm/cpu/armv7/start.o
 .rel.u_boot_list_2_cmd_2_fastboot
                0x808786f4       0x28 arch/arm/cpu/armv7/start.o
 .rel.u_boot_list_2_cmd_2_imxtract
                0x8087871c       0x28 arch/arm/cpu/armv7/start.o
 .rel.u_boot_list_2_cmd_2_spl
                0x80878744       0x28 arch/arm/cpu/armv7/start.o
 .rel.data.cmd_spl_sub
                0x8087876c       0x20 arch/arm/cpu/armv7/start.o
 .rel.data.cmd_spl_export_sub
                0x8087878c       0x40 arch/arm/cpu/armv7/start.o
 .rel.data.__compound_literal.1
                0x808787cc       0x30 arch/arm/cpu/armv7/start.o
 .rel.data.__compound_literal.0
                0x808787fc       0x38 arch/arm/cpu/armv7/start.o
 .rel.u_boot_list_2_cmd_2_dfu
                0x80878834       0x28 arch/arm/cpu/armv7/start.o
 .rel.u_boot_list_2_cmd_2_gpt
                0x8087885c       0x28 arch/arm/cpu/armv7/start.o
 .rel.u_boot_list_2_cmd_2_run
                0x80878884       0x30 arch/arm/cpu/armv7/start.o
 .rel.u_boot_list_2_cmd_2_askenv
                0x808788b4       0x28 arch/arm/cpu/armv7/start.o
 .rel.u_boot_list_2_cmd_2_setenv
                0x808788dc       0x30 arch/arm/cpu/armv7/start.o
 .rel.u_boot_list_2_cmd_2_printenv
                0x8087890c       0x30 arch/arm/cpu/armv7/start.o
 .rel.u_boot_list_2_cmd_2_editenv
                0x8087893c       0x30 arch/arm/cpu/armv7/start.o
 .rel.u_boot_list_2_cmd_2_env
                0x8087896c       0x28 arch/arm/cpu/armv7/start.o
 .rel.data.cmd_env_sub
                0x80878994      0x1b8 arch/arm/cpu/armv7/start.o
 .rel.u_boot_list_2_cmd_2_saveenv
                0x80878b4c       0x28 arch/arm/cpu/armv7/start.o
 .rel.text.main_loop
                0x80878b74       0x18 arch/arm/cpu/armv7/start.o
 .rel.text.jumptable_init
                0x80878b8c       0xf8 arch/arm/cpu/armv7/start.o
 .rel.text.hash_lookup_algo
                0x80878c84        0x8 arch/arm/cpu/armv7/start.o
 .rel.text.hash_command
                0x80878c8c       0x28 arch/arm/cpu/armv7/start.o
 .rel.text.mapset
                0x80878cb4        0x8 arch/arm/cpu/armv7/start.o
 .rel.text.syntax_err
                0x80878cbc        0x8 arch/arm/cpu/armv7/start.o
 .rel.text.xmalloc
                0x80878cc4        0x8 arch/arm/cpu/armv7/start.o
 .rel.text.xrealloc
                0x80878ccc        0x8 arch/arm/cpu/armv7/start.o
 .rel.text.do_showvar
                0x80878cd4       0x20 arch/arm/cpu/armv7/start.o
 .rel.text.is_assignment
                0x80878cf4        0x8 arch/arm/cpu/armv7/start.o
 .rel.text.file_get
                0x80878cfc       0x30 arch/arm/cpu/armv7/start.o
 .rel.text.done_word
                0x80878d2c        0x8 arch/arm/cpu/armv7/start.o
 .rel.text.b_addqchr.isra.0
                0x80878d34        0x8 arch/arm/cpu/armv7/start.o
 .rel.text.get_local_var
                0x80878d3c       0x20 arch/arm/cpu/armv7/start.o
 .rel.text.set_local_var
                0x80878d5c       0x20 arch/arm/cpu/armv7/start.o
 .rel.text.insert_var_value_sub
                0x80878d7c        0x8 arch/arm/cpu/armv7/start.o
 .rel.text.parse_string_outer
                0x80878d84       0x18 arch/arm/cpu/armv7/start.o
 .rel.text.run_list_real
                0x80878d9c       0x48 arch/arm/cpu/armv7/start.o
 .rel.text.parse_stream_outer
                0x80878de4       0x68 arch/arm/cpu/armv7/start.o
 .rel.text.parse_file_outer
                0x80878e4c       0x10 arch/arm/cpu/armv7/start.o
 .rel.text.u_boot_hush_start
                0x80878e5c       0x18 arch/arm/cpu/armv7/start.o
 .rel.text.multiboot
                0x80878e74      0x100 arch/arm/cpu/armv7/start.o
 .rel.text.bootdelay_process
                0x80878f74       0x68 arch/arm/cpu/armv7/start.o
 .rel.text.autoboot_command
                0x80878fdc       0x38 arch/arm/cpu/armv7/start.o
 .rel.text.setup_mon_len
                0x80879014       0x10 arch/arm/cpu/armv7/start.o
 .rel.text.announce_dram_init
                0x80879024        0x8 arch/arm/cpu/armv7/start.o
 .rel.text.init_baud_rate
                0x8087902c        0x8 arch/arm/cpu/armv7/start.o
 .rel.text.show_dram_config
                0x80879034        0x8 arch/arm/cpu/armv7/start.o
 .rel.text.board_init_f
                0x8087903c       0x10 arch/arm/cpu/armv7/start.o
 .rel.text.initr_net
                0x8087904c        0x8 arch/arm/cpu/armv7/start.o
 .rel.text.initr_ethaddr
                0x80879054        0x8 arch/arm/cpu/armv7/start.o
 .rel.text.initr_env
                0x8087905c       0x20 arch/arm/cpu/armv7/start.o
 .rel.text.initr_mmc
                0x8087907c        0x8 arch/arm/cpu/armv7/start.o
 .rel.text.initr_reloc_global_data
                0x80879084       0x18 arch/arm/cpu/armv7/start.o
 .rel.text.board_init_r
                0x8087909c       0x10 arch/arm/cpu/armv7/start.o
 .rel.text.show_board_info
                0x808790ac       0x10 arch/arm/cpu/armv7/start.o
 .rel.text.bootm_find_images
                0x808790bc       0x20 arch/arm/cpu/armv7/start.o
 .rel.text.bootm_decomp_image
                0x808790dc       0x48 arch/arm/cpu/armv7/start.o
 .rel.text.do_bootm_states
                0x80879124      0x100 arch/arm/cpu/armv7/start.o
 .rel.text.do_bootm_rtems
                0x80879224        0x8 arch/arm/cpu/armv7/start.o
 .rel.text.do_bootm_vxworks
                0x8087922c       0x38 arch/arm/cpu/armv7/start.o
 .rel.text.do_bootm_plan9
                0x80879264       0x18 arch/arm/cpu/armv7/start.o
 .rel.text.do_bootm_qnxelf
                0x8087927c        0x8 arch/arm/cpu/armv7/start.o
 .rel.text.do_bootm_netbsd
                0x80879284       0x18 arch/arm/cpu/armv7/start.o
 .rel.text.do_bootm_standalone
                0x8087929c       0x18 arch/arm/cpu/armv7/start.o
 .rel.text.bootm_os_get_boot_func
                0x808792b4        0x8 arch/arm/cpu/armv7/start.o
 .rel.text.fdt_support_default_count_cells
                0x808792bc        0x8 arch/arm/cpu/armv7/start.o
 .rel.text.fdt_find_or_add_subnode
                0x808792c4       0x10 arch/arm/cpu/armv7/start.o
 .rel.text.fdt_root
                0x808792d4       0x20 arch/arm/cpu/armv7/start.o
 .rel.text.fdt_initrd
                0x808792f4       0x30 arch/arm/cpu/armv7/start.o
 .rel.text.fdt_chosen
                0x80879324       0x20 arch/arm/cpu/armv7/start.o
 .rel.text.do_fixup_by_path
                0x80879344        0x8 arch/arm/cpu/armv7/start.o
 .rel.text.fdt_fixup_memory_banks
                0x8087934c       0x38 arch/arm/cpu/armv7/start.o
 .rel.text.fdt_fixup_ethernet
                0x80879384       0x30 arch/arm/cpu/armv7/start.o
 .rel.text.fdt_translate_address
                0x808793b4       0x18 arch/arm/cpu/armv7/start.o
 .rel.text.fdt_overlay_apply_verbose
                0x808793cc       0x20 arch/arm/cpu/armv7/start.o
 .rel.text.miiphy_get_dev_by_name
                0x808793ec       0x10 arch/arm/cpu/armv7/start.o
 .rel.text.miiphy_init
                0x808793fc       0x10 arch/arm/cpu/armv7/start.o
 .rel.text.mdio_register
                0x8087940c       0x18 arch/arm/cpu/armv7/start.o
 .rel.text.mdio_list_devices
                0x80879424       0x28 arch/arm/cpu/armv7/start.o
 .rel.text.miiphy_set_current_dev
                0x8087944c       0x10 arch/arm/cpu/armv7/start.o
 .rel.text.miiphy_get_active_dev
                0x8087945c        0x8 arch/arm/cpu/armv7/start.o
 .rel.text.mdio_get_current_dev
                0x80879464        0x8 arch/arm/cpu/armv7/start.o
 .rel.text.mdio_phydev_for_ethname
                0x8087946c       0x10 arch/arm/cpu/armv7/start.o
 .rel.text.miiphy_get_current_dev
                0x8087947c        0x8 arch/arm/cpu/armv7/start.o
 .rel.text.miiphy_listdev
                0x80879484       0x30 arch/arm/cpu/armv7/start.o
 .rel.text.miiphy_speed
                0x808794b4       0x20 arch/arm/cpu/armv7/start.o
 .rel.text.miiphy_duplex
                0x808794d4       0x20 arch/arm/cpu/armv7/start.o
 .rel.text.usb_stop
                0x808794f4       0x18 arch/arm/cpu/armv7/start.o
 .rel.text.usb_disable_asynch
                0x8087950c        0x8 arch/arm/cpu/armv7/start.o
 .rel.text.usb_control_msg
                0x80879514        0x8 arch/arm/cpu/armv7/start.o
 .rel.text.get_descriptor_len
                0x8087951c       0x10 arch/arm/cpu/armv7/start.o
 .rel.text.usb_setup_descriptor
                0x8087952c       0x10 arch/arm/cpu/armv7/start.o
 .rel.text.usb_string_sub
                0x8087953c        0x8 arch/arm/cpu/armv7/start.o
 .rel.text.usb_get_configuration_len
                0x80879544       0x10 arch/arm/cpu/armv7/start.o
 .rel.text.usb_set_interface
                0x80879554        0x8 arch/arm/cpu/armv7/start.o
 .rel.text.usb_get_dev_index
                0x8087955c        0x8 arch/arm/cpu/armv7/start.o
 .rel.text.usb_alloc_new_device
                0x80879564       0x18 arch/arm/cpu/armv7/start.o
 .rel.text.usb_free_device
                0x8087957c       0x10 arch/arm/cpu/armv7/start.o
 .rel.text.usb_select_config
                0x8087958c       0x70 arch/arm/cpu/armv7/start.o
 .rel.text.usb_setup_device
                0x808795fc       0x10 arch/arm/cpu/armv7/start.o
 .rel.text.usb_init
                0x8087960c       0x58 arch/arm/cpu/armv7/start.o
 .rel.text.usb_find_usb2_hub_address_port
                0x80879664        0x8 arch/arm/cpu/armv7/start.o
 .rel.text.usb_hub_reset
                0x8087966c       0x10 arch/arm/cpu/armv7/start.o
 .rel.text.usb_hub_port_connect_change
                0x8087967c       0x10 arch/arm/cpu/armv7/start.o
 .rel.text.usb_hub_configure
                0x8087968c       0x40 arch/arm/cpu/armv7/start.o
 .rel.text.usb_stor_CB_comdat
                0x808796cc        0x8 arch/arm/cpu/armv7/start.o
 .rel.text.usb_stor_CBI_get_status
                0x808796d4        0x8 arch/arm/cpu/armv7/start.o
 .rel.text.usb_stor_CB_transport
                0x808796dc       0x10 arch/arm/cpu/armv7/start.o
 .rel.text.usb_request_sense.constprop.0.isra.0
                0x808796ec        0x8 arch/arm/cpu/armv7/start.o
 .rel.text.usb_stor_read
                0x808796f4       0x10 arch/arm/cpu/armv7/start.o
 .rel.text.usb_stor_write
                0x80879704       0x10 arch/arm/cpu/armv7/start.o
 .rel.text.usb_stor_BBB_transport
                0x80879714       0x10 arch/arm/cpu/armv7/start.o
 .rel.text.usb_stor_info
                0x80879724       0x20 arch/arm/cpu/armv7/start.o
 .rel.text.usb_storage_probe
                0x80879744       0x38 arch/arm/cpu/armv7/start.o
 .rel.text.usb_stor_get_info
                0x8087977c       0x20 arch/arm/cpu/armv7/start.o
 .rel.text.usb_stor_scan
                0x8087979c       0x40 arch/arm/cpu/armv7/start.o
 .rel.text.menu_get_choice
                0x808797dc       0x18 arch/arm/cpu/armv7/start.o
 .rel.text.update_tftp
                0x808797f4       0x98 arch/arm/cpu/armv7/start.o
 .rel.text.cread_add_char
                0x8087988c        0x8 arch/arm/cpu/armv7/start.o
 .rel.text.delete_char
                0x80879894       0x10 arch/arm/cpu/armv7/start.o
 .rel.text.cli_readline_into_buffer
                0x808798a4      0x190 arch/arm/cpu/armv7/start.o
 .rel.text.cli_readline
                0x80879a34        0x8 arch/arm/cpu/armv7/start.o
 .rel.text.cli_simple_process_macros
                0x80879a3c       0x18 arch/arm/cpu/armv7/start.o
 .rel.text.console_setfile
                0x80879a54       0x30 arch/arm/cpu/armv7/start.o
 .rel.text.fgetc.part.0
                0x80879a84        0x8 arch/arm/cpu/armv7/start.o
 .rel.text.puts
                0x80879a8c        0x8 arch/arm/cpu/armv7/start.o
 .rel.text.putc
                0x80879a94        0x8 arch/arm/cpu/armv7/start.o
 .rel.text.ftstc
                0x80879a9c        0x8 arch/arm/cpu/armv7/start.o
 .rel.text.fputs
                0x80879aa4        0x8 arch/arm/cpu/armv7/start.o
 .rel.text.ctrlc
                0x80879aac       0x10 arch/arm/cpu/armv7/start.o
 .rel.text.disable_ctrlc
                0x80879abc        0x8 arch/arm/cpu/armv7/start.o
 .rel.text.had_ctrlc
                0x80879ac4        0x8 arch/arm/cpu/armv7/start.o
 .rel.text.clear_ctrlc
                0x80879acc        0x8 arch/arm/cpu/armv7/start.o
 .rel.text.on_console
                0x80879ad4       0x20 arch/arm/cpu/armv7/start.o
 .rel.text.console_init_r
                0x80879af4       0x10 arch/arm/cpu/armv7/start.o
 .rel.text.sbrk
                0x80879b04       0x18 arch/arm/cpu/armv7/start.o
 .rel.text.mem_malloc_init
                0x80879b1c       0x18 arch/arm/cpu/armv7/start.o
 .rel.text.malloc_trim
                0x80879b34       0x18 arch/arm/cpu/armv7/start.o
 .rel.text.free
                0x80879b4c       0x20 arch/arm/cpu/armv7/start.o
 .rel.text.malloc
                0x80879b6c       0x48 arch/arm/cpu/armv7/start.o
 .rel.text.calloc
                0x80879bb4        0x8 arch/arm/cpu/armv7/start.o
 .rel.text.realloc
                0x80879bbc       0x10 arch/arm/cpu/armv7/start.o
 .rel.text.on_loadaddr
                0x80879bcc        0x8 arch/arm/cpu/armv7/start.o
 .rel.text.env_get_bootm_low
                0x80879bd4        0x8 arch/arm/cpu/armv7/start.o
 .rel.text.env_get_bootm_size
                0x80879bdc       0x10 arch/arm/cpu/armv7/start.o
 .rel.text.env_get_bootm_mapsize
                0x80879bec        0x8 arch/arm/cpu/armv7/start.o
 .rel.text.genimg_print_size
                0x80879bf4       0x10 arch/arm/cpu/armv7/start.o
 .rel.text.genimg_print_time
                0x80879c04        0x8 arch/arm/cpu/armv7/start.o
 .rel.text.genimg_get_os_name
                0x80879c0c       0x10 arch/arm/cpu/armv7/start.o
 .rel.text.genimg_get_arch_name
                0x80879c1c       0x10 arch/arm/cpu/armv7/start.o
 .rel.text.genimg_get_type_name
                0x80879c2c       0x10 arch/arm/cpu/armv7/start.o
 .rel.text.genimg_get_comp_name
                0x80879c3c       0x10 arch/arm/cpu/armv7/start.o
 .rel.text.image_print_contents
                0x80879c4c       0x60 arch/arm/cpu/armv7/start.o
 .rel.text.genimg_get_os_id
                0x80879cac       0x10 arch/arm/cpu/armv7/start.o
 .rel.text.genimg_get_arch_id
                0x80879cbc       0x10 arch/arm/cpu/armv7/start.o
 .rel.text.genimg_get_type_id
                0x80879ccc       0x10 arch/arm/cpu/armv7/start.o
 .rel.text.genimg_get_comp_id
                0x80879cdc       0x10 arch/arm/cpu/armv7/start.o
 .rel.text.genimg_get_kernel_addr_fit
                0x80879cec        0x8 arch/arm/cpu/armv7/start.o
 .rel.text.boot_get_ramdisk
                0x80879cf4       0x60 arch/arm/cpu/armv7/start.o
 .rel.text.boot_ramdisk_high
                0x80879d54       0x20 arch/arm/cpu/armv7/start.o
 .rel.text.boot_get_loadable
                0x80879d74       0x28 arch/arm/cpu/armv7/start.o
 .rel.text.android_image_get_kernel
                0x80879d9c       0x38 arch/arm/cpu/armv7/start.o
 .rel.text.android_image_check_header
                0x80879dd4        0x8 arch/arm/cpu/armv7/start.o
 .rel.text.android_image_get_ramdisk
                0x80879ddc        0x8 arch/arm/cpu/armv7/start.o
 .rel.text.android_image_get_second
                0x80879de4        0x8 arch/arm/cpu/armv7/start.o
 .rel.text.android_print_contents
                0x80879dec       0x60 arch/arm/cpu/armv7/start.o
 .rel.text.fdt_error
                0x80879e4c       0x10 arch/arm/cpu/armv7/start.o
 .rel.text.boot_fdt_add_mem_rsv_regions
                0x80879e5c       0x20 arch/arm/cpu/armv7/start.o
 .rel.text.boot_relocate_fdt
                0x80879e7c       0x40 arch/arm/cpu/armv7/start.o
 .rel.text.boot_get_fdt
                0x80879ebc       0x90 arch/arm/cpu/armv7/start.o
 .rel.text.image_setup_libfdt
                0x80879f4c       0x20 arch/arm/cpu/armv7/start.o
 .rel.text.fit_image_get_address
                0x80879f6c        0x8 arch/arm/cpu/armv7/start.o
 .rel.text.fit_get_desc
                0x80879f74        0x8 arch/arm/cpu/armv7/start.o
 .rel.text.fit_get_timestamp
                0x80879f7c        0x8 arch/arm/cpu/armv7/start.o
 .rel.text.fit_image_get_node
                0x80879f84        0x8 arch/arm/cpu/armv7/start.o
 .rel.text.fit_image_get_os
                0x80879f8c        0x8 arch/arm/cpu/armv7/start.o
 .rel.text.fit_image_get_arch
                0x80879f94        0x8 arch/arm/cpu/armv7/start.o
 .rel.text.fit_image_get_type
                0x80879f9c        0x8 arch/arm/cpu/armv7/start.o
 .rel.text.fit_image_get_comp
                0x80879fa4        0x8 arch/arm/cpu/armv7/start.o
 .rel.text.fit_image_get_load
                0x80879fac        0x8 arch/arm/cpu/armv7/start.o
 .rel.text.fit_image_get_entry
                0x80879fb4        0x8 arch/arm/cpu/armv7/start.o
 .rel.text.fit_image_get_data
                0x80879fbc        0x8 arch/arm/cpu/armv7/start.o
 .rel.text.fit_image_get_data_offset
                0x80879fc4        0x8 arch/arm/cpu/armv7/start.o
 .rel.text.fit_image_get_data_position
                0x80879fcc        0x8 arch/arm/cpu/armv7/start.o
 .rel.text.fit_image_get_data_size
                0x80879fd4        0x8 arch/arm/cpu/armv7/start.o
 .rel.text.fit_image_hash_get_algo
                0x80879fdc        0x8 arch/arm/cpu/armv7/start.o
 .rel.text.fit_image_hash_get_value
                0x80879fe4        0x8 arch/arm/cpu/armv7/start.o
 .rel.text.fit_image_print_data
                0x80879fec       0x70 arch/arm/cpu/armv7/start.o
 .rel.text.fit_image_print_verification_data
                0x8087a05c       0x20 arch/arm/cpu/armv7/start.o
 .rel.text.fit_image_print
                0x8087a07c       0x70 arch/arm/cpu/armv7/start.o
 .rel.text.fit_print_contents
                0x8087a0ec       0xd0 arch/arm/cpu/armv7/start.o
 .rel.text.calculate_hash
                0x8087a1bc       0x20 arch/arm/cpu/armv7/start.o
 .rel.text.fit_image_verify_with_data
                0x8087a1dc       0x60 arch/arm/cpu/armv7/start.o
 .rel.text.fit_image_verify
                0x8087a23c       0x10 arch/arm/cpu/armv7/start.o
 .rel.text.fit_all_image_verify
                0x8087a24c       0x28 arch/arm/cpu/armv7/start.o
 .rel.text.fit_check_format
                0x8087a274       0x18 arch/arm/cpu/armv7/start.o
 .rel.text.fit_conf_get_node
                0x8087a28c       0x10 arch/arm/cpu/armv7/start.o
 .rel.text.fit_image_load
                0x8087a29c       0xa0 arch/arm/cpu/armv7/start.o
 .rel.text.boot_get_setup_fit
                0x8087a33c        0x8 arch/arm/cpu/armv7/start.o
 .rel.text.boot_get_fdt_fit
                0x8087a344       0x20 arch/arm/cpu/armv7/start.o
 .rel.text.stdio_get_list
                0x8087a364        0x8 arch/arm/cpu/armv7/start.o
 .rel.text.stdio_get_by_name
                0x8087a36c        0x8 arch/arm/cpu/armv7/start.o
 .rel.text.stdio_register_dev
                0x8087a374        0x8 arch/arm/cpu/armv7/start.o
 .rel.text.stdio_init_tables
                0x8087a37c        0x8 arch/arm/cpu/armv7/start.o
 .rel.text.stdio_add_devices
                0x8087a384       0x28 arch/arm/cpu/armv7/start.o
 .rel.text.do_run
                0x8087a3ac        0x8 arch/arm/cpu/armv7/start.o
 .rel.text.cli_process_fdt
                0x8087a3b4       0x10 arch/arm/cpu/armv7/start.o
 .rel.text.cli_secure_boot_cmd
                0x8087a3c4       0x18 arch/arm/cpu/armv7/start.o
 .rel.text.run_usb_dnl_gadget
                0x8087a3dc       0x20 arch/arm/cpu/armv7/start.o
 .rel.text.find_cmd
                0x8087a3fc       0x18 arch/arm/cpu/armv7/start.o
 .rel.text.cmd_usage
                0x8087a414       0x18 arch/arm/cpu/armv7/start.o
 .rel.text._do_help
                0x8087a42c       0x10 arch/arm/cpu/armv7/start.o
 .rel.text.var_complete
                0x8087a43c       0x10 arch/arm/cpu/armv7/start.o
 .rel.text.complete_subcmdv
                0x8087a44c        0x8 arch/arm/cpu/armv7/start.o
 .rel.text.cmd_auto_complete
                0x8087a454       0x48 arch/arm/cpu/armv7/start.o
 .rel.text.cmd_get_data_size
                0x8087a49c        0x8 arch/arm/cpu/armv7/start.o
 .rel.text.cmd_process
                0x8087a4a4       0x18 arch/arm/cpu/armv7/start.o
 .rel.text.cmd_process_error
                0x8087a4bc        0x8 arch/arm/cpu/armv7/start.o
 .rel.text.xyzModem_get_hdr
                0x8087a4c4       0x30 arch/arm/cpu/armv7/start.o
 .rel.text.xyzModem_stream_open
                0x8087a4f4       0x10 arch/arm/cpu/armv7/start.o
 .rel.text.xyzModem_stream_read
                0x8087a504        0x8 arch/arm/cpu/armv7/start.o
 .rel.text.xyzModem_stream_close
                0x8087a50c       0x20 arch/arm/cpu/armv7/start.o
 .rel.text.xyzModem_stream_terminate
                0x8087a52c        0x8 arch/arm/cpu/armv7/start.o
 .rel.text.xyzModem_error
                0x8087a534       0x10 arch/arm/cpu/armv7/start.o
 .rel.rodata.init_sequence_f
                0x8087a544      0x190 arch/arm/cpu/armv7/start.o
 .rel.rodata.boot_os
                0x8087a6d4       0x38 arch/arm/cpu/armv7/start.o
 .rel.rodata.uimage_comp
                0x8087a70c       0x70 arch/arm/cpu/armv7/start.o
 .rel.rodata.uimage_type
                0x8087a77c      0x270 arch/arm/cpu/armv7/start.o
 .rel.rodata.uimage_os
                0x8087a9ec       0xc0 arch/arm/cpu/armv7/start.o
 .rel.rodata.uimage_arch
                0x8087aaac      0x1b0 arch/arm/cpu/armv7/start.o
 .rel.rodata.CSWTCH.183
                0x8087ac5c       0xe8 arch/arm/cpu/armv7/start.o
 .rel.rodata.CSWTCH.32
                0x8087ad44       0x40 arch/arm/cpu/armv7/start.o
 .rel.data.hash_algo
                0x8087ad84       0xa0 arch/arm/cpu/armv7/start.o
 .rel.u_boot_list_2_cmd_2_showvar
                0x8087ae24       0x28 arch/arm/cpu/armv7/start.o
 .rel.data.reserved_list
                0x8087ae4c       0x58 arch/arm/cpu/armv7/start.o
 .rel.data.init_sequence_r
                0x8087aea4      0x130 arch/arm/cpu/armv7/start.o
 .rel.data.usb_scan_list
                0x8087afd4       0x10 arch/arm/cpu/armv7/start.o
 .rel.u_boot_list_2_blk_driver_2_usb
                0x8087afe4       0x10 arch/arm/cpu/armv7/start.o
 .rel.u_boot_list_2_env_clbk_2_console
                0x8087aff4       0x10 arch/arm/cpu/armv7/start.o
 .rel.data.av_  0x8087b004      0x800 arch/arm/cpu/armv7/start.o
 .rel.u_boot_list_2_env_clbk_2_loadaddr
                0x8087b804       0x10 arch/arm/cpu/armv7/start.o
 .rel.data.stdio_names
                0x8087b814       0x18 arch/arm/cpu/armv7/start.o
 .rel.text.part_driver_lookup_type
                0x8087b82c       0x18 arch/arm/cpu/armv7/start.o
 .rel.text.dev_print
                0x8087b844       0x90 arch/arm/cpu/armv7/start.o
 .rel.text.part_init
                0x8087b8d4       0x18 arch/arm/cpu/armv7/start.o
 .rel.text.part_print
                0x8087b8ec       0x70 arch/arm/cpu/armv7/start.o
 .rel.text.part_get_info_whole_disk
                0x8087b95c       0x10 arch/arm/cpu/armv7/start.o
 .rel.text.blk_get_device_by_str
                0x8087b96c       0x10 arch/arm/cpu/armv7/start.o
 .rel.text.blk_get_device_part_str
                0x8087b97c       0x58 arch/arm/cpu/armv7/start.o
 .rel.text.part_set_generic_name
                0x8087b9d4       0x18 arch/arm/cpu/armv7/start.o
 .rel.text.test_block_type
                0x8087b9ec       0x10 arch/arm/cpu/armv7/start.o
 .rel.text.print_partition_extended
                0x8087b9fc       0x30 arch/arm/cpu/armv7/start.o
 .rel.text.part_print_dos
                0x8087ba2c        0x8 arch/arm/cpu/armv7/start.o
 .rel.text.part_get_info_extended
                0x8087ba34       0x20 arch/arm/cpu/armv7/start.o
 .rel.text.write_mbr_partition
                0x8087ba54       0x18 arch/arm/cpu/armv7/start.o
 .rel.text.part_get_info_iso_verb
                0x8087ba6c       0x70 arch/arm/cpu/armv7/start.o
 .rel.text.part_print_iso
                0x8087badc       0x18 arch/arm/cpu/armv7/start.o
 .rel.text.print_efiname
                0x8087baf4       0x10 arch/arm/cpu/armv7/start.o
 .rel.text.is_pte_valid
                0x8087bb04       0x10 arch/arm/cpu/armv7/start.o
 .rel.text.validate_gpt_entries
                0x8087bb14       0x10 arch/arm/cpu/armv7/start.o
 .rel.text.validate_gpt_header
                0x8087bb24       0x30 arch/arm/cpu/armv7/start.o
 .rel.text.is_gpt_valid
                0x8087bb54       0x40 arch/arm/cpu/armv7/start.o
 .rel.text.part_print_efi
                0x8087bb94       0x60 arch/arm/cpu/armv7/start.o
 .rel.text.part_get_info_efi
                0x8087bbf4       0x40 arch/arm/cpu/armv7/start.o
 .rel.text.get_disk_guid
                0x8087bc34       0x20 arch/arm/cpu/armv7/start.o
 .rel.text.write_gpt_table
                0x8087bc54       0x20 arch/arm/cpu/armv7/start.o
 .rel.text.gpt_fill_pte
                0x8087bc74       0x20 arch/arm/cpu/armv7/start.o
 .rel.text.gpt_fill_header
                0x8087bc94        0x8 arch/arm/cpu/armv7/start.o
 .rel.text.gpt_restore
                0x8087bc9c       0x10 arch/arm/cpu/armv7/start.o
 .rel.text.gpt_verify_headers
                0x8087bcac       0x18 arch/arm/cpu/armv7/start.o
 .rel.text.gpt_verify_partitions
                0x8087bcc4       0x20 arch/arm/cpu/armv7/start.o
 .rel.text.write_mbr_and_gpt_partitions
                0x8087bce4       0x38 arch/arm/cpu/armv7/start.o
 .rel.rodata.CSWTCH.30
                0x8087bd1c       0x40 arch/arm/cpu/armv7/start.o
 .rel.u_boot_list_2_part_driver_2_dos
                0x8087bd5c       0x20 arch/arm/cpu/armv7/start.o
 .rel.u_boot_list_2_part_driver_2_iso
                0x8087bd7c       0x20 arch/arm/cpu/armv7/start.o
 .rel.u_boot_list_2_part_driver_2_a_efi
                0x8087bd9c       0x20 arch/arm/cpu/armv7/start.o
 .rel.text.device_bind_common.constprop.0
                0x8087bdbc       0x10 arch/arm/cpu/armv7/start.o
 .rel.text.device_probe
                0x8087bdcc       0x10 arch/arm/cpu/armv7/start.o
 .rel.text.dev_get_platdata
                0x8087bddc       0x10 arch/arm/cpu/armv7/start.o
 .rel.text.dev_get_parent_platdata
                0x8087bdec       0x10 arch/arm/cpu/armv7/start.o
 .rel.text.dev_get_uclass_platdata
                0x8087bdfc       0x10 arch/arm/cpu/armv7/start.o
 .rel.text.dev_get_priv
                0x8087be0c       0x10 arch/arm/cpu/armv7/start.o
 .rel.text.dev_get_uclass_priv
                0x8087be1c       0x10 arch/arm/cpu/armv7/start.o
 .rel.text.devfdt_get_addr_index
                0x8087be2c        0x8 arch/arm/cpu/armv7/start.o
 .rel.text.lists_driver_lookup_name
                0x8087be34       0x18 arch/arm/cpu/armv7/start.o
 .rel.text.lists_uclass_lookup
                0x8087be4c       0x18 arch/arm/cpu/armv7/start.o
 .rel.text.lists_bind_drivers
                0x8087be64       0x20 arch/arm/cpu/armv7/start.o
 .rel.text.lists_bind_fdt
                0x8087be84       0x30 arch/arm/cpu/armv7/start.o
 .rel.text.dm_scan_fdt_node
                0x8087beb4       0x18 arch/arm/cpu/armv7/start.o
 .rel.text.dm_root
                0x8087becc        0x8 arch/arm/cpu/armv7/start.o
 .rel.text.dm_init
                0x8087bed4       0x10 arch/arm/cpu/armv7/start.o
 .rel.text.dm_scan_platdata
                0x8087bee4        0x8 arch/arm/cpu/armv7/start.o
 .rel.text.dm_extended_scan_fdt
                0x8087beec       0x10 arch/arm/cpu/armv7/start.o
 .rel.text.uclass_resolve_seq
                0x8087befc        0x8 arch/arm/cpu/armv7/start.o
 .rel.text.dm_ofnode_pre_reloc
                0x8087bf04       0x18 arch/arm/cpu/armv7/start.o
 .rel.text.device_remove
                0x8087bf1c       0x20 arch/arm/cpu/armv7/start.o
 .rel.text.simple_bus_post_bind
                0x8087bf3c        0x8 arch/arm/cpu/armv7/start.o
 .rel.text.show_devices
                0x8087bf44       0x30 arch/arm/cpu/armv7/start.o
 .rel.text.dm_dump_all
                0x8087bf74       0x10 arch/arm/cpu/armv7/start.o
 .rel.text.dm_dump_uclass
                0x8087bf84       0x20 arch/arm/cpu/armv7/start.o
 .rel.text.dfu_write_buffer_drain
                0x8087bfa4       0x10 arch/arm/cpu/armv7/start.o
 .rel.text.dfu_free_buf
                0x8087bfb4        0x8 arch/arm/cpu/armv7/start.o
 .rel.text.dfu_get_buf_size
                0x8087bfbc        0x8 arch/arm/cpu/armv7/start.o
 .rel.text.dfu_get_buf
                0x8087bfc4       0x28 arch/arm/cpu/armv7/start.o
 .rel.text.dfu_transaction_initiate
                0x8087bfec        0x8 arch/arm/cpu/armv7/start.o
 .rel.text.dfu_flush
                0x8087bff4       0x10 arch/arm/cpu/armv7/start.o
 .rel.text.dfu_write
                0x8087c004       0x18 arch/arm/cpu/armv7/start.o
 .rel.text.dfu_read
                0x8087c01c       0x30 arch/arm/cpu/armv7/start.o
 .rel.text.dfu_free_entities
                0x8087c04c       0x10 arch/arm/cpu/armv7/start.o
 .rel.text.dfu_config_entities
                0x8087c05c       0x90 arch/arm/cpu/armv7/start.o
 .rel.text.dfu_init_env_entities
                0x8087c0ec       0x20 arch/arm/cpu/armv7/start.o
 .rel.text.dfu_get_dev_type
                0x8087c10c        0x8 arch/arm/cpu/armv7/start.o
 .rel.text.dfu_get_layout
                0x8087c114        0x8 arch/arm/cpu/armv7/start.o
 .rel.text.dfu_show_entities
                0x8087c11c       0x18 arch/arm/cpu/armv7/start.o
 .rel.text.dfu_get_alt_number
                0x8087c134        0x8 arch/arm/cpu/armv7/start.o
 .rel.text.dfu_get_entity
                0x8087c13c        0x8 arch/arm/cpu/armv7/start.o
 .rel.text.dfu_get_alt
                0x8087c144        0x8 arch/arm/cpu/armv7/start.o
 .rel.text.dfu_write_from_mem_addr
                0x8087c14c       0x18 arch/arm/cpu/armv7/start.o
 .rel.text.mmc_block_op
                0x8087c164       0x18 arch/arm/cpu/armv7/start.o
 .rel.text.mmc_file_op
                0x8087c17c       0x40 arch/arm/cpu/armv7/start.o
 .rel.text.dfu_get_medium_size_mmc
                0x8087c1bc       0x18 arch/arm/cpu/armv7/start.o
 .rel.text.dfu_read_medium_mmc
                0x8087c1d4       0x20 arch/arm/cpu/armv7/start.o
 .rel.text.dfu_free_entity_mmc
                0x8087c1f4        0x8 arch/arm/cpu/armv7/start.o
 .rel.text.dfu_flush_medium_mmc
                0x8087c1fc       0x10 arch/arm/cpu/armv7/start.o
 .rel.text.dfu_write_medium_mmc
                0x8087c20c       0x20 arch/arm/cpu/armv7/start.o
 .rel.text.dfu_fill_entity_mmc
                0x8087c22c       0x90 arch/arm/cpu/armv7/start.o
 .rel.text.dfu_read_medium_ram
                0x8087c2bc       0x10 arch/arm/cpu/armv7/start.o
 .rel.text.dfu_write_medium_ram
                0x8087c2cc       0x10 arch/arm/cpu/armv7/start.o
 .rel.text.dfu_fill_entity_ram
                0x8087c2dc       0x38 arch/arm/cpu/armv7/start.o
 .rel.text.dfu_tftp_write
                0x8087c314       0x18 arch/arm/cpu/armv7/start.o
 .rel.text.blk_driver_lookup_type
                0x8087c32c       0x18 arch/arm/cpu/armv7/start.o
 .rel.text.blk_list_devices
                0x8087c344        0x8 arch/arm/cpu/armv7/start.o
 .rel.text.blk_print_device_num
                0x8087c34c        0x8 arch/arm/cpu/armv7/start.o
 .rel.text.blk_show_device
                0x8087c354       0x10 arch/arm/cpu/armv7/start.o
 .rel.text.blk_get_devnum_by_typename
                0x8087c364       0x18 arch/arm/cpu/armv7/start.o
 .rel.text.fastboot_fail
                0x8087c37c       0x10 arch/arm/cpu/armv7/start.o
 .rel.text.fastboot_okay
                0x8087c38c       0x10 arch/arm/cpu/armv7/start.o
 .rel.text.fastboot_boot
                0x8087c39c       0x30 arch/arm/cpu/armv7/start.o
 .rel.text.fastboot_init
                0x8087c3cc       0x18 arch/arm/cpu/armv7/start.o
 .rel.text.getvar_downloadsize
                0x8087c3e4       0x18 arch/arm/cpu/armv7/start.o
 .rel.text.getvar_partition_size
                0x8087c3fc       0x10 arch/arm/cpu/armv7/start.o
 .rel.text.getvar_slot_suffixes
                0x8087c40c        0x8 arch/arm/cpu/armv7/start.o
 .rel.text.getvar_current_slot
                0x8087c414        0x8 arch/arm/cpu/armv7/start.o
 .rel.text.getvar_version_baseband
                0x8087c41c        0x8 arch/arm/cpu/armv7/start.o
 .rel.text.getvar_bootloader_version
                0x8087c424        0x8 arch/arm/cpu/armv7/start.o
 .rel.text.getvar_version
                0x8087c42c        0x8 arch/arm/cpu/armv7/start.o
 .rel.text.getvar_partition_type
                0x8087c434        0x8 arch/arm/cpu/armv7/start.o
 .rel.text.getvar_has_slot
                0x8087c43c       0x20 arch/arm/cpu/armv7/start.o
 .rel.text.getvar_product
                0x8087c45c       0x10 arch/arm/cpu/armv7/start.o
 .rel.text.getvar_serialno
                0x8087c46c       0x10 arch/arm/cpu/armv7/start.o
 .rel.text.fastboot_getvar
                0x8087c47c       0x38 arch/arm/cpu/armv7/start.o
 .rel.text.flash
                0x8087c4b4       0x10 arch/arm/cpu/armv7/start.o
 .rel.text.download
                0x8087c4c4       0x40 arch/arm/cpu/armv7/start.o
 .rel.text.oem_format
                0x8087c504       0x20 arch/arm/cpu/armv7/start.o
 .rel.text.reboot_bootloader
                0x8087c524        0x8 arch/arm/cpu/armv7/start.o
 .rel.text.fastboot_handle_command
                0x8087c52c       0x20 arch/arm/cpu/armv7/start.o
 .rel.text.fastboot_data_remaining
                0x8087c54c       0x10 arch/arm/cpu/armv7/start.o
 .rel.text.fastboot_data_download
                0x8087c55c       0x20 arch/arm/cpu/armv7/start.o
 .rel.text.fastboot_data_complete
                0x8087c57c       0x28 arch/arm/cpu/armv7/start.o
 .rel.text.fb_mmc_blk_write
                0x8087c5a4       0x18 arch/arm/cpu/armv7/start.o
 .rel.text.part_get_info_by_name_or_alias
                0x8087c5bc        0x8 arch/arm/cpu/armv7/start.o
 .rel.text.fastboot_mmc_get_part_info
                0x8087c5c4       0x18 arch/arm/cpu/armv7/start.o
 .rel.text.fastboot_mmc_flash_write
                0x8087c5dc      0x1a8 arch/arm/cpu/armv7/start.o
 .rel.text.fastboot_mmc_erase
                0x8087c784       0x48 arch/arm/cpu/armv7/start.o
 .rel.text.mmc_mode_name
                0x8087c7cc       0x10 arch/arm/cpu/armv7/start.o
 .rel.text.mmc_send_status
                0x8087c7dc       0x10 arch/arm/cpu/armv7/start.o
 .rel.text.mmc_bread
                0x8087c7ec       0x10 arch/arm/cpu/armv7/start.o
 .rel.text.mmc_startup_v4.constprop.0
                0x8087c7fc        0x8 arch/arm/cpu/armv7/start.o
 .rel.text.mmc_hwpart_config
                0x8087c804       0x48 arch/arm/cpu/armv7/start.o
 .rel.text.mmc_get_op_cond
                0x8087c84c        0x8 arch/arm/cpu/armv7/start.o
 .rel.text.mmc_start_init
                0x8087c854        0x8 arch/arm/cpu/armv7/start.o
 .rel.text.mmc_init
                0x8087c85c       0x88 arch/arm/cpu/armv7/start.o
 .rel.text.mmc_initialize
                0x8087c8e4        0x8 arch/arm/cpu/armv7/start.o
 .rel.text.mmc_berase
                0x8087c8ec       0x10 arch/arm/cpu/armv7/start.o
 .rel.text.mmc_bwrite
                0x8087c8fc       0x18 arch/arm/cpu/armv7/start.o
 .rel.text.find_mmc_device
                0x8087c914       0x10 arch/arm/cpu/armv7/start.o
 .rel.text.mmc_get_next_devnum
                0x8087c924        0x8 arch/arm/cpu/armv7/start.o
 .rel.text.get_mmc_num
                0x8087c92c        0x8 arch/arm/cpu/armv7/start.o
 .rel.text.mmc_do_preinit
                0x8087c934        0x8 arch/arm/cpu/armv7/start.o
 .rel.text.mmc_list_init
                0x8087c93c       0x10 arch/arm/cpu/armv7/start.o
 .rel.text.mmc_list_add
                0x8087c94c        0x8 arch/arm/cpu/armv7/start.o
 .rel.text.print_mmc_devices
                0x8087c954       0x40 arch/arm/cpu/armv7/start.o
 .rel.text.mmc_create
                0x8087c994       0x18 arch/arm/cpu/armv7/start.o
 .rel.text.mmc_reset_controller_fsm
                0x8087c9ac       0x10 arch/arm/cpu/armv7/start.o
 .rel.text.omap_hsmmc_send_cmd
                0x8087c9bc       0x38 arch/arm/cpu/armv7/start.o
 .rel.text.omap_hsmmc_set_ios
                0x8087c9f4       0x10 arch/arm/cpu/armv7/start.o
 .rel.text.mmc_init_stream
                0x8087ca04       0x18 arch/arm/cpu/armv7/start.o
 .rel.text.omap_hsmmc_init_setup
                0x8087ca1c       0x20 arch/arm/cpu/armv7/start.o
 .rel.text.omap_mmc_init
                0x8087ca3c       0x20 arch/arm/cpu/armv7/start.o
 .rel.text.rtc_to_tm
                0x8087ca5c        0x8 arch/arm/cpu/armv7/start.o
 .rel.text.hw_watchdog_reset
                0x8087ca64        0x8 arch/arm/cpu/armv7/start.o
 .rel.rodata.root_info
                0x8087ca6c        0x8 arch/arm/cpu/armv7/start.o
 .rel.rodata.generic_simple_bus_ids
                0x8087ca74       0x10 arch/arm/cpu/armv7/start.o
 .rel.rodata.bootm_args.0
                0x8087ca84       0x10 arch/arm/cpu/armv7/start.o
 .rel.rodata.getvar_dispatch
                0x8087ca94       0xd0 arch/arm/cpu/armv7/start.o
 .rel.rodata.commands
                0x8087cb64       0xa0 arch/arm/cpu/armv7/start.o
 .rel.rodata.names.4
                0x8087cc04       0x68 arch/arm/cpu/armv7/start.o
 .rel.rodata.omap_hsmmc_ops
                0x8087cc6c       0x28 arch/arm/cpu/armv7/start.o
 .rel.u_boot_list_2_uclass_2_root
                0x8087cc94        0x8 arch/arm/cpu/armv7/start.o
 .rel.u_boot_list_2_driver_2_root_driver
                0x8087cc9c        0x8 arch/arm/cpu/armv7/start.o
 .rel.u_boot_list_2_driver_2_simple_bus_drv
                0x8087cca4       0x10 arch/arm/cpu/armv7/start.o
 .rel.u_boot_list_2_uclass_2_simple_bus
                0x8087ccb4       0x10 arch/arm/cpu/armv7/start.o
 .rel.data.dfu_list
                0x8087ccc4       0x10 arch/arm/cpu/armv7/start.o
 .rel.u_boot_list_2_blk_driver_2_mmc
                0x8087ccd4       0x18 arch/arm/cpu/armv7/start.o
 .rel.text.check_reserved
                0x8087ccec       0x10 arch/arm/cpu/armv7/start.o
 .rel.text.dm_gpio_lookup_name
                0x8087ccfc        0x8 arch/arm/cpu/armv7/start.o
 .rel.text.gpio_direction_input
                0x8087cd04        0x8 arch/arm/cpu/armv7/start.o
 .rel.text.gpio_direction_output
                0x8087cd0c        0x8 arch/arm/cpu/armv7/start.o
 .rel.text.dm_gpio_get_value
                0x8087cd14        0x8 arch/arm/cpu/armv7/start.o
 .rel.text.dm_gpio_set_value
                0x8087cd1c        0x8 arch/arm/cpu/armv7/start.o
 .rel.text.dm_gpio_set_dir_flags
                0x8087cd24        0x8 arch/arm/cpu/armv7/start.o
 .rel.text.gpio_request_tail
                0x8087cd2c       0x10 arch/arm/cpu/armv7/start.o
 .rel.text.gpio_get_status
                0x8087cd3c       0x28 arch/arm/cpu/armv7/start.o
 .rel.text.gpio_request_list_by_name_nodev
                0x8087cd64        0x8 arch/arm/cpu/armv7/start.o
 .rel.text.omap_gpio_probe
                0x8087cd6c        0x8 arch/arm/cpu/armv7/start.o
 .rel.rodata.gpio_function
                0x8087cd74       0x28 arch/arm/cpu/armv7/start.o
 .rel.rodata.omap_gpio_ids
                0x8087cd9c       0x18 arch/arm/cpu/armv7/start.o
 .rel.rodata.gpio_omap_ops
                0x8087cdb4       0x28 arch/arm/cpu/armv7/start.o
 .rel.u_boot_list_2_uclass_2_gpio
                0x8087cddc       0x20 arch/arm/cpu/armv7/start.o
 .rel.u_boot_list_2_driver_2_gpio_omap
                0x8087cdfc       0x28 arch/arm/cpu/armv7/start.o
 .rel.text.i2c_uclass_init
                0x8087ce24        0x8 arch/arm/cpu/armv7/start.o
 .rel.text.i2c_get_chip
                0x8087ce2c       0x10 arch/arm/cpu/armv7/start.o
 .rel.text.i2c_post_probe
                0x8087ce3c        0x8 arch/arm/cpu/armv7/start.o
 .rel.text.i2c_deblock
                0x8087ce44        0x8 arch/arm/cpu/armv7/start.o
 .rel.text.i2c_chip_ofdata_to_platdata
                0x8087ce4c       0x10 arch/arm/cpu/armv7/start.o
 .rel.text.i2c_compat_get_device
                0x8087ce5c       0x10 arch/arm/cpu/armv7/start.o
 .rel.text.i2c_probe
                0x8087ce6c        0x8 arch/arm/cpu/armv7/start.o
 .rel.text.i2c_set_bus_num
                0x8087ce74        0x8 arch/arm/cpu/armv7/start.o
 .rel.text.wait_for_bb
                0x8087ce7c       0x20 arch/arm/cpu/armv7/start.o
 .rel.text.wait_for_event
                0x8087ce9c       0x28 arch/arm/cpu/armv7/start.o
 .rel.text.flush_fifo
                0x8087cec4       0x10 arch/arm/cpu/armv7/start.o
 .rel.text.omap_i2c_probe_chip
                0x8087ced4       0x18 arch/arm/cpu/armv7/start.o
 .rel.text.omap_i2c_ofdata_to_platdata
                0x8087ceec        0x8 arch/arm/cpu/armv7/start.o
 .rel.text.omap_i2c_xfer
                0x8087cef4       0x60 arch/arm/cpu/armv7/start.o
 .rel.text.__omap24_i2c_setspeed
                0x8087cf54       0x20 arch/arm/cpu/armv7/start.o
 .rel.text.omap_i2c_probe
                0x8087cf74       0x20 arch/arm/cpu/armv7/start.o
 .rel.rodata.omap_i2c_ops
                0x8087cf94       0x18 arch/arm/cpu/armv7/start.o
 .rel.rodata.omap_i2c_ids
                0x8087cfac       0x10 arch/arm/cpu/armv7/start.o
 .rel.u_boot_list_2_driver_2_i2c_generic_chip_drv
                0x8087cfbc        0x8 arch/arm/cpu/armv7/start.o
 .rel.u_boot_list_2_uclass_2_i2c_generic
                0x8087cfc4        0x8 arch/arm/cpu/armv7/start.o
 .rel.u_boot_list_2_uclass_2_i2c
                0x8087cfcc       0x28 arch/arm/cpu/armv7/start.o
 .rel.u_boot_list_2_driver_2_i2c_omap
                0x8087cff4       0x28 arch/arm/cpu/armv7/start.o
 .rel.text.mtd_arg_off
                0x8087d01c       0x10 arch/arm/cpu/armv7/start.o
 .rel.text.mtd_arg_off_size
                0x8087d02c       0x28 arch/arm/cpu/armv7/start.o
 .rel.text.spi_nor_wait_till_ready
                0x8087d054        0x8 arch/arm/cpu/armv7/start.o
 .rel.text.spi_nor_scan
                0x8087d05c       0xc8 arch/arm/cpu/armv7/start.o
 .rel.rodata.spi_nor_ids
                0x8087d124       0xd8 arch/arm/cpu/armv7/start.o
 .rel.text.enc_claim_bus
                0x8087d1fc        0x8 arch/arm/cpu/armv7/start.o
 .rel.text.enc_phy_write
                0x8087d204        0x8 arch/arm/cpu/armv7/start.o
 .rel.text.enc_w8_retry
                0x8087d20c        0x8 arch/arm/cpu/armv7/start.o
 .rel.text.enc_phy_read
                0x8087d214        0x8 arch/arm/cpu/armv7/start.o
 .rel.text.enc_initcheck
                0x8087d21c       0x38 arch/arm/cpu/armv7/start.o
 .rel.text.enc_recv
                0x8087d254       0x20 arch/arm/cpu/armv7/start.o
 .rel.text.enc28j60_initialize
                0x8087d274       0x38 arch/arm/cpu/armv7/start.o
 .rel.text.cpsw_send
                0x8087d2ac        0x8 arch/arm/cpu/armv7/start.o
 .rel.text.cpsw_ale_add_mcast.constprop.0.isra.0
                0x8087d2b4        0x8 arch/arm/cpu/armv7/start.o
 .rel.text.cpsw_init
                0x8087d2bc       0x30 arch/arm/cpu/armv7/start.o
 .rel.text._cpsw_register
                0x8087d2ec        0x8 arch/arm/cpu/armv7/start.o
 .rel.text.cpsw_register
                0x8087d2f4       0x28 arch/arm/cpu/armv7/start.o
 .rel.text.cpsw_mdio_init
                0x8087d31c       0x18 arch/arm/cpu/armv7/start.o
 .rel.text.genphy_update_link
                0x8087d334       0x28 arch/arm/cpu/armv7/start.o
 .rel.text.phy_register
                0x8087d35c        0x8 arch/arm/cpu/armv7/start.o
 .rel.text.get_phy_device_by_mask
                0x8087d364       0x18 arch/arm/cpu/armv7/start.o
 .rel.text.phy_reset
                0x8087d37c        0x8 arch/arm/cpu/armv7/start.o
 .rel.text.phy_connect_dev
                0x8087d384        0x8 arch/arm/cpu/armv7/start.o
 .rel.text.phy_connect
                0x8087d38c        0x8 arch/arm/cpu/armv7/start.o
 .rel.text.phy_atheros_init
                0x8087d394       0x18 arch/arm/cpu/armv7/start.o
 .rel.text.phy_smsc_init
                0x8087d3ac       0x30 arch/arm/cpu/armv7/start.o
 .rel.text.vsc8531_vsc8541_mac_config
                0x8087d3dc        0x8 arch/arm/cpu/armv7/start.o
 .rel.text.mscc_phy_soft_reset
                0x8087d3e4        0x8 arch/arm/cpu/armv7/start.o
 .rel.text.vsc8584_config
                0x8087d3ec        0x8 arch/arm/cpu/armv7/start.o
 .rel.text.vsc8574_config
                0x8087d3f4        0x8 arch/arm/cpu/armv7/start.o
 .rel.text.vsc8531_config
                0x8087d3fc        0x8 arch/arm/cpu/armv7/start.o
 .rel.text.vsc8541_config
                0x8087d404        0x8 arch/arm/cpu/armv7/start.o
 .rel.text.vsc8584_patch_fw.isra.0
                0x8087d40c       0x10 arch/arm/cpu/armv7/start.o
 .rel.text.vsc8574_config_pre_init
                0x8087d41c       0x10 arch/arm/cpu/armv7/start.o
 .rel.text.vsc8584_config_pre_init
                0x8087d42c        0x8 arch/arm/cpu/armv7/start.o
 .rel.text.phy_mscc_init
                0x8087d434       0x30 arch/arm/cpu/armv7/start.o
 .rel.data.phy_drivers
                0x8087d464       0x10 arch/arm/cpu/armv7/start.o
 .rel.data.genphy_driver
                0x8087d474       0x20 arch/arm/cpu/armv7/start.o
 .rel.data.AR8035_driver
                0x8087d494       0x20 arch/arm/cpu/armv7/start.o
 .rel.data.AR8031_driver
                0x8087d4b4       0x20 arch/arm/cpu/armv7/start.o
 .rel.data.AR8021_driver
                0x8087d4d4       0x20 arch/arm/cpu/armv7/start.o
 .rel.data.lan8742_driver
                0x8087d4f4       0x20 arch/arm/cpu/armv7/start.o
 .rel.data.lan8741_driver
                0x8087d514       0x20 arch/arm/cpu/armv7/start.o
 .rel.data.lan8740_driver
                0x8087d534       0x20 arch/arm/cpu/armv7/start.o
 .rel.data.lan8710_driver
                0x8087d554       0x20 arch/arm/cpu/armv7/start.o
 .rel.data.lan911x_driver
                0x8087d574       0x20 arch/arm/cpu/armv7/start.o
 .rel.data.lan8700_driver
                0x8087d594       0x20 arch/arm/cpu/armv7/start.o
 .rel.data.VSC8584_driver
                0x8087d5b4       0x20 arch/arm/cpu/armv7/start.o
 .rel.data.VSC8574_driver
                0x8087d5d4       0x20 arch/arm/cpu/armv7/start.o
 .rel.data.VSC8541_driver
                0x8087d5f4       0x20 arch/arm/cpu/armv7/start.o
 .rel.data.VSC8540_driver
                0x8087d614       0x20 arch/arm/cpu/armv7/start.o
 .rel.data.VSC8531_driver
                0x8087d634       0x20 arch/arm/cpu/armv7/start.o
 .rel.data.VSC8530_driver
                0x8087d654       0x20 arch/arm/cpu/armv7/start.o
 .rel.data.vsc8584_priv
                0x8087d674        0x8 arch/arm/cpu/armv7/start.o
 .rel.data.vsc8574_priv
                0x8087d67c        0x8 arch/arm/cpu/armv7/start.o
 .rel.text.serial_post_probe
                0x8087d684       0x20 arch/arm/cpu/armv7/start.o
 .rel.text.serial_init
                0x8087d6a4       0x18 arch/arm/cpu/armv7/start.o
 .rel.text.on_baudrate
                0x8087d6bc       0x18 arch/arm/cpu/armv7/start.o
 .rel.text.ns16550_serial_ofdata_to_platdata
                0x8087d6d4       0x20 arch/arm/cpu/armv7/start.o
 .rel.text.ns16550_serial_setconfig
                0x8087d6f4        0x8 arch/arm/cpu/armv7/start.o
 .rel.text.omap_serial_ofdata_to_platdata
                0x8087d6fc       0x10 arch/arm/cpu/armv7/start.o
 .rel.rodata.ns16550_serial_ids
                0x8087d70c       0x28 arch/arm/cpu/armv7/start.o
 .rel.rodata.ns16550_serial_ops
                0x8087d734       0x30 arch/arm/cpu/armv7/start.o
 .rel.rodata.omap_serial_ids
                0x8087d764       0x38 arch/arm/cpu/armv7/start.o
 .rel.u_boot_list_2_uclass_2_serial
                0x8087d79c       0x18 arch/arm/cpu/armv7/start.o
 .rel.u_boot_list_2_env_clbk_2_baudrate
                0x8087d7b4       0x10 arch/arm/cpu/armv7/start.o
 .rel.u_boot_list_2_driver_2_ns16550_serial
                0x8087d7c4       0x28 arch/arm/cpu/armv7/start.o
 .rel.u_boot_list_2_driver_2_omap_serial
                0x8087d7ec       0x28 arch/arm/cpu/armv7/start.o
 .rel.text.spi_setup_slave
                0x8087d814       0x28 arch/arm/cpu/armv7/start.o
 .rel.text.spi_xfer
                0x8087d83c       0x18 arch/arm/cpu/armv7/start.o
 .rel.text.usb_ep_autoconfig
                0x8087d854        0x8 arch/arm/cpu/armv7/start.o
 .rel.text.usb_ep_autoconfig_reset
                0x8087d85c        0x8 arch/arm/cpu/armv7/start.o
 .rel.text.composite_disconnect
                0x8087d864        0x8 arch/arm/cpu/armv7/start.o
 .rel.text.composite_suspend
                0x8087d86c        0x8 arch/arm/cpu/armv7/start.o
 .rel.text.composite_resume
                0x8087d874        0x8 arch/arm/cpu/armv7/start.o
 .rel.text.composite_unbind
                0x8087d87c       0x28 arch/arm/cpu/armv7/start.o
 .rel.text.composite_bind
                0x8087d8a4       0x10 arch/arm/cpu/armv7/start.o
 .rel.text.g_dnl_do_config
                0x8087d8b4        0x8 arch/arm/cpu/armv7/start.o
 .rel.text.composite_setup
                0x8087d8bc       0x10 arch/arm/cpu/armv7/start.o
 .rel.text.usb_composite_register
                0x8087d8cc       0x18 arch/arm/cpu/armv7/start.o
 .rel.text.usb_composite_unregister
                0x8087d8e4       0x10 arch/arm/cpu/armv7/start.o
 .rel.text.g_dnl_set_serialnumber
                0x8087d8f4        0x8 arch/arm/cpu/armv7/start.o
 .rel.text.g_dnl_bind
                0x8087d8fc       0x30 arch/arm/cpu/armv7/start.o
 .rel.text.g_dnl_detach
                0x8087d92c        0x8 arch/arm/cpu/armv7/start.o
 .rel.text.g_dnl_trigger_detach
                0x8087d934        0x8 arch/arm/cpu/armv7/start.o
 .rel.text.g_dnl_clear_detach
                0x8087d93c        0x8 arch/arm/cpu/armv7/start.o
 .rel.text.g_dnl_register
                0x8087d944       0x18 arch/arm/cpu/armv7/start.o
 .rel.text.g_dnl_unregister
                0x8087d95c        0x8 arch/arm/cpu/armv7/start.o
 .rel.text.dfu_add
                0x8087d964       0x58 arch/arm/cpu/armv7/start.o
 .rel.text.dfu_handle
                0x8087d9bc       0x10 arch/arm/cpu/armv7/start.o
 .rel.text.dnload_request_flush
                0x8087d9cc        0x8 arch/arm/cpu/armv7/start.o
 .rel.text.dfu_bind
                0x8087d9d4       0x28 arch/arm/cpu/armv7/start.o
 .rel.text.state_dfu_manifest_sync
                0x8087d9fc        0x8 arch/arm/cpu/armv7/start.o
 .rel.text.state_dfu_dnload_idle
                0x8087da04        0x8 arch/arm/cpu/armv7/start.o
 .rel.text.state_app_idle
                0x8087da0c        0x8 arch/arm/cpu/armv7/start.o
 .rel.text.state_dfu_manifest
                0x8087da14        0x8 arch/arm/cpu/armv7/start.o
 .rel.text.state_dfu_idle
                0x8087da1c       0x10 arch/arm/cpu/armv7/start.o
 .rel.text.fastboot_unbind
                0x8087da2c        0x8 arch/arm/cpu/armv7/start.o
 .rel.text.fastboot_add
                0x8087da34       0x38 arch/arm/cpu/armv7/start.o
 .rel.text.fastboot_set_alt
                0x8087da6c       0x50 arch/arm/cpu/armv7/start.o
 .rel.text.fastboot_complete
                0x8087dabc        0x8 arch/arm/cpu/armv7/start.o
 .rel.text.fastboot_bind
                0x8087dac4       0x48 arch/arm/cpu/armv7/start.o
 .rel.text.fastboot_tx_write_str.isra.0
                0x8087db0c       0x10 arch/arm/cpu/armv7/start.o
 .rel.text.rx_handler_dl_image
                0x8087db1c       0x10 arch/arm/cpu/armv7/start.o
 .rel.text.rx_handler_command
                0x8087db2c       0x40 arch/arm/cpu/armv7/start.o
 .rel.text.tx_complete
                0x8087db6c        0x8 arch/arm/cpu/armv7/start.o
 .rel.text.rx_complete
                0x8087db74        0x8 arch/arm/cpu/armv7/start.o
 .rel.text.usb_eth_send
                0x8087db7c       0x20 arch/arm/cpu/armv7/start.o
 .rel.text.rndis_command_complete
                0x8087db9c       0x10 arch/arm/cpu/armv7/start.o
 .rel.text.rndis_control_ack_complete
                0x8087dbac        0x8 arch/arm/cpu/armv7/start.o
 .rel.text.rndis_control_ack
                0x8087dbb4       0x10 arch/arm/cpu/armv7/start.o
 .rel.text.nibble
                0x8087dbc4        0x8 arch/arm/cpu/armv7/start.o
 .rel.text.set_ether_config.constprop.0
                0x8087dbcc       0x38 arch/arm/cpu/armv7/start.o
 .rel.text.eth_setup
                0x8087dc04       0x98 arch/arm/cpu/armv7/start.o
 .rel.text.rx_submit.constprop.0.isra.0
                0x8087dc9c       0x18 arch/arm/cpu/armv7/start.o
 .rel.text.usb_eth_recv
                0x8087dcb4       0x18 arch/arm/cpu/armv7/start.o
 .rel.text.eth_bind
                0x8087dccc      0x128 arch/arm/cpu/armv7/start.o
 .rel.text.usb_eth_init
                0x8087ddf4       0x88 arch/arm/cpu/armv7/start.o
 .rel.text.usb_eth_initialize
                0x8087de7c       0x30 arch/arm/cpu/armv7/start.o
 .rel.text.rndis_add_response
                0x8087deac        0x8 arch/arm/cpu/armv7/start.o
 .rel.text.rndis_signal_connect
                0x8087deb4        0x8 arch/arm/cpu/armv7/start.o
 .rel.text.rndis_signal_disconnect
                0x8087debc        0x8 arch/arm/cpu/armv7/start.o
 .rel.text.rndis_set_host_mac
                0x8087dec4        0x8 arch/arm/cpu/armv7/start.o
 .rel.text.rndis_get_state
                0x8087decc        0x8 arch/arm/cpu/armv7/start.o
 .rel.text.rndis_msg_parser
                0x8087ded4       0xc8 arch/arm/cpu/armv7/start.o
 .rel.text.rndis_register
                0x8087df9c        0x8 arch/arm/cpu/armv7/start.o
 .rel.text.rndis_deregister
                0x8087dfa4        0x8 arch/arm/cpu/armv7/start.o
 .rel.text.rndis_set_param_dev
                0x8087dfac        0x8 arch/arm/cpu/armv7/start.o
 .rel.text.rndis_set_param_vendor
                0x8087dfb4        0x8 arch/arm/cpu/armv7/start.o
 .rel.text.rndis_set_param_medium
                0x8087dfbc        0x8 arch/arm/cpu/armv7/start.o
 .rel.text.rndis_free_response
                0x8087dfc4        0x8 arch/arm/cpu/armv7/start.o
 .rel.text.rndis_get_next_response
                0x8087dfcc        0x8 arch/arm/cpu/armv7/start.o
 .rel.text.rndis_uninit
                0x8087dfd4        0x8 arch/arm/cpu/armv7/start.o
 .rel.text.rndis_init
                0x8087dfdc        0x8 arch/arm/cpu/armv7/start.o
 .rel.rodata.dfu_state
                0x8087dfe4       0x50 arch/arm/cpu/armv7/start.o
 .rel.data.g_dnl_driver
                0x8087e034       0x20 arch/arm/cpu/armv7/start.o
 .rel.u_boot_list_2_env_clbk_2_serialno
                0x8087e054       0x10 arch/arm/cpu/armv7/start.o
 .rel.data.g_dnl_composite_strings
                0x8087e064        0x8 arch/arm/cpu/armv7/start.o
 .rel.data.g_dnl_string_tab
                0x8087e06c        0x8 arch/arm/cpu/armv7/start.o
 .rel.data.g_dnl_string_defs
                0x8087e074       0x18 arch/arm/cpu/armv7/start.o
 .rel.data.composite_driver
                0x8087e08c       0x38 arch/arm/cpu/armv7/start.o
 .rel.u_boot_list_2_g_dnl_bind_callbacks_2___usb_function_name_usb_dnl_dfu
                0x8087e0c4       0x10 arch/arm/cpu/armv7/start.o
 .rel.data.dfu_strings
                0x8087e0d4        0x8 arch/arm/cpu/armv7/start.o
 .rel.data.dfu_generic_strings
                0x8087e0dc        0x8 arch/arm/cpu/armv7/start.o
 .rel.data.stringtab_dfu_generic
                0x8087e0e4        0x8 arch/arm/cpu/armv7/start.o
 .rel.data.strings_dfu_generic
                0x8087e0ec        0x8 arch/arm/cpu/armv7/start.o
 .rel.data.dfu_runtime_descs
                0x8087e0f4        0x8 arch/arm/cpu/armv7/start.o
 .rel.u_boot_list_2_g_dnl_bind_callbacks_2___usb_function_name_usb_dnl_fastboot
                0x8087e0fc       0x10 arch/arm/cpu/armv7/start.o
 .rel.data.fastboot_strings
                0x8087e10c        0x8 arch/arm/cpu/armv7/start.o
 .rel.data.stringtab_fastboot
                0x8087e114        0x8 arch/arm/cpu/armv7/start.o
 .rel.data.fastboot_string_defs
                0x8087e11c        0x8 arch/arm/cpu/armv7/start.o
 .rel.data.fb_hs_function
                0x8087e124       0x18 arch/arm/cpu/armv7/start.o
 .rel.data.fb_fs_function
                0x8087e13c       0x18 arch/arm/cpu/armv7/start.o
 .rel.data.stringtab
                0x8087e154        0x8 arch/arm/cpu/armv7/start.o
 .rel.data.strings
                0x8087e15c       0x38 arch/arm/cpu/armv7/start.o
 .rel.data.hs_rndis_function
                0x8087e194       0x50 arch/arm/cpu/armv7/start.o
 .rel.data.hs_eth_function
                0x8087e1e4        0x8 arch/arm/cpu/armv7/start.o
 .rel.data.fs_rndis_function
                0x8087e1ec       0x50 arch/arm/cpu/armv7/start.o
 .rel.data.fs_eth_function
                0x8087e23c        0x8 arch/arm/cpu/armv7/start.o
 .rel.data.l_priv
                0x8087e244        0x8 arch/arm/cpu/armv7/start.o
 .rel.u_boot_list_2_uclass_2_usb_gadget_generic
                0x8087e24c        0x8 arch/arm/cpu/armv7/start.o
 .rel.text.init_peripheral_ep
                0x8087e254       0x30 arch/arm/cpu/armv7/start.o
 .rel.text.musb_gadget_setup
                0x8087e284       0x10 arch/arm/cpu/armv7/start.o
 .rel.text.musb_g_ep0_irq
                0x8087e294       0x80 arch/arm/cpu/armv7/start.o
 .rel.text.musb_load_testpacket
                0x8087e314        0x8 arch/arm/cpu/armv7/start.o
 .rel.text.musb_init_controller
                0x8087e31c       0xc0 arch/arm/cpu/armv7/start.o
 .rel.text.construct_urb
                0x8087e3dc        0x8 arch/arm/cpu/armv7/start.o
 .rel.text.submit_urb.constprop.0
                0x8087e3e4       0x18 arch/arm/cpu/armv7/start.o
 .rel.text.musb_lowlevel_init
                0x8087e3fc        0x8 arch/arm/cpu/armv7/start.o
 .rel.text.usb_lowlevel_stop
                0x8087e404       0x10 arch/arm/cpu/armv7/start.o
 .rel.text.submit_bulk_msg
                0x8087e414        0x8 arch/arm/cpu/armv7/start.o
 .rel.text.submit_control_msg
                0x8087e41c       0x10 arch/arm/cpu/armv7/start.o
 .rel.text.submit_int_msg
                0x8087e42c        0x8 arch/arm/cpu/armv7/start.o
 .rel.text.usb_reset_root_port
                0x8087e434        0x8 arch/arm/cpu/armv7/start.o
 .rel.text.usb_lowlevel_init
                0x8087e43c        0x8 arch/arm/cpu/armv7/start.o
 .rel.text.usb_gadget_handle_interrupts
                0x8087e444        0x8 arch/arm/cpu/armv7/start.o
 .rel.text.usb_gadget_register_driver
                0x8087e44c       0x28 arch/arm/cpu/armv7/start.o
 .rel.text.usb_gadget_unregister_driver
                0x8087e474        0x8 arch/arm/cpu/armv7/start.o
 .rel.text.musb_register
                0x8087e47c       0x18 arch/arm/cpu/armv7/start.o
 .rel.text.musb_h_tx_flush_fifo
                0x8087e494        0x8 arch/arm/cpu/armv7/start.o
 .rel.text.musb_h_ep0_flush_fifo
                0x8087e49c        0x8 arch/arm/cpu/armv7/start.o
 .rel.text.musb_start_urb
                0x8087e4a4       0x20 arch/arm/cpu/armv7/start.o
 .rel.text.musb_h_ep0_irq
                0x8087e4c4       0x20 arch/arm/cpu/armv7/start.o
 .rel.text.musb_host_rx
                0x8087e4e4       0x10 arch/arm/cpu/armv7/start.o
 .rel.text.dsps_musb_init
                0x8087e4f4        0x8 arch/arm/cpu/armv7/start.o
 .rel.rodata.musb_gadget_operations
                0x8087e4fc       0x38 arch/arm/cpu/armv7/start.o
 .rel.rodata.musb_ep_ops
                0x8087e534       0x48 arch/arm/cpu/armv7/start.o
 .rel.rodata.CSWTCH.18
                0x8087e57c       0x38 arch/arm/cpu/armv7/start.o
 .rel.rodata.musb_g_ep0_ops
                0x8087e5b4       0x38 arch/arm/cpu/armv7/start.o
 .rel.data.musb_dsps_ops
                0x8087e5ec       0x20 arch/arm/cpu/armv7/start.o
 .rel.text.set_default_env
                0x8087e60c       0x28 arch/arm/cpu/armv7/start.o
 .rel.text.set_default_vars
                0x8087e634       0x10 arch/arm/cpu/armv7/start.o
 .rel.text.env_import
                0x8087e644       0x28 arch/arm/cpu/armv7/start.o
 .rel.text.env_export
                0x8087e66c       0x18 arch/arm/cpu/armv7/start.o
 .rel.text.env_relocate
                0x8087e684        0x8 arch/arm/cpu/armv7/start.o
 .rel.text.env_complete
                0x8087e68c       0x30 arch/arm/cpu/armv7/start.o
 .rel.text.env_driver_lookup
                0x8087e6bc       0x18 arch/arm/cpu/armv7/start.o
 .rel.text.env_get_char
                0x8087e6d4        0x8 arch/arm/cpu/armv7/start.o
 .rel.text.env_load
                0x8087e6dc       0x10 arch/arm/cpu/armv7/start.o
 .rel.text.env_save
                0x8087e6ec       0x18 arch/arm/cpu/armv7/start.o
 .rel.text.env_init
                0x8087e704        0x8 arch/arm/cpu/armv7/start.o
 .rel.text.regex_callback
                0x8087e70c       0x10 arch/arm/cpu/armv7/start.o
 .rel.text.env_attr_lookup
                0x8087e71c        0x8 arch/arm/cpu/armv7/start.o
 .rel.text.find_env_callback
                0x8087e724       0x18 arch/arm/cpu/armv7/start.o
 .rel.text.on_callbacks
                0x8087e73c       0x20 arch/arm/cpu/armv7/start.o
 .rel.text.set_callback
                0x8087e75c        0x8 arch/arm/cpu/armv7/start.o
 .rel.text.env_callback_init
                0x8087e764       0x20 arch/arm/cpu/armv7/start.o
 .rel.text.skip_num
                0x8087e784        0x8 arch/arm/cpu/armv7/start.o
 .rel.text.on_flags
                0x8087e78c       0x20 arch/arm/cpu/armv7/start.o
 .rel.text.env_flags_parse_vartype
                0x8087e7ac       0x10 arch/arm/cpu/armv7/start.o
 .rel.text.env_flags_parse_varaccess
                0x8087e7bc       0x10 arch/arm/cpu/armv7/start.o
 .rel.text.env_parse_flags_to_bin
                0x8087e7cc        0x8 arch/arm/cpu/armv7/start.o
 .rel.text.set_flags
                0x8087e7d4        0x8 arch/arm/cpu/armv7/start.o
 .rel.text.env_flags_init
                0x8087e7dc       0x20 arch/arm/cpu/armv7/start.o
 .rel.text.env_flags_validate
                0x8087e7fc       0x38 arch/arm/cpu/armv7/start.o
 .rel.text.env_ext4_save
                0x8087e834       0x30 arch/arm/cpu/armv7/start.o
 .rel.text.env_ext4_load
                0x8087e864       0x28 arch/arm/cpu/armv7/start.o
 .rel.data.env_htab
                0x8087e88c        0x8 arch/arm/cpu/armv7/start.o
 .rel.u_boot_list_2_env_clbk_2_callbacks
                0x8087e894       0x10 arch/arm/cpu/armv7/start.o
 .rel.u_boot_list_2_env_clbk_2_flags
                0x8087e8a4       0x10 arch/arm/cpu/armv7/start.o
 .rel.u_boot_list_2_env_driver_2_ext4
                0x8087e8b4       0x18 arch/arm/cpu/armv7/start.o
 .rel.text.fs_probe_unsupported
                0x8087e8cc        0x8 arch/arm/cpu/armv7/start.o
 .rel.text.fs_get_info
                0x8087e8d4        0x8 arch/arm/cpu/armv7/start.o
 .rel.text.fs_close
                0x8087e8dc        0x8 arch/arm/cpu/armv7/start.o
 .rel.text.fs_get_type_name
                0x8087e8e4        0x8 arch/arm/cpu/armv7/start.o
 .rel.text.fs_set_blk_dev
                0x8087e8ec       0x28 arch/arm/cpu/armv7/start.o
 .rel.text.fs_set_blk_dev_with_part
                0x8087e914       0x28 arch/arm/cpu/armv7/start.o
 .rel.text.fs_ls
                0x8087e93c        0x8 arch/arm/cpu/armv7/start.o
 .rel.text.fs_exists
                0x8087e944        0x8 arch/arm/cpu/armv7/start.o
 .rel.text.fs_size
                0x8087e94c        0x8 arch/arm/cpu/armv7/start.o
 .rel.text.fs_read
                0x8087e954        0x8 arch/arm/cpu/armv7/start.o
 .rel.text.fs_write
                0x8087e95c       0x10 arch/arm/cpu/armv7/start.o
 .rel.text.fs_opendir
                0x8087e96c       0x20 arch/arm/cpu/armv7/start.o
 .rel.text.fs_readdir
                0x8087e98c       0x10 arch/arm/cpu/armv7/start.o
 .rel.text.fs_closedir
                0x8087e99c        0x8 arch/arm/cpu/armv7/start.o
 .rel.text.fs_ls_generic
                0x8087e9a4       0x20 arch/arm/cpu/armv7/start.o
 .rel.text.fs_unlink
                0x8087e9c4        0x8 arch/arm/cpu/armv7/start.o
 .rel.text.fs_mkdir
                0x8087e9cc        0x8 arch/arm/cpu/armv7/start.o
 .rel.text.do_size
                0x8087e9d4        0x8 arch/arm/cpu/armv7/start.o
 .rel.text.do_load
                0x8087e9dc       0x60 arch/arm/cpu/armv7/start.o
 .rel.text.do_ls
                0x8087ea3c        0x8 arch/arm/cpu/armv7/start.o
 .rel.text.do_save
                0x8087ea44       0x28 arch/arm/cpu/armv7/start.o
 .rel.text.do_fs_type
                0x8087ea6c       0x10 arch/arm/cpu/armv7/start.o
 .rel.text.do_mkdir
                0x8087ea7c        0x8 arch/arm/cpu/armv7/start.o
 .rel.text.readdir_callback
                0x8087ea84       0x88 arch/arm/cpu/armv7/start.o
 .rel.text.btrfs_probe
                0x8087eb0c       0x38 arch/arm/cpu/armv7/start.o
 .rel.text.btrfs_ls
                0x8087eb44       0x28 arch/arm/cpu/armv7/start.o
 .rel.text.btrfs_exists
                0x8087eb6c        0x8 arch/arm/cpu/armv7/start.o
 .rel.text.btrfs_size
                0x8087eb74       0x18 arch/arm/cpu/armv7/start.o
 .rel.text.btrfs_read
                0x8087eb8c       0x20 arch/arm/cpu/armv7/start.o
 .rel.text.btrfs_uuid
                0x8087ebac        0x8 arch/arm/cpu/armv7/start.o
 .rel.text.add_chunk_mapping
                0x8087ebb4       0x20 arch/arm/cpu/armv7/start.o
 .rel.text.btrfs_map_logical_to_physical
                0x8087ebd4       0x18 arch/arm/cpu/armv7/start.o
 .rel.text.btrfs_chunk_map_exit
                0x8087ebec        0x8 arch/arm/cpu/armv7/start.o
 .rel.text.btrfs_chunk_map_init
                0x8087ebf4       0x18 arch/arm/cpu/armv7/start.o
 .rel.text.btrfs_read_chunk_tree
                0x8087ec0c        0x8 arch/arm/cpu/armv7/start.o
 .rel.text.btrfs_decompress
                0x8087ec14       0x20 arch/arm/cpu/armv7/start.o
 .rel.text.read_tree_node
                0x8087ec34        0x8 arch/arm/cpu/armv7/start.o
 .rel.text.btrfs_search_tree
                0x8087ec3c       0x10 arch/arm/cpu/armv7/start.o
 .rel.text.btrfs_devread
                0x8087ec4c       0x10 arch/arm/cpu/armv7/start.o
 .rel.text.verify_dir_item
                0x8087ec5c       0x18 arch/arm/cpu/armv7/start.o
 .rel.text.btrfs_hash_init
                0x8087ec74       0x10 arch/arm/cpu/armv7/start.o
 .rel.text.btrfs_crc32c
                0x8087ec84        0x8 arch/arm/cpu/armv7/start.o
 .rel.text.btrfs_lookup_inode_ref
                0x8087ec8c       0x10 arch/arm/cpu/armv7/start.o
 .rel.text.btrfs_readlink
                0x8087ec9c       0x30 arch/arm/cpu/armv7/start.o
 .rel.text.btrfs_lookup_path
                0x8087eccc       0x30 arch/arm/cpu/armv7/start.o
 .rel.text.btrfs_file_read
                0x8087ecfc       0x10 arch/arm/cpu/armv7/start.o
 .rel.text.btrfs_find_root
                0x8087ed0c       0x18 arch/arm/cpu/armv7/start.o
 .rel.text.btrfs_lookup_root_ref
                0x8087ed24       0x18 arch/arm/cpu/armv7/start.o
 .rel.text.list_subvols
                0x8087ed3c       0x40 arch/arm/cpu/armv7/start.o
 .rel.text.btrfs_get_default_subvol_objectid
                0x8087ed7c       0x10 arch/arm/cpu/armv7/start.o
 .rel.text.btrfs_read_superblock
                0x8087ed8c       0xe8 arch/arm/cpu/armv7/start.o
 .rel.text.get_fs
                0x8087ee74        0x8 arch/arm/cpu/armv7/start.o
 .rel.text.ext4fs_free_node
                0x8087ee7c        0x8 arch/arm/cpu/armv7/start.o
 .rel.text.ext4fs_read_file
                0x8087ee84        0x8 arch/arm/cpu/armv7/start.o
 .rel.text.ext4fs_ls
                0x8087ee8c       0x10 arch/arm/cpu/armv7/start.o
 .rel.text.ext4fs_read
                0x8087ee9c       0x10 arch/arm/cpu/armv7/start.o
 .rel.text.ext4_read_file
                0x8087eeac        0x8 arch/arm/cpu/armv7/start.o
 .rel.text.ext4fs_uuid
                0x8087eeb4        0x8 arch/arm/cpu/armv7/start.o
 .rel.text.put_ext4
                0x8087eebc       0x20 arch/arm/cpu/armv7/start.o
 .rel.text.ext4fs_set_block_bmap
                0x8087eedc        0x8 arch/arm/cpu/armv7/start.o
 .rel.text.ext4fs_reset_block_bmap
                0x8087eee4        0x8 arch/arm/cpu/armv7/start.o
 .rel.text.ext4fs_set_inode_bmap
                0x8087eeec        0x8 arch/arm/cpu/armv7/start.o
 .rel.text.ext4fs_reset_inode_bmap
                0x8087eef4        0x8 arch/arm/cpu/armv7/start.o
 .rel.text.ext4fs_get_new_blk_no
                0x8087eefc       0x10 arch/arm/cpu/armv7/start.o
 .rel.text.ext4fs_get_new_inode_no
                0x8087ef0c       0x10 arch/arm/cpu/armv7/start.o
 .rel.text.ext4fs_allocate_blocks
                0x8087ef1c       0x30 arch/arm/cpu/armv7/start.o
 .rel.text.ext4fs_iget
                0x8087ef4c        0x8 arch/arm/cpu/armv7/start.o
 .rel.text.read_allocated_block
                0x8087ef54       0xd8 arch/arm/cpu/armv7/start.o
 .rel.text.ext4fs_update_parent_dentry
                0x8087f02c       0x48 arch/arm/cpu/armv7/start.o
 .rel.text.search_dir
                0x8087f074       0x10 arch/arm/cpu/armv7/start.o
 .rel.text.ext4fs_get_parent_inode_num
                0x8087f084       0x28 arch/arm/cpu/armv7/start.o
 .rel.text.ext4fs_filename_unlink
                0x8087f0ac       0x20 arch/arm/cpu/armv7/start.o
 .rel.text.ext4fs_reinit_global
                0x8087f0cc       0x48 arch/arm/cpu/armv7/start.o
 .rel.text.ext4fs_close
                0x8087f114       0x10 arch/arm/cpu/armv7/start.o
 .rel.text.ext4fs_iterate_dir
                0x8087f124       0x30 arch/arm/cpu/armv7/start.o
 .rel.text.ext4fs_find_file1
                0x8087f154       0x10 arch/arm/cpu/armv7/start.o
 .rel.text.ext4fs_find_file
                0x8087f164        0x8 arch/arm/cpu/armv7/start.o
 .rel.text.ext4fs_open
                0x8087f16c       0x10 arch/arm/cpu/armv7/start.o
 .rel.text.ext4fs_mount
                0x8087f17c       0x10 arch/arm/cpu/armv7/start.o
 .rel.text.ext4fs_set_blk_dev
                0x8087f18c       0x10 arch/arm/cpu/armv7/start.o
 .rel.text.ext4fs_devread
                0x8087f19c        0x8 arch/arm/cpu/armv7/start.o
 .rel.text.ext4fs_update
                0x8087f1a4       0x10 arch/arm/cpu/armv7/start.o
 .rel.text.ext4fs_get_bgdtable
                0x8087f1b4        0x8 arch/arm/cpu/armv7/start.o
 .rel.text.ext4fs_deinit
                0x8087f1bc        0x8 arch/arm/cpu/armv7/start.o
 .rel.text.ext4fs_init
                0x8087f1c4       0x10 arch/arm/cpu/armv7/start.o
 .rel.text.ext4fs_write
                0x8087f1d4       0x90 arch/arm/cpu/armv7/start.o
 .rel.text.ext4_write_file
                0x8087f264       0x10 arch/arm/cpu/armv7/start.o
 .rel.text.ext4fs_dump_metadata
                0x8087f274        0x8 arch/arm/cpu/armv7/start.o
 .rel.text.ext4fs_free_journal
                0x8087f27c       0x28 arch/arm/cpu/armv7/start.o
 .rel.text.ext4fs_log_gdt
                0x8087f2a4       0x10 arch/arm/cpu/armv7/start.o
 .rel.text.ext4fs_log_journal
                0x8087f2b4       0x20 arch/arm/cpu/armv7/start.o
 .rel.text.ext4fs_put_metadata
                0x8087f2d4       0x20 arch/arm/cpu/armv7/start.o
 .rel.text.ext4fs_push_revoke_blk
                0x8087f2f4       0x28 arch/arm/cpu/armv7/start.o
 .rel.text.ext4fs_free_revoke_blks
                0x8087f31c       0x18 arch/arm/cpu/armv7/start.o
 .rel.text.check_blknr_for_revoke
                0x8087f334        0x8 arch/arm/cpu/armv7/start.o
 .rel.text.recover_transaction
                0x8087f33c       0x10 arch/arm/cpu/armv7/start.o
 .rel.text.print_jrnl_status
                0x8087f34c       0x10 arch/arm/cpu/armv7/start.o
 .rel.text.ext4fs_check_journal_state
                0x8087f35c       0x18 arch/arm/cpu/armv7/start.o
 .rel.text.ext4fs_init_journal
                0x8087f374       0x38 arch/arm/cpu/armv7/start.o
 .rel.text.ext4fs_update_journal
                0x8087f3ac       0x20 arch/arm/cpu/armv7/start.o
 .rel.text.ext2fs_crc16
                0x8087f3cc        0x8 arch/arm/cpu/armv7/start.o
 .rel.text.downcase
                0x8087f3d4        0x8 arch/arm/cpu/armv7/start.o
 .rel.text.disk_read
                0x8087f3dc       0x10 arch/arm/cpu/armv7/start.o
 .rel.text.disk_write
                0x8087f3ec       0x20 arch/arm/cpu/armv7/start.o
 .rel.text.get_fatent
                0x8087f40c        0x8 arch/arm/cpu/armv7/start.o
 .rel.text.read_bootsectandvi
                0x8087f414       0x20 arch/arm/cpu/armv7/start.o
 .rel.text.fat_itr_root
                0x8087f434       0x20 arch/arm/cpu/armv7/start.o
 .rel.text.normalize_longname
                0x8087f454        0x8 arch/arm/cpu/armv7/start.o
 .rel.text.set_name
                0x8087f45c        0x8 arch/arm/cpu/armv7/start.o
 .rel.text.fat_itr_resolve
                0x8087f464       0x10 arch/arm/cpu/armv7/start.o
 .rel.text.split_filename.isra.0
                0x8087f474        0x8 arch/arm/cpu/armv7/start.o
 .rel.text.flush_dir_table
                0x8087f47c        0x8 arch/arm/cpu/armv7/start.o
 .rel.text.set_contents
                0x8087f484       0x28 arch/arm/cpu/armv7/start.o
 .rel.text.fat_set_blk_dev
                0x8087f4ac       0x28 arch/arm/cpu/armv7/start.o
 .rel.text.file_fat_detectfs
                0x8087f4d4       0x70 arch/arm/cpu/armv7/start.o
 .rel.text.file_fat_read_at
                0x8087f544       0x10 arch/arm/cpu/armv7/start.o
 .rel.text.fat_read_file
                0x8087f554        0x8 arch/arm/cpu/armv7/start.o
 .rel.text.file_fat_write_at
                0x8087f55c       0x48 arch/arm/cpu/armv7/start.o
 .rel.text.fat_unlink
                0x8087f5a4       0x50 arch/arm/cpu/armv7/start.o
 .rel.text.fat_mkdir
                0x8087f5f4       0x68 arch/arm/cpu/armv7/start.o
 .rel.text.fs_devread
                0x8087f65c       0x30 arch/arm/cpu/armv7/start.o
 .rel.data.fstypes
                0x8087f68c      0x190 arch/arm/cpu/armv7/start.o
 .rel.text.efi_uc_destroy
                0x8087f81c        0x8 arch/arm/cpu/armv7/start.o
 .rel.text.efi_uc_init
                0x8087f824        0x8 arch/arm/cpu/armv7/start.o
 .rel.text.check_node_type
                0x8087f82c       0x10 arch/arm/cpu/armv7/start.o
 .rel.text.efi_uc_start
                0x8087f83c        0x8 arch/arm/cpu/armv7/start.o
 .rel.text.efi_uc_supported
                0x8087f844        0x8 arch/arm/cpu/armv7/start.o
 .rel.text.disconnect_child
                0x8087f84c        0x8 arch/arm/cpu/armv7/start.o
 .rel.text.efi_uc_stop
                0x8087f854       0x18 arch/arm/cpu/armv7/start.o
 .rel.text.efi_driver_init
                0x8087f86c       0x40 arch/arm/cpu/armv7/start.o
 .rel.text.get_var.constprop.0
                0x8087f8ac       0x10 arch/arm/cpu/armv7/start.o
 .rel.text.efi_bootmgr_load
                0x8087f8bc       0x38 arch/arm/cpu/armv7/start.o
 .rel.text.efi_is_event
                0x8087f8f4        0x8 arch/arm/cpu/armv7/start.o
 .rel.text.__efi_entry_check
                0x8087f8fc       0x18 arch/arm/cpu/armv7/start.o
 .rel.text.__efi_exit_check
                0x8087f914       0x10 arch/arm/cpu/armv7/start.o
 .rel.text.efi_queue_event
                0x8087f924        0x8 arch/arm/cpu/armv7/start.o
 .rel.text.efi_start_image
                0x8087f92c       0x18 arch/arm/cpu/armv7/start.o
 .rel.text.efi_get_next_monotonic_count
                0x8087f944        0x8 arch/arm/cpu/armv7/start.o
 .rel.text.efi_raise_tpl
                0x8087f94c        0x8 arch/arm/cpu/armv7/start.o
 .rel.text.efi_save_gd
                0x8087f954        0x8 arch/arm/cpu/armv7/start.o
 .rel.text.efi_restore_gd
                0x8087f95c        0x8 arch/arm/cpu/armv7/start.o
 .rel.text.efi_exit
                0x8087f964        0x8 arch/arm/cpu/armv7/start.o
 .rel.text.efi_signal_event
                0x8087f96c        0x8 arch/arm/cpu/armv7/start.o
 .rel.text.efi_exit_boot_services
                0x8087f974       0x30 arch/arm/cpu/armv7/start.o
 .rel.text.efi_add_handle
                0x8087f9a4        0x8 arch/arm/cpu/armv7/start.o
 .rel.text.efi_create_event
                0x8087f9ac        0x8 arch/arm/cpu/armv7/start.o
 .rel.text.efi_timer_check
                0x8087f9b4        0x8 arch/arm/cpu/armv7/start.o
 .rel.text.efi_wait_for_event
                0x8087f9bc        0x8 arch/arm/cpu/armv7/start.o
 .rel.text.efi_restore_tpl
                0x8087f9c4        0x8 arch/arm/cpu/armv7/start.o
 .rel.text.efi_search_obj
                0x8087f9cc        0x8 arch/arm/cpu/armv7/start.o
 .rel.text.efi_locate_protocol
                0x8087f9d4        0x8 arch/arm/cpu/armv7/start.o
 .rel.text.efi_locate_handle
                0x8087f9dc        0x8 arch/arm/cpu/armv7/start.o
 .rel.text.efi_locate_device_path
                0x8087f9e4        0x8 arch/arm/cpu/armv7/start.o
 .rel.text.efi_disconnect_controller
                0x8087f9ec        0x8 arch/arm/cpu/armv7/start.o
 .rel.text.efi_bind_controller
                0x8087f9f4        0x8 arch/arm/cpu/armv7/start.o
 .rel.text.efi_connect_controller
                0x8087f9fc        0x8 arch/arm/cpu/armv7/start.o
 .rel.text.efi_add_protocol
                0x8087fa04        0x8 arch/arm/cpu/armv7/start.o
 .rel.text.efi_install_configuration_table
                0x8087fa0c       0x10 arch/arm/cpu/armv7/start.o
 .rel.text.efi_setup_loaded_image
                0x8087fa1c       0x20 arch/arm/cpu/armv7/start.o
 .rel.text.efi_load_image_from_path
                0x8087fa3c       0x10 arch/arm/cpu/armv7/start.o
 .rel.text.efi_load_image
                0x8087fa4c        0x8 arch/arm/cpu/armv7/start.o
 .rel.text.efi_initialize_system_table
                0x8087fa54       0x18 arch/arm/cpu/armv7/start.o
 .rel.text.efi_cout_enable_cursor
                0x8087fa6c        0x8 arch/arm/cpu/armv7/start.o
 .rel.text.efi_cout_set_cursor_position
                0x8087fa74       0x18 arch/arm/cpu/armv7/start.o
 .rel.text.efi_cout_clear_screen
                0x8087fa8c       0x10 arch/arm/cpu/armv7/start.o
 .rel.text.efi_cout_set_attribute
                0x8087fa9c       0x18 arch/arm/cpu/armv7/start.o
 .rel.text.efi_cout_set_mode
                0x8087fab4        0x8 arch/arm/cpu/armv7/start.o
 .rel.text.efi_cout_reset
                0x8087fabc        0x8 arch/arm/cpu/armv7/start.o
 .rel.text.efi_cout_output_string
                0x8087fac4       0x10 arch/arm/cpu/armv7/start.o
 .rel.text.efi_cin_unregister_key_notify
                0x8087fad4        0x8 arch/arm/cpu/armv7/start.o
 .rel.text.efi_cin_reset_ex
                0x8087fadc        0x8 arch/arm/cpu/armv7/start.o
 .rel.text.efi_cin_register_key_notify
                0x8087fae4        0x8 arch/arm/cpu/armv7/start.o
 .rel.text.efi_cout_query_mode
                0x8087faec       0x10 arch/arm/cpu/armv7/start.o
 .rel.text.analyze_modifiers.constprop.0
                0x8087fafc        0x8 arch/arm/cpu/armv7/start.o
 .rel.text.efi_cin_check
                0x8087fb04      0x1a0 arch/arm/cpu/armv7/start.o
 .rel.text.efi_cin_read_key_stroke
                0x8087fca4       0x18 arch/arm/cpu/armv7/start.o
 .rel.text.efi_cin_read_key_stroke_ex
                0x8087fcbc       0x18 arch/arm/cpu/armv7/start.o
 .rel.text.efi_console_register
                0x8087fcd4       0xa0 arch/arm/cpu/armv7/start.o
 .rel.text.find_obj
                0x8087fd74       0x10 arch/arm/cpu/armv7/start.o
 .rel.text.efi_dp_append
                0x8087fd84        0x8 arch/arm/cpu/armv7/start.o
 .rel.text.efi_dp_append_node
                0x8087fd8c        0x8 arch/arm/cpu/armv7/start.o
 .rel.text.efi_dp_append_instance
                0x8087fd94        0x8 arch/arm/cpu/armv7/start.o
 .rel.text.efi_dp_from_part
                0x8087fd9c       0x10 arch/arm/cpu/armv7/start.o
 .rel.text.efi_dp_from_file
                0x8087fdac       0x10 arch/arm/cpu/armv7/start.o
 .rel.text.efi_dp_from_eth
                0x8087fdbc       0x18 arch/arm/cpu/armv7/start.o
 .rel.text.efi_dp_from_mem
                0x8087fdd4        0x8 arch/arm/cpu/armv7/start.o
 .rel.text.efi_dp_from_name
                0x8087fddc       0x10 arch/arm/cpu/armv7/start.o
 .rel.text.dp_unknown.isra.0
                0x8087fdec        0x8 arch/arm/cpu/armv7/start.o
 .rel.text.efi_convert_single_device_node_to_text
                0x8087fdf4       0x90 arch/arm/cpu/armv7/start.o
 .rel.text.efi_file_getinfo
                0x8087fe84       0x10 arch/arm/cpu/armv7/start.o
 .rel.text.file_open
                0x8087fe94       0x28 arch/arm/cpu/armv7/start.o
 .rel.text.efi_file_from_path
                0x8087febc        0x8 arch/arm/cpu/armv7/start.o
 .rel.text.efi_simple_file_system
                0x8087fec4        0x8 arch/arm/cpu/armv7/start.o
 .rel.text.efi_set_code_and_data_type
                0x8087fecc       0x10 arch/arm/cpu/armv7/start.o
 .rel.text.efi_print_image_infos
                0x8087fedc       0x38 arch/arm/cpu/armv7/start.o
 .rel.text.efi_load_pe
                0x8087ff14       0x40 arch/arm/cpu/armv7/start.o
 .rel.text.efi_add_memory_map
                0x8087ff54       0x18 arch/arm/cpu/armv7/start.o
 .rel.text.efi_allocate_pages
                0x8087ff6c        0x8 arch/arm/cpu/armv7/start.o
 .rel.text.efi_get_memory_map
                0x8087ff74       0x10 arch/arm/cpu/armv7/start.o
 .rel.text.efi_memory_init
                0x8087ff84       0x10 arch/arm/cpu/armv7/start.o
 .rel.text.efi_root_node_register
                0x8087ff94       0x40 arch/arm/cpu/armv7/start.o
 .rel.text.efi_reset_system_boottime
                0x8087ffd4       0x10 arch/arm/cpu/armv7/start.o
 .rel.text.efi_runtime_relocate
                0x8087ffe4       0x38 arch/arm/cpu/armv7/start.o
 .rel.text.efi_set_virtual_address_map
                0x8088001c       0x20 arch/arm/cpu/armv7/start.o
 .rel.text.efi_init_obj_list
                0x8088003c        0x8 arch/arm/cpu/armv7/start.o
 .rel.text.efi_str_to_fat
                0x80880044       0x10 arch/arm/cpu/armv7/start.o
 .rel.text.efi_fat_to_str
                0x80880054        0x8 arch/arm/cpu/armv7/start.o
 .rel.text.efi_to_native
                0x8088005c       0x10 arch/arm/cpu/armv7/start.o
 .rel.text.parse_attr
                0x8088006c       0x20 arch/arm/cpu/armv7/start.o
 .rel.text.efi_get_variable
                0x8088008c       0x18 arch/arm/cpu/armv7/start.o
 .rel.text.efi_get_next_variable_name
                0x808800a4       0x18 arch/arm/cpu/armv7/start.o
 .rel.text.efi_set_variable
                0x808800bc       0x40 arch/arm/cpu/armv7/start.o
 .rel.text.efi_watchdog_timer_notify
                0x808800fc       0x10 arch/arm/cpu/armv7/start.o
 .rel.text.efi_set_watchdog
                0x8088010c        0x8 arch/arm/cpu/armv7/start.o
 .rel.text.efi_watchdog_register
                0x80880114       0x20 arch/arm/cpu/armv7/start.o
 .rel.text.efi_disk_add_dev.part.0
                0x80880134       0x38 arch/arm/cpu/armv7/start.o
 .rel.text.efi_fs_from_path
                0x8088016c        0x8 arch/arm/cpu/armv7/start.o
 .rel.text.efi_disk_create_partitions
                0x80880174       0x18 arch/arm/cpu/armv7/start.o
 .rel.text.efi_disk_register
                0x8088018c       0x28 arch/arm/cpu/armv7/start.o
 .rel.text.efi_net_push
                0x808801b4       0x10 arch/arm/cpu/armv7/start.o
 .rel.text.efi_network_timer_notify
                0x808801c4       0x18 arch/arm/cpu/armv7/start.o
 .rel.text.efi_net_get_status
                0x808801dc       0x10 arch/arm/cpu/armv7/start.o
 .rel.text.efi_net_receive
                0x808801ec       0x18 arch/arm/cpu/armv7/start.o
 .rel.text.efi_net_transmit
                0x80880204       0x10 arch/arm/cpu/armv7/start.o
 .rel.text.efi_net_set_dhcp_ack
                0x80880214        0x8 arch/arm/cpu/armv7/start.o
 .rel.text.efi_net_register
                0x8088021c       0xd0 arch/arm/cpu/armv7/start.o
 .rel.text.efi_smbios_register
                0x808802ec        0x8 arch/arm/cpu/armv7/start.o
 .rel.text.fdt_strerror
                0x808802f4       0x20 arch/arm/cpu/armv7/start.o
 .rel.text.fdt_address_cells
                0x80880314        0x8 arch/arm/cpu/armv7/start.o
 .rel.text.fdt_size_cells
                0x8088031c        0x8 arch/arm/cpu/armv7/start.o
 .rel.text.overlay_adjust_node_phandles
                0x80880324       0x10 arch/arm/cpu/armv7/start.o
 .rel.text.overlay_get_target
                0x80880334       0x10 arch/arm/cpu/armv7/start.o
 .rel.text.fdt_overlay_apply
                0x80880344       0x38 arch/arm/cpu/armv7/start.o
 .rel.text.fdt_get_phandle
                0x8088037c       0x10 arch/arm/cpu/armv7/start.o
 .rel.text.fdt_get_alias_namelen
                0x8088038c        0x8 arch/arm/cpu/armv7/start.o
 .rel.text.console_read_unicode
                0x80880394        0x8 arch/arm/cpu/armv7/start.o
 .rel.text.utf8_get
                0x8088039c        0x8 arch/arm/cpu/armv7/start.o
 .rel.text.utf_to_lower
                0x808803a4        0x8 arch/arm/cpu/armv7/start.o
 .rel.text.utf_to_upper
                0x808803ac        0x8 arch/arm/cpu/armv7/start.o
 .rel.text.crc16_ccitt
                0x808803b4        0x8 arch/arm/cpu/armv7/start.o
 .rel.text.smbios_write_type3
                0x808803bc        0x8 arch/arm/cpu/armv7/start.o
 .rel.text.smbios_write_type2
                0x808803c4       0x10 arch/arm/cpu/armv7/start.o
 .rel.text.smbios_write_type0
                0x808803d4       0x18 arch/arm/cpu/armv7/start.o
 .rel.text.smbios_write_type1
                0x808803ec       0x18 arch/arm/cpu/armv7/start.o
 .rel.text.smbios_write_type4
                0x80880404        0x8 arch/arm/cpu/armv7/start.o
 .rel.text.write_smbios_table
                0x8088040c       0x18 arch/arm/cpu/armv7/start.o
 .rel.text.write_sparse_image
                0x80880424       0x98 arch/arm/cpu/armv7/start.o
 .rel.text.list_sort
                0x808804bc        0x8 arch/arm/cpu/armv7/start.o
 .rel.text.sha1_finish
                0x808804c4        0x8 arch/arm/cpu/armv7/start.o
 .rel.text.sha256_finish
                0x808804cc        0x8 arch/arm/cpu/armv7/start.o
 .rel.text.inflate_fast
                0x808804d4       0x18 arch/arm/cpu/armv7/start.o
 .rel.text.inflate_table
                0x808804ec       0x20 arch/arm/cpu/armv7/start.o
 .rel.text.inflateInit2_
                0x8088050c       0x10 arch/arm/cpu/armv7/start.o
 .rel.text.inflate
                0x8088051c       0xa0 arch/arm/cpu/armv7/start.o
 .rel.text.gzip_parse_header
                0x808805bc       0x10 arch/arm/cpu/armv7/start.o
 .rel.text.zunzip
                0x808805cc       0x28 arch/arm/cpu/armv7/start.o
 .rel.text.lzop_is_valid_header
                0x808805f4        0x8 arch/arm/cpu/armv7/start.o
 .rel.text.fdtdec_get_is_enabled
                0x808805fc       0x10 arch/arm/cpu/armv7/start.o
 .rel.text.fdtdec_get_alias_seq
                0x8088060c        0x8 arch/arm/cpu/armv7/start.o
 .rel.text.fdtdec_get_alias_highest_id
                0x80880614        0x8 arch/arm/cpu/armv7/start.o
 .rel.text.fdtdec_get_chosen_prop
                0x8088061c        0x8 arch/arm/cpu/armv7/start.o
 .rel.text.fdtdec_prepare_fdt
                0x80880624        0x8 arch/arm/cpu/armv7/start.o
 .rel.text.fdtdec_get_config_int
                0x8088062c        0x8 arch/arm/cpu/armv7/start.o
 .rel.text.fdtdec_get_config_string
                0x80880634        0x8 arch/arm/cpu/armv7/start.o
 .rel.text.fdtdec_setup
                0x8088063c       0x10 arch/arm/cpu/armv7/start.o
 .rel.text.match_string
                0x8088064c        0x8 arch/arm/cpu/armv7/start.o
 .rel.text.match_entry
                0x80880654        0x8 arch/arm/cpu/armv7/start.o
 .rel.text.hcreate_r
                0x8088065c        0x8 arch/arm/cpu/armv7/start.o
 .rel.text.hdestroy_r
                0x80880664        0x8 arch/arm/cpu/armv7/start.o
 .rel.text.hmatch_r
                0x8088066c        0x8 arch/arm/cpu/armv7/start.o
 .rel.text.hsearch_r
                0x80880674        0x8 arch/arm/cpu/armv7/start.o
 .rel.text.hdelete_r
                0x8088067c        0x8 arch/arm/cpu/armv7/start.o
 .rel.text.hexport_r
                0x80880684       0x18 arch/arm/cpu/armv7/start.o
 .rel.text.himport_r
                0x8088069c       0x20 arch/arm/cpu/armv7/start.o
 .rel.text.display_options_get_banner_priv
                0x808806bc       0x28 arch/arm/cpu/armv7/start.o
 .rel.text.display_options
                0x808806e4        0x8 arch/arm/cpu/armv7/start.o
 .rel.text.print_size
                0x808806ec       0x28 arch/arm/cpu/armv7/start.o
 .rel.text.print_buffer
                0x80880714       0x28 arch/arm/cpu/armv7/start.o
 .rel.text.hang
                0x8088073c        0x8 arch/arm/cpu/armv7/start.o
 .rel.text.skip_spaces
                0x80880744        0x8 arch/arm/cpu/armv7/start.o
 .rel.text.strim
                0x8088074c        0x8 arch/arm/cpu/armv7/start.o
 .rel.text.lmb_alloc_base
                0x80880754        0x8 arch/arm/cpu/armv7/start.o
 .rel.text.emit
                0x8088075c        0x8 arch/arm/cpu/armv7/start.o
 .rel.text.store_char_in_data
                0x80880764        0x8 arch/arm/cpu/armv7/start.o
 .rel.text.match
                0x8088076c       0x10 arch/arm/cpu/armv7/start.o
 .rel.text.fixup_branch.part.0
                0x8088077c        0x8 arch/arm/cpu/armv7/start.o
 .rel.text.quantifier
                0x80880784        0x8 arch/arm/cpu/armv7/start.o
 .rel.text.compile
                0x8088078c       0x80 arch/arm/cpu/armv7/start.o
 .rel.text.strncasecmp
                0x8088080c        0x8 arch/arm/cpu/armv7/start.o
 .rel.text.strtok
                0x80880814        0x8 arch/arm/cpu/armv7/start.o
 .rel.text.hex_dump_to_buffer
                0x8088081c       0x38 arch/arm/cpu/armv7/start.o
 .rel.text.print_hex_dump
                0x80880854       0x18 arch/arm/cpu/armv7/start.o
 .rel.text.uuid_str_valid
                0x8088086c        0x8 arch/arm/cpu/armv7/start.o
 .rel.text.uuid_bin_to_str
                0x80880874       0x18 arch/arm/cpu/armv7/start.o
 .rel.text.rand
                0x8088088c        0x8 arch/arm/cpu/armv7/start.o
 .rel.text.number
                0x80880894        0x8 arch/arm/cpu/armv7/start.o
 .rel.text.string16
                0x8088089c        0x8 arch/arm/cpu/armv7/start.o
 .rel.text.string
                0x808808a4        0x8 arch/arm/cpu/armv7/start.o
 .rel.text.vsnprintf_internal
                0x808808ac       0xc8 arch/arm/cpu/armv7/start.o
 .rel.text.simple_itoa
                0x80880974        0x8 arch/arm/cpu/armv7/start.o
 .rel.text._parse_integer_fixup_radix
                0x8088097c        0x8 arch/arm/cpu/armv7/start.o
 .rel.text.simple_strtoul
                0x80880984        0x8 arch/arm/cpu/armv7/start.o
 .rel.text.ustrtoul
                0x8088098c        0x8 arch/arm/cpu/armv7/start.o
 .rel.text.simple_strtoull
                0x80880994        0x8 arch/arm/cpu/armv7/start.o
 .rel.text.ustrtoull
                0x8088099c        0x8 arch/arm/cpu/armv7/start.o
 .rel.text.trailing_strtoln
                0x808809a4        0x8 arch/arm/cpu/armv7/start.o
 .rel.rodata.efi_device_path_to_text
                0x808809ac       0x10 arch/arm/cpu/armv7/start.o
 .rel.rodata.efi_device_path_utilities
                0x808809bc       0x40 arch/arm/cpu/armv7/start.o
 .rel.rodata.efi_file_handle_protocol
                0x808809fc       0x50 arch/arm/cpu/armv7/start.o
 .rel.rodata.efi_runtime_detach_list
                0x80880a4c       0x80 arch/arm/cpu/armv7/start.o
 .rel.rodata.efi_unicode_collation_protocol
                0x80880acc       0x38 arch/arm/cpu/armv7/start.o
 .rel.rodata.fdt_errtable
                0x80880b04       0x88 arch/arm/cpu/armv7/start.o
 .rel.rodata.smbios_write_funcs
                0x80880b8c       0x38 arch/arm/cpu/armv7/start.o
 .rel.u_boot_list_2_uclass_2_efi
                0x80880bc4       0x18 arch/arm/cpu/armv7/start.o
 .rel.data.efi_boot_services
                0x80880bdc      0x158 arch/arm/cpu/armv7/start.o
 .rel.data.efi_events
                0x80880d34       0x10 arch/arm/cpu/armv7/start.o
 .rel.data.efi_obj_list
                0x80880d44       0x10 arch/arm/cpu/armv7/start.o
 .rel.data.efi_con_in
                0x80880d54       0x10 arch/arm/cpu/armv7/start.o
 .rel.data.efi_con_in_ex
                0x80880d64       0x28 arch/arm/cpu/armv7/start.o
 .rel.data.cin_notify_functions
                0x80880d8c       0x10 arch/arm/cpu/armv7/start.o
 .rel.data.efi_con_out
                0x80880d9c       0x50 arch/arm/cpu/armv7/start.o
 .rel.data.efi_mem
                0x80880dec       0x10 arch/arm/cpu/armv7/start.o
 .rel.data.efi_runtime_mmio
                0x80880dfc       0x10 arch/arm/cpu/armv7/start.o
 .rel.text.arp_init
                0x80880e0c       0x30 arch/arm/cpu/armv7/start.o
 .rel.text.arp_raw_request
                0x80880e3c       0x18 arch/arm/cpu/armv7/start.o
 .rel.text.arp_request
                0x80880e54       0x38 arch/arm/cpu/armv7/start.o
 .rel.text.arp_timeout_check
                0x80880e8c       0x28 arch/arm/cpu/armv7/start.o
 .rel.text.arp_receive
                0x80880eb4       0x40 arch/arm/cpu/armv7/start.o
 .rel.text.arp_is_waiting
                0x80880ef4        0x8 arch/arm/cpu/armv7/start.o
 .rel.text.dhcp_extended
                0x80880efc       0x30 arch/arm/cpu/armv7/start.o
 .rel.text.dhcp_process_options
                0x80880f2c      0x190 arch/arm/cpu/armv7/start.o
 .rel.text.dhcp_packet_process_options
                0x808810bc        0x8 arch/arm/cpu/armv7/start.o
 .rel.text.dhcp_handler
                0x808810c4       0x98 arch/arm/cpu/armv7/start.o
 .rel.text.bootp_reset
                0x8088115c       0x20 arch/arm/cpu/armv7/start.o
 .rel.text.bootp_request
                0x8088117c       0x78 arch/arm/cpu/armv7/start.o
 .rel.text.bootp_timeout_handler
                0x808811f4       0x28 arch/arm/cpu/armv7/start.o
 .rel.text.eth_set_current_to_next
                0x8088121c        0x8 arch/arm/cpu/armv7/start.o
 .rel.text.eth_set_dev
                0x80881224        0x8 arch/arm/cpu/armv7/start.o
 .rel.text.eth_get_dev_by_name
                0x8088122c       0x28 arch/arm/cpu/armv7/start.o
 .rel.text.eth_get_dev_by_index
                0x80881254        0x8 arch/arm/cpu/armv7/start.o
 .rel.text.eth_get_dev_index
                0x8088125c        0x8 arch/arm/cpu/armv7/start.o
 .rel.text.eth_write_hwaddr
                0x80881264       0x30 arch/arm/cpu/armv7/start.o
 .rel.text.on_ethaddr
                0x80881294       0x10 arch/arm/cpu/armv7/start.o
 .rel.text.eth_register
                0x808812a4       0x18 arch/arm/cpu/armv7/start.o
 .rel.text.eth_unregister
                0x808812bc       0x10 arch/arm/cpu/armv7/start.o
 .rel.text.eth_initialize
                0x808812cc       0x78 arch/arm/cpu/armv7/start.o
 .rel.text.eth_init
                0x80881344       0x10 arch/arm/cpu/armv7/start.o
 .rel.text.eth_halt
                0x80881354        0x8 arch/arm/cpu/armv7/start.o
 .rel.text.eth_send
                0x8088135c        0x8 arch/arm/cpu/armv7/start.o
 .rel.text.eth_rx
                0x80881364        0x8 arch/arm/cpu/armv7/start.o
 .rel.text.eth_env_get_enetaddr_by_index
                0x8088136c       0x10 arch/arm/cpu/armv7/start.o
 .rel.text.eth_env_set_enetaddr_by_index
                0x8088137c       0x10 arch/arm/cpu/armv7/start.o
 .rel.text.eth_mac_skip
                0x8088138c       0x10 arch/arm/cpu/armv7/start.o
 .rel.text.eth_get_name
                0x8088139c       0x10 arch/arm/cpu/armv7/start.o
 .rel.text.eth_current_changed
                0x808813ac       0x20 arch/arm/cpu/armv7/start.o
 .rel.text.eth_try_another
                0x808813cc       0x28 arch/arm/cpu/armv7/start.o
 .rel.text.eth_set_current
                0x808813f4       0x20 arch/arm/cpu/armv7/start.o
 .rel.text.net_clear_handlers
                0x80881414       0x20 arch/arm/cpu/armv7/start.o
 .rel.text.start_again_timeout_handler
                0x80881434        0x8 arch/arm/cpu/armv7/start.o
 .rel.text.on_ipaddr
                0x8088143c        0x8 arch/arm/cpu/armv7/start.o
 .rel.text.on_gatewayip
                0x80881444        0x8 arch/arm/cpu/armv7/start.o
 .rel.text.on_netmask
                0x8088144c        0x8 arch/arm/cpu/armv7/start.o
 .rel.text.on_serverip
                0x80881454        0x8 arch/arm/cpu/armv7/start.o
 .rel.text.net_init_loop
                0x8088145c       0x10 arch/arm/cpu/armv7/start.o
 .rel.text.net_init
                0x8088146c       0x20 arch/arm/cpu/armv7/start.o
 .rel.text.net_start_again
                0x8088148c       0x78 arch/arm/cpu/armv7/start.o
 .rel.text.net_set_udp_handler
                0x80881504       0x10 arch/arm/cpu/armv7/start.o
 .rel.text.net_get_arp_handler
                0x80881514        0x8 arch/arm/cpu/armv7/start.o
 .rel.text.net_set_timeout_handler
                0x8088151c       0x18 arch/arm/cpu/armv7/start.o
 .rel.text.net_get_async_tx_pkt_buf
                0x80881534       0x10 arch/arm/cpu/armv7/start.o
 .rel.text.net_process_received_packet
                0x80881544       0x40 arch/arm/cpu/armv7/start.o
 .rel.text.net_eth_hdr_size
                0x80881584        0x8 arch/arm/cpu/armv7/start.o
 .rel.text.net_set_ether
                0x8088158c       0x10 arch/arm/cpu/armv7/start.o
 .rel.text.net_update_ether
                0x8088159c        0x8 arch/arm/cpu/armv7/start.o
 .rel.text.net_set_ip_header
                0x808815a4        0x8 arch/arm/cpu/armv7/start.o
 .rel.text.net_set_udp_header
                0x808815ac        0x8 arch/arm/cpu/armv7/start.o
 .rel.text.net_send_ip_packet
                0x808815b4       0x40 arch/arm/cpu/armv7/start.o
 .rel.text.is_serverip_in_cmd
                0x808815f4        0x8 arch/arm/cpu/armv7/start.o
 .rel.text.net_check_prereq
                0x808815fc       0x58 arch/arm/cpu/armv7/start.o
 .rel.text.net_auto_load
                0x80881654       0x28 arch/arm/cpu/armv7/start.o
 .rel.text.net_loop
                0x8088167c       0x80 arch/arm/cpu/armv7/start.o
 .rel.text.net_parse_bootfile
                0x808816fc        0x8 arch/arm/cpu/armv7/start.o
 .rel.text.ip_to_string
                0x80881704        0x8 arch/arm/cpu/armv7/start.o
 .rel.text.on_nvlan
                0x8088170c        0x8 arch/arm/cpu/armv7/start.o
 .rel.text.on_vlan
                0x80881714        0x8 arch/arm/cpu/armv7/start.o
 .rel.text.rpc_lookup_reply
                0x8088171c       0x18 arch/arm/cpu/armv7/start.o
 .rel.text.nfs_mount_reply
                0x80881734       0x18 arch/arm/cpu/armv7/start.o
 .rel.text.nfs_umountall_reply
                0x8088174c       0x18 arch/arm/cpu/armv7/start.o
 .rel.text.nfs_lookup_reply
                0x80881764       0x30 arch/arm/cpu/armv7/start.o
 .rel.text.nfs_readlink_reply
                0x80881794       0x20 arch/arm/cpu/armv7/start.o
 .rel.text.rpc_req
                0x808817b4       0x40 arch/arm/cpu/armv7/start.o
 .rel.text.nfs_read_reply.constprop.0
                0x808817f4       0x30 arch/arm/cpu/armv7/start.o
 .rel.text.nfs_readlink_req
                0x80881824       0x18 arch/arm/cpu/armv7/start.o
 .rel.text.nfs_read_req
                0x8088183c       0x18 arch/arm/cpu/armv7/start.o
 .rel.text.nfs_lookup_req
                0x80881854       0x10 arch/arm/cpu/armv7/start.o
 .rel.text.nfs_umountall_req
                0x80881864       0x10 arch/arm/cpu/armv7/start.o
 .rel.text.nfs_send
                0x80881874       0x30 arch/arm/cpu/armv7/start.o
 .rel.text.nfs_handler
                0x808818a4       0x70 arch/arm/cpu/armv7/start.o
 .rel.text.nfs_timeout_handler
                0x80881914       0x20 arch/arm/cpu/armv7/start.o
 .rel.text.nfs_start
                0x80881934       0xd0 arch/arm/cpu/armv7/start.o
 .rel.text.ping_timeout_handler
                0x80881a04        0x8 arch/arm/cpu/armv7/start.o
 .rel.text.ping_start
                0x80881a0c       0x58 arch/arm/cpu/armv7/start.o
 .rel.text.ping_receive
                0x80881a64       0x18 arch/arm/cpu/armv7/start.o
 .rel.text.tftp_send
                0x80881a7c       0x80 arch/arm/cpu/armv7/start.o
 .rel.text.tftp_handler
                0x80881afc       0xe0 arch/arm/cpu/armv7/start.o
 .rel.text.tftp_timeout_handler
                0x80881bdc       0x40 arch/arm/cpu/armv7/start.o
 .rel.text.tftp_start
                0x80881c1c      0x168 arch/arm/cpu/armv7/start.o
 .rel.u_boot_list_2_env_clbk_2_ethaddr
                0x80881d84       0x10 arch/arm/cpu/armv7/start.o
 .rel.u_boot_list_2_env_clbk_2_vlan
                0x80881d94       0x10 arch/arm/cpu/armv7/start.o
 .rel.u_boot_list_2_env_clbk_2_nvlan
                0x80881da4       0x10 arch/arm/cpu/armv7/start.o
 .rel.u_boot_list_2_env_clbk_2_serverip
                0x80881db4       0x10 arch/arm/cpu/armv7/start.o
 .rel.u_boot_list_2_env_clbk_2_netmask
                0x80881dc4       0x10 arch/arm/cpu/armv7/start.o
 .rel.u_boot_list_2_env_clbk_2_gatewayip
                0x80881dd4       0x10 arch/arm/cpu/armv7/start.o
 .rel.u_boot_list_2_env_clbk_2_ipaddr
                0x80881de4       0x10 arch/arm/cpu/armv7/start.o

.rel_dyn_end    0x80881df4        0x0
 *(.__rel_dyn_end)
 .__rel_dyn_end
                0x80881df4        0x0 arch/arm/lib/built-in.o

.hash           0x80881df4       0x18
 *(.hash*)
 .hash          0x80881df4       0x18 arch/arm/cpu/armv7/start.o

.end            0x80881e0c        0x0
 *(.__end)
 .__end         0x80881e0c        0x0 arch/arm/lib/built-in.o
                0x80881e0c                        _image_binary_end = .
                0x80882000                        . = ALIGN (0x1000)

.mmutable
 *(.mmutable)

.bss_start      0x80874414        0x0
 *(.__bss_start)
 .__bss_start   0x80874414        0x0 arch/arm/lib/built-in.o
                0x80874414                __bss_start
                0x80874414                        __bss_base = .

.bss            0x80874414    0x3001c
 *(.bss*)
 .bss.params    0x80874414        0x4 arch/arm/lib/built-in.o
 .bss.bootefi_device_path
                0x80874418        0x4 cmd/built-in.o
 .bss.bootefi_image_path
                0x8087441c        0x4 cmd/built-in.o
 .bss.data.2    0x80874420      0x400 cmd/built-in.o
 .bss.working_fdt
                0x80874820        0x4 cmd/built-in.o
                0x80874820                working_fdt
 .bss.i2c_cur_bus
                0x80874824        0x4 cmd/built-in.o
 .bss.i2c_mm_last_alen
                0x80874828        0x4 cmd/built-in.o
 .bss.i2c_mm_last_addr
                0x8087482c        0x4 cmd/built-in.o
 .bss.i2c_mm_last_chip
                0x80874830        0x4 cmd/built-in.o
 .bss.i2c_dp_last_alen
                0x80874834        0x4 cmd/built-in.o
 .bss.i2c_dp_last_addr
                0x80874838        0x4 cmd/built-in.o
 .bss.i2c_dp_last_chip
                0x8087483c        0x4 cmd/built-in.o
 .bss.send_ptr  0x80874840        0x4 cmd/built-in.o
 .bss.send_parms
                0x80874844       0x14 cmd/built-in.o
 .bss.k_data_escape_saved
                0x80874858        0x4 cmd/built-in.o
 .bss.k_data_escape
                0x8087485c        0x4 cmd/built-in.o
 .bss.bin_start_address
                0x80874860        0x4 cmd/built-in.o
 .bss.os_data_addr_saved
                0x80874864        0x4 cmd/built-in.o
 .bss.os_data_addr
                0x80874868        0x4 cmd/built-in.o
 .bss.os_data_state_saved
                0x8087486c        0x4 cmd/built-in.o
 .bss.os_data_state
                0x80874870        0x4 cmd/built-in.o
 .bss.os_data_char
                0x80874874        0x4 cmd/built-in.o
 .bss.os_data_init
                0x80874878        0x4 cmd/built-in.o
 .bss.a_b       0x8087487c       0x18 cmd/built-in.o
 .bss.his_quote
                0x80874894        0x1 cmd/built-in.o
 .bss.his_pad_char
                0x80874895        0x1 cmd/built-in.o
 *fill*         0x80874896        0x2 
 .bss.his_pad_count
                0x80874898        0x4 cmd/built-in.o
 .bss.his_eol   0x8087489c        0x1 cmd/built-in.o
 *fill*         0x8087489d        0x3 
 .bss.base_address
                0x808748a0        0x4 cmd/built-in.o
 .bss.mm_last_size
                0x808748a4        0x4 cmd/built-in.o
 .bss.mm_last_addr
                0x808748a8        0x4 cmd/built-in.o
 .bss.dp_last_size
                0x808748ac        0x4 cmd/built-in.o
 .bss.dp_last_addr
                0x808748b0        0x4 cmd/built-in.o
 .bss.last_mask
                0x808748b4        0x4 cmd/built-in.o
 .bss.last_reg_hi
                0x808748b8        0x8 cmd/built-in.o
 .bss.last_reg_lo
                0x808748c0        0x8 cmd/built-in.o
 .bss.last_addr_hi
                0x808748c8        0x8 cmd/built-in.o
 .bss.last_addr_lo
                0x808748d0        0x8 cmd/built-in.o
 .bss.last_data
                0x808748d8        0x8 cmd/built-in.o
 .bss.last_op   0x808748e0        0x4 cmd/built-in.o
 .bss.last_devad_hi
                0x808748e4        0x4 cmd/built-in.o
 .bss.last_devad_lo
                0x808748e8        0x4 cmd/built-in.o
 .bss.fs_argv   0x808748ec       0x14 cmd/built-in.o
 .bss.do_getfile
                0x80874900        0x4 cmd/built-in.o
 .bss.is_pxe    0x80874904        0x1 cmd/built-in.o
 *fill*         0x80874905        0x3 
 .bss.flash     0x80874908        0x4 cmd/built-in.o
 .bss.din       0x8087490c       0x20 cmd/built-in.o
 .bss.dout      0x8087492c       0x20 cmd/built-in.o
 .bss.bitlen    0x8087494c        0x4 cmd/built-in.o
 .bss.mode      0x80874950        0x4 cmd/built-in.o
 .bss.cs        0x80874954        0x4 cmd/built-in.o
 .bss.bus       0x80874958        0x4 cmd/built-in.o
 .bss.the_command.0
                0x8087495c      0x401 common/built-in.o
 .bss.buf.2     0x80874d5d       0x28 common/built-in.o
 *fill*         0x80874d85        0x3 
 .bss.top_vars  0x80874d88        0x4 common/built-in.o
 .bss.do_repeat
                0x80874d8c        0x4 common/built-in.o
 .bss.flag_repeat
                0x80874d90        0x4 common/built-in.o
 .bss.map       0x80874d94      0x100 common/built-in.o
 .bss.ifs       0x80874e94        0x4 common/built-in.o
 .bss.last_return_code
                0x80874e98        0x4 common/built-in.o
 .bss.stored_bootdelay
                0x80874e9c        0x4 common/built-in.o
 .bss.monitor_flash_len
                0x80874ea0        0x4 common/built-in.o
                0x80874ea0                monitor_flash_len
 .bss.images    0x80874ea4      0x164 common/built-in.o
                0x80874ea4                images
 .bss.current_mii
                0x80875008        0x4 common/built-in.o
 .bss.mii_devs  0x8087500c        0x8 common/built-in.o
 .bss.dev_index
                0x80875014        0x4 common/built-in.o
 *fill*         0x80875018       0x28 
 .bss.usb_dev   0x80875040    0x13000 common/built-in.o
 .bss.usb_started
                0x80888040        0x1 common/built-in.o
                0x80888040                usb_started
 *fill*         0x80888041        0x3 
 .bss.asynch_allowed
                0x80888044        0x4 common/built-in.o
 .bss.running.0
                0x80888048        0x4 common/built-in.o
 .bss.usb_hub_index
                0x8088804c        0x4 common/built-in.o
 .bss.hub_dev   0x80888050      0x440 common/built-in.o
 .bss.usb_stor  0x80888490      0x188 common/built-in.o
 .bss.usb_dev_desc
                0x80888618      0x3b8 common/built-in.o
 .bss.usb_max_devs
                0x808889d0        0x4 common/built-in.o
 .bss.CBWTag    0x808889d4        0x4 common/built-in.o
 *fill*         0x808889d8       0x28 
 .bss.usb_ccb   0x80888a00       0xc0 common/built-in.o
 .bss.initted.0
                0x80888ac0        0x4 common/built-in.o
 .bss.hist_lines
                0x80888ac4     0x5014 common/built-in.o
 .bss.hist_list
                0x8088dad8       0x50 common/built-in.o
 .bss.hist_num  0x8088db28        0x4 common/built-in.o
 .bss.hist_add_idx
                0x8088db2c        0x4 common/built-in.o
 .bss.hist_max  0x8088db30        0x4 common/built-in.o
 .bss.console_buffer
                0x8088db34      0x401 common/built-in.o
                0x8088db34                console_buffer
 *fill*         0x8088df35        0x3 
 .bss.ctrlc_was_pressed
                0x8088df38        0x4 common/built-in.o
 .bss.ctrlc_disabled
                0x8088df3c        0x4 common/built-in.o
 .bss.current_mallinfo
                0x8088df40       0x28 common/built-in.o
 .bss.max_total_mem
                0x8088df68        0x4 common/built-in.o
 .bss.max_sbrked_mem
                0x8088df6c        0x4 common/built-in.o
 .bss.top_pad   0x8088df70        0x4 common/built-in.o
 .bss.mem_malloc_brk
                0x8088df74        0x4 common/built-in.o
                0x8088df74                mem_malloc_brk
 .bss.mem_malloc_end
                0x8088df78        0x4 common/built-in.o
                0x8088df78                mem_malloc_end
 .bss.mem_malloc_start
                0x8088df7c        0x4 common/built-in.o
                0x8088df7c                mem_malloc_start
 .bss.andr_tmp_str
                0x8088df80      0x201 common/built-in.o
 *fill*         0x8088e181        0x3 
 .bss.stdio_devices
                0x8088e184        0xc common/built-in.o
                0x8088e184                stdio_devices
 .bss.devs      0x8088e190       0x4c common/built-in.o
 .bss.tmp_buf   0x8088e1dc      0x401 common/built-in.o
 .bss.env_complete_buf
                0x8088e5dd      0x200 common/built-in.o
 *fill*         0x8088e7dd        0x3 
 .bss.xyz       0x8088e7e0      0x434 common/built-in.o
 *fill*         0x8088ec14       0x2c 
 .bss.tmpbuf    0x8088ec40      0x800 disk/built-in.o
 .bss.name.5    0x8088f440       0x25 disk/built-in.o
 *fill*         0x8088f465        0x3 
 .bss.dfu_buf_size
                0x8088f468        0x4 drivers/built-in.o
 .bss.dfu_buf   0x8088f46c        0x4 drivers/built-in.o
 .bss.dfu_hash_algo
                0x8088f470        0x4 drivers/built-in.o
 .bss.alt_num_cnt
                0x8088f474        0x4 drivers/built-in.o
 .bss.dfu_alt_num
                0x8088f478        0x4 drivers/built-in.o
 .bss.dfu_file_buf_filled
                0x8088f47c        0x4 drivers/built-in.o
 .bss.dfu_file_buf_len
                0x8088f480        0x8 drivers/built-in.o
 .bss.dfu_file_buf
                0x8088f488        0x4 drivers/built-in.o
 .bss.boot_addr_start.1
                0x8088f48c       0x14 drivers/built-in.o
 .bss.fastboot_progress_callback
                0x8088f4a0        0x4 drivers/built-in.o
                0x8088f4a0                fastboot_progress_callback
 .bss.fastboot_buf_size
                0x8088f4a4        0x4 drivers/built-in.o
                0x8088f4a4                fastboot_buf_size
 .bss.fastboot_buf_addr
                0x8088f4a8        0x4 drivers/built-in.o
                0x8088f4a8                fastboot_buf_addr
 .bss.fastboot_bytes_expected
                0x8088f4ac        0x4 drivers/built-in.o
 .bss.fastboot_bytes_received
                0x8088f4b0        0x4 drivers/built-in.o
 .bss.image_size
                0x8088f4b4        0x4 drivers/built-in.o
 .bss.initialized.0
                0x8088f4b8        0x4 drivers/built-in.o
 .bss.mmc_devices
                0x8088f4bc        0x8 drivers/built-in.o
 .bss.epnum     0x8088f4c4        0x4 drivers/usb/gadget/built-in.o
 .bss.g_dnl_detach_request
                0x8088f4c8        0x1 drivers/usb/gadget/built-in.o
 .bss.g_dnl_serial
                0x8088f4c9      0x100 drivers/usb/gadget/built-in.o
 *fill*         0x8088f5c9        0x3 
 .bss.composite
                0x8088f5cc        0x4 drivers/usb/gadget/built-in.o
 .bss.dfu_defer_flush
                0x8088f5d0        0x4 drivers/usb/gadget/built-in.o
                0x8088f5d0                dfu_defer_flush
 .bss.fastboot_func
                0x8088f5d4        0x4 drivers/usb/gadget/built-in.o
 .bss.rndis_resp_buf
                0x8088f5d8        0x8 drivers/usb/gadget/built-in.o
 *fill*         0x8088f5e0       0x20 
 .bss.__status_req
                0x8088f600       0x40 drivers/usb/gadget/built-in.o
 .bss.__control_req
                0x8088f640      0x100 drivers/usb/gadget/built-in.o
 .bss.ethaddr   0x8088f740        0xd drivers/usb/gadget/built-in.o
 .bss.serial_number
                0x8088f74d       0x14 drivers/usb/gadget/built-in.o
 .bss.manufacturer
                0x8088f761       0x32 drivers/usb/gadget/built-in.o
 .bss.host_addr
                0x8088f793       0x12 drivers/usb/gadget/built-in.o
 .bss.dev_addr  0x8088f7a5       0x12 drivers/usb/gadget/built-in.o
 *fill*         0x8088f7b7        0x1 
 .bss.eth_priv  0x8088f7b8      0x118 drivers/usb/gadget/built-in.o
                0x8088f7b8                eth_priv
 .bss.packet_sent
                0x8088f8d0        0x4 drivers/usb/gadget/built-in.o
                0x8088f8d0                packet_sent
 .bss.packet_received
                0x8088f8d4        0x4 drivers/usb/gadget/built-in.o
                0x8088f8d4                packet_received
 .bss.rndis_per_dev_params
                0x8088f8d8       0x3c drivers/usb/gadget/built-in.o
 .bss.gadget    0x8088f914        0x4 drivers/usb/musb-new/built-in.o
 .bss.musb_host
                0x8088f918       0x60 drivers/usb/musb-new/built-in.o
                0x8088f918                musb_host
 .bss.callback_list
                0x8088f978        0x4 env/built-in.o
 .bss.flags_list
                0x8088f97c        0x4 env/built-in.o
 .bss.fs_type   0x8088f980        0x4 fs/built-in.o
 .bss.fs_partition
                0x8088f984       0x78 fs/built-in.o
 .bss.fs_dev_part
                0x8088f9fc        0x4 fs/built-in.o
 .bss.fs_dev_desc
                0x8088fa00        0x4 fs/built-in.o
 *fill*         0x8088fa04        0x4 
 .bss.btrfs_info
                0x8088fa08      0xe20 fs/built-in.o
                0x8088fa08                btrfs_info
 .bss.btrfs_part_info
                0x80890828        0x4 fs/built-in.o
                0x80890828                btrfs_part_info
 .bss.btrfs_blk_desc
                0x8089082c        0x4 fs/built-in.o
                0x8089082c                btrfs_blk_desc
 .bss.inited.0  0x80890830        0x4 fs/built-in.o
 .bss.btrfs_crc32c_table
                0x80890834      0x400 fs/built-in.o
 *fill*         0x80890c34        0x4 
 .bss.ext_fs    0x80890c38       0x48 fs/built-in.o
                0x80890c38                ext_fs
 .bss.symlinknest
                0x80890c80        0x4 fs/built-in.o
 .bss.g_parent_inode
                0x80890c84        0x4 fs/built-in.o
                0x80890c84                g_parent_inode
 .bss.ext4fs_indir3_size
                0x80890c88        0x4 fs/built-in.o
                0x80890c88                ext4fs_indir3_size
 .bss.ext4fs_indir3_block
                0x80890c8c        0x4 fs/built-in.o
                0x80890c8c                ext4fs_indir3_block
 .bss.ext4fs_indir2_size
                0x80890c90        0x4 fs/built-in.o
                0x80890c90                ext4fs_indir2_size
 .bss.ext4fs_indir2_block
                0x80890c94        0x4 fs/built-in.o
                0x80890c94                ext4fs_indir2_block
 .bss.ext4fs_indir1_size
                0x80890c98        0x4 fs/built-in.o
                0x80890c98                ext4fs_indir1_size
 .bss.ext4fs_indir1_block
                0x80890c9c        0x4 fs/built-in.o
                0x80890c9c                ext4fs_indir1_block
 .bss.ext4fs_file
                0x80890ca0        0x4 fs/built-in.o
                0x80890ca0                ext4fs_file
 .bss.ext4fs_root
                0x80890ca4        0x4 fs/built-in.o
                0x80890ca4                ext4fs_root
 .bss.part_info
                0x80890ca8        0x4 fs/built-in.o
 .bss.part_offset
                0x80890cac        0x4 fs/built-in.o
                0x80890cac                part_offset
 .bss.dirty_block_ptr
                0x80890cb0      0x190 fs/built-in.o
                0x80890cb0                dirty_block_ptr
 .bss.journal_ptr
                0x80890e40      0x190 fs/built-in.o
                0x80890e40                journal_ptr
 .bss.jrnl_blk_idx
                0x80890fd0        0x4 fs/built-in.o
                0x80890fd0                jrnl_blk_idx
 .bss.gd_index  0x80890fd4        0x4 fs/built-in.o
                0x80890fd4                gd_index
 .bss.gindex    0x80890fd8        0x4 fs/built-in.o
                0x80890fd8                gindex
 .bss.prev_node
                0x80890fdc        0x4 fs/built-in.o
 .bss.revk_blk_list
                0x80890fe0        0x4 fs/built-in.o
 *fill*         0x80890fe4       0x1c 
 .bss.tmpbuf_cluster
                0x80891000    0x10000 fs/built-in.o
 .bss.total_sector
                0x808a1000        0x4 fs/built-in.o
 .bss.cur_part_info
                0x808a1004       0x78 fs/built-in.o
 .bss.cur_dev   0x808a107c        0x4 fs/built-in.o
 .bss.rs        0x808a1080        0x4 lib/built-in.o
 *fill*         0x808a1084        0x4 
 .bss.mono.0    0x808a1088        0x8 lib/built-in.o
 .bss.ret.1     0x808a1090        0x4 lib/built-in.o
 .bss.app_gd    0x808a1094        0x4 lib/built-in.o
 .bss.efi_gd    0x808a1098        0x4 lib/built-in.o
 .bss.console_timer_event
                0x808a109c        0x4 lib/built-in.o
 .bss.next_key  0x808a10a0        0xc lib/built-in.o
 .bss.key_available
                0x808a10ac        0x1 lib/built-in.o
 *fill*         0x808a10ad        0x3 
 .bss.efi_memory_map_key
                0x808a10b0        0x4 lib/built-in.o
                0x808a10b0                efi_memory_map_key
 .bss.efi_variables_list
                0x808a10b4        0x4 lib/built-in.o
 .bss.watchdog_timer_event
                0x808a10b8        0x4 lib/built-in.o
 .bss.wait_for_packet
                0x808a10bc        0x4 lib/built-in.o
 .bss.network_timer_event
                0x808a10c0        0x4 lib/built-in.o
 .bss.transmit_buffer
                0x808a10c4        0x4 lib/built-in.o
 .bss.new_tx_packet
                0x808a10c8        0x4 lib/built-in.o
 .bss.new_rx_packet
                0x808a10cc        0x1 lib/built-in.o
 *fill*         0x808a10cd        0x3 
 .bss.dhcp_ack  0x808a10d0        0x4 lib/built-in.o
 .bss.errno     0x808a10d4        0x4 lib/built-in.o
                0x808a10d4                errno
 .bss.___strtok
                0x808a10d8        0x4 lib/built-in.o
                0x808a10d8                ___strtok
 .bss.local.0   0x808a10dc       0x16 lib/built-in.o
 .bss.arp_tx_packet_buf
                0x808a10f2      0x640 net/built-in.o
 *fill*         0x808a1732        0x2 
 .bss.arp_tx_packet
                0x808a1734        0x4 net/built-in.o
                0x808a1734                arp_tx_packet
 .bss.arp_wait_try
                0x808a1738        0x4 net/built-in.o
                0x808a1738                arp_wait_try
 .bss.arp_wait_timer_start
                0x808a173c        0x4 net/built-in.o
                0x808a173c                arp_wait_timer_start
 .bss.arp_wait_tx_packet_size
                0x808a1740        0x4 net/built-in.o
                0x808a1740                arp_wait_tx_packet_size
 .bss.arp_wait_packet_ethaddr
                0x808a1744        0x4 net/built-in.o
                0x808a1744                arp_wait_packet_ethaddr
 .bss.net_arp_wait_reply_ip
                0x808a1748        0x4 net/built-in.o
 .bss.net_arp_wait_packet_ip
                0x808a174c        0x4 net/built-in.o
                0x808a174c                net_arp_wait_packet_ip
 .bss.dhcp_option_overload
                0x808a1750        0x1 net/built-in.o
 *fill*         0x808a1751        0x3 
 .bss.dhcp_server_ip
                0x808a1754        0x4 net/built-in.o
 .bss.dhcp_leasetime
                0x808a1758        0x4 net/built-in.o
 .bss.dhcp_state
                0x808a175c        0x4 net/built-in.o
 .bss.time_taken_max
                0x808a1760        0x4 net/built-in.o
 .bss.net_root_path
                0x808a1764       0x40 net/built-in.o
                0x808a1764                net_root_path
 .bss.net_hostname
                0x808a17a4       0x20 net/built-in.o
                0x808a17a4                net_hostname
 .bss.net_nis_domain
                0x808a17c4       0x20 net/built-in.o
                0x808a17c4                net_nis_domain
 .bss.bootp_timeout
                0x808a17e4        0x4 net/built-in.o
                0x808a17e4                bootp_timeout
 .bss.bootp_start
                0x808a17e8        0x4 net/built-in.o
                0x808a17e8                bootp_start
 .bss.bootp_try
                0x808a17ec        0x4 net/built-in.o
                0x808a17ec                bootp_try
 .bss.bootp_num_ids
                0x808a17f0        0x4 net/built-in.o
                0x808a17f0                bootp_num_ids
 .bss.bootp_ids
                0x808a17f4       0x10 net/built-in.o
                0x808a17f4                bootp_ids
 .bss.index.1   0x808a1804        0x4 net/built-in.o
 .bss.eth_current
                0x808a1808        0x4 net/built-in.o
                0x808a1808                eth_current
 .bss.eth_devices
                0x808a180c        0x4 net/built-in.o
 .bss.env_changed_id.0
                0x808a1810        0x4 net/built-in.o
 .bss.act.1     0x808a1814        0x4 net/built-in.o
 .bss.first_failed.2
                0x808a1818        0x4 net/built-in.o
 .bss.net_try_count
                0x808a181c        0x4 net/built-in.o
 .bss.net_tx_packet
                0x808a1820        0x4 net/built-in.o
                0x808a1820                net_tx_packet
 .bss.time_delta
                0x808a1824        0x4 net/built-in.o
 .bss.time_start
                0x808a1828        0x8 net/built-in.o
 .bss.time_handler
                0x808a1830        0x4 net/built-in.o
 .bss.arp_packet_handler
                0x808a1834        0x4 net/built-in.o
 .bss.udp_packet_handler
                0x808a1838        0x4 net/built-in.o
 .bss.net_rx_packets
                0x808a183c       0x10 net/built-in.o
                0x808a183c                net_rx_packets
 .bss.net_pkt_buf
                0x808a184c     0x1e40 net/built-in.o
 .bss.net_boot_file_expected_size_in_blocks
                0x808a368c        0x4 net/built-in.o
                0x808a368c                net_boot_file_expected_size_in_blocks
 .bss.net_boot_file_size
                0x808a3690        0x4 net/built-in.o
                0x808a3690                net_boot_file_size
 .bss.net_boot_file_name_explicit
                0x808a3694        0x1 net/built-in.o
                0x808a3694                net_boot_file_name_explicit
 .bss.net_boot_file_name
                0x808a3695      0x400 net/built-in.o
                0x808a3695                net_boot_file_name
 *fill*         0x808a3a95        0x3 
 .bss.net_dev_exists
                0x808a3a98        0x4 net/built-in.o
 .bss.net_restarted
                0x808a3a9c        0x4 net/built-in.o
 .bss.net_restart_wrap
                0x808a3aa0        0x4 net/built-in.o
                0x808a3aa0                net_restart_wrap
 .bss.net_state
                0x808a3aa4        0x4 net/built-in.o
                0x808a3aa4                net_state
 .bss.push_packet
                0x808a3aa8        0x4 net/built-in.o
                0x808a3aa8                push_packet
 .bss.net_ip_id
                0x808a3aac        0x4 net/built-in.o
 .bss.net_rx_packet_len
                0x808a3ab0        0x4 net/built-in.o
                0x808a3ab0                net_rx_packet_len
 .bss.net_rx_packet
                0x808a3ab4        0x4 net/built-in.o
                0x808a3ab4                net_rx_packet
 .bss.net_server_ip
                0x808a3ab8        0x4 net/built-in.o
                0x808a3ab8                net_server_ip
 .bss.net_ip    0x808a3abc        0x4 net/built-in.o
                0x808a3abc                net_ip
 .bss.net_server_ethaddr
                0x808a3ac0        0x6 net/built-in.o
                0x808a3ac0                net_server_ethaddr
 .bss.net_ethaddr
                0x808a3ac6        0x6 net/built-in.o
                0x808a3ac6                net_ethaddr
 .bss.net_dns_server2
                0x808a3acc        0x4 net/built-in.o
                0x808a3acc                net_dns_server2
 .bss.net_dns_server
                0x808a3ad0        0x4 net/built-in.o
                0x808a3ad0                net_dns_server
 .bss.net_gateway
                0x808a3ad4        0x4 net/built-in.o
                0x808a3ad4                net_gateway
 .bss.net_netmask
                0x808a3ad8        0x4 net/built-in.o
                0x808a3ad8                net_netmask
 .bss.nfs_path_buff
                0x808a3adc      0x800 net/built-in.o
 .bss.nfs_path  0x808a42dc        0x4 net/built-in.o
 .bss.nfs_filename
                0x808a42e0        0x4 net/built-in.o
 .bss.nfs_state
                0x808a42e4        0x4 net/built-in.o
 .bss.nfs_timeout_count
                0x808a42e8        0x4 net/built-in.o
 .bss.nfs_our_port
                0x808a42ec        0x4 net/built-in.o
 .bss.nfs_server_port
                0x808a42f0        0x4 net/built-in.o
 .bss.nfs_server_mount_port
                0x808a42f4        0x4 net/built-in.o
 .bss.nfs_server_ip
                0x808a42f8        0x4 net/built-in.o
 .bss.nfs_download_state
                0x808a42fc        0x4 net/built-in.o
 .bss.filefh3_length
                0x808a4300        0x4 net/built-in.o
 .bss.filefh    0x808a4304       0x40 net/built-in.o
 .bss.dirfh     0x808a4344       0x20 net/built-in.o
 .bss.nfs_len   0x808a4364        0x4 net/built-in.o
 .bss.rpc_id    0x808a4368        0x4 net/built-in.o
 .bss.fs_mounted
                0x808a436c        0x4 net/built-in.o
 .bss.net_ping_ip
                0x808a4370        0x4 net/built-in.o
                0x808a4370                net_ping_ip
 .bss.ping_seq_number
                0x808a4374        0x2 net/built-in.o
 .bss.tftp_filename
                0x808a4376       0x80 net/built-in.o
 .bss.default_filename
                0x808a43f6        0xd net/built-in.o
 *fill*         0x808a4403        0x1 
 .bss.tftp_load_size
                0x808a4404        0x4 net/built-in.o
 .bss.tftp_load_addr
                0x808a4408        0x4 net/built-in.o
 .bss.tftp_state
                0x808a440c        0x4 net/built-in.o
 .bss.tftp_block_wrap_offset
                0x808a4410        0x4 net/built-in.o
 .bss.tftp_block_wrap
                0x808a4414        0x4 net/built-in.o
 .bss.tftp_prev_block
                0x808a4418        0x4 net/built-in.o
 .bss.tftp_cur_block
                0x808a441c        0x4 net/built-in.o
 .bss.timeout_count
                0x808a4420        0x4 net/built-in.o
 .bss.tftp_our_port
                0x808a4424        0x4 net/built-in.o
 .bss.tftp_remote_port
                0x808a4428        0x4 net/built-in.o
 .bss.tftp_remote_ip
                0x808a442c        0x4 net/built-in.o
                0x808a4430                        . = ALIGN (0x4)
                0x808a4430                        __bss_limit = .

.bss_end        0x808a4430        0x0
 *(.__bss_end)
 .__bss_end     0x808a4430        0x0 arch/arm/lib/built-in.o
                0x808a4430                __bss_end

.dynsym         0x80881e0c       0x30
 *(.dynsym)
 .dynsym        0x80881e0c       0x30 arch/arm/cpu/armv7/start.o

.dynbss         0x80881e3c        0x0
 *(.dynbss)
 .dynbss        0x80881e3c        0x0 arch/arm/cpu/armv7/start.o

.dynstr         0x80881e3c        0x1
 *(.dynstr*)
 .dynstr        0x80881e3c        0x1 arch/arm/cpu/armv7/start.o

.dynamic        0x80881e40       0x90
 *(.dynamic*)
 .dynamic       0x80881e40       0x90 arch/arm/cpu/armv7/start.o
                0x80881e40                _DYNAMIC

.gnu.hash       0x80881ed0       0x18
 *(.gnu.hash)
 .gnu.hash      0x80881ed0       0x18 arch/arm/cpu/armv7/start.o

.plt            0x80881ee8        0x0
 *(.plt*)
 .plt           0x80881ee8        0x0 arch/arm/cpu/armv7/start.o

.interp
 *(.interp*)

.gnu            0x80881ee8        0x0
 *(.gnu*)
 .gnu.version_d
                0x80881ee8        0x0 arch/arm/cpu/armv7/start.o
 .gnu.version   0x80881ee8        0x0 arch/arm/cpu/armv7/start.o
 .gnu.version_r
                0x80881ee8        0x0 arch/arm/cpu/armv7/start.o

.ARM.exidx
 *(.ARM.exidx*)
LOAD arch/arm/cpu/armv7/start.o
START GROUP
LOAD arch/arm/cpu/built-in.o
LOAD arch/arm/cpu/armv7/built-in.o
LOAD arch/arm/lib/built-in.o
LOAD arch/arm/mach-omap2/built-in.o
LOAD board/ti/am335x/built-in.o
LOAD board/ti/common/built-in.o
LOAD cmd/built-in.o
LOAD common/built-in.o
LOAD disk/built-in.o
LOAD drivers/built-in.o
LOAD drivers/dma/built-in.o
LOAD drivers/gpio/built-in.o
LOAD drivers/i2c/built-in.o
LOAD drivers/mtd/built-in.o
LOAD drivers/mtd/onenand/built-in.o
LOAD drivers/mtd/spi/built-in.o
LOAD drivers/net/built-in.o
LOAD drivers/net/phy/built-in.o
LOAD drivers/power/built-in.o
LOAD drivers/power/battery/built-in.o
LOAD drivers/power/domain/built-in.o
LOAD drivers/power/fuel_gauge/built-in.o
LOAD drivers/power/mfd/built-in.o
LOAD drivers/power/pmic/built-in.o
LOAD drivers/power/regulator/built-in.o
LOAD drivers/serial/built-in.o
LOAD drivers/spi/built-in.o
LOAD drivers/usb/common/built-in.o
LOAD drivers/usb/dwc3/built-in.o
LOAD drivers/usb/emul/built-in.o
LOAD drivers/usb/eth/built-in.o
LOAD drivers/usb/gadget/built-in.o
LOAD drivers/usb/gadget/udc/built-in.o
LOAD drivers/usb/host/built-in.o
LOAD drivers/usb/musb-new/built-in.o
LOAD drivers/usb/musb/built-in.o
LOAD drivers/usb/phy/built-in.o
LOAD drivers/usb/ulpi/built-in.o
LOAD dts/built-in.o
LOAD env/built-in.o
LOAD fs/built-in.o
LOAD lib/built-in.o
LOAD net/built-in.o
END GROUP
LOAD arch/arm/lib/eabi_compat.o
LOAD arch/arm/lib/lib.a
OUTPUT(u-boot elf32-littlearm)
LOAD linker stubs

.ARM.attributes
                0x00000000       0x2d
 .ARM.attributes
                0x00000000       0x1f arch/arm/cpu/armv7/start.o
 .ARM.attributes
                0x0000001f       0x2d board/ti/am335x/built-in.o
 .ARM.attributes
                0x0000004c       0x2d arch/arm/cpu/armv7/built-in.o
 .ARM.attributes
                0x00000079       0x2b arch/arm/lib/built-in.o
 .ARM.attributes
                0x000000a4       0x2f arch/arm/mach-omap2/built-in.o
 .ARM.attributes
                0x000000d3       0x2d board/ti/common/built-in.o
 .ARM.attributes
                0x00000100       0x2d cmd/built-in.o
 .ARM.attributes
                0x0000012d       0x2d common/built-in.o
 .ARM.attributes
                0x0000015a       0x2d disk/built-in.o
 .ARM.attributes
                0x00000187       0x2d drivers/built-in.o
 .ARM.attributes
                0x000001b4       0x2d drivers/gpio/built-in.o
 .ARM.attributes
                0x000001e1       0x2d drivers/i2c/built-in.o
 .ARM.attributes
                0x0000020e       0x2d drivers/mtd/built-in.o
 .ARM.attributes
                0x0000023b       0x2d drivers/mtd/spi/built-in.o
 .ARM.attributes
                0x00000268       0x2d drivers/net/built-in.o
 .ARM.attributes
                0x00000295       0x2d drivers/net/phy/built-in.o
 .ARM.attributes
                0x000002c2       0x2d drivers/serial/built-in.o
 .ARM.attributes
                0x000002ef       0x2d drivers/spi/built-in.o
 .ARM.attributes
                0x0000031c       0x2d drivers/usb/gadget/built-in.o
 .ARM.attributes
                0x00000349       0x2d drivers/usb/gadget/udc/built-in.o
 .ARM.attributes
                0x00000376       0x2d drivers/usb/musb-new/built-in.o
 .ARM.attributes
                0x000003a3       0x1f dts/built-in.o
 .ARM.attributes
                0x000003c2       0x2d env/built-in.o
 .ARM.attributes
                0x000003ef       0x2d fs/built-in.o
 .ARM.attributes
                0x0000041c       0x2d lib/built-in.o
 .ARM.attributes
                0x00000449       0x2d net/built-in.o
 .ARM.attributes
                0x00000476       0x1f arch/arm/lib/lib.a(lib1funcs.o)
 .ARM.attributes
                0x00000495       0x1f arch/arm/lib/lib.a(uldivmod.o)
 .ARM.attributes
                0x000004b4       0x2d arch/arm/lib/lib.a(div0.o)

.comment        0x00000000       0x65
 .comment       0x00000000       0x65 board/ti/am335x/built-in.o
                                0x132 (size before relaxing)
 .comment       0x00000065      0x198 arch/arm/cpu/armv7/built-in.o
 .comment       0x00000065      0x3fc arch/arm/lib/built-in.o
 .comment       0x00000065      0x72c arch/arm/mach-omap2/built-in.o
 .comment       0x00000065       0x66 board/ti/common/built-in.o
 .comment       0x00000065     0x1386 cmd/built-in.o
 .comment       0x00000065      0xdf2 common/built-in.o
 .comment       0x00000065      0x198 disk/built-in.o
 .comment       0x00000065      0xcc0 drivers/built-in.o
 .comment       0x00000065       0xcc drivers/gpio/built-in.o
 .comment       0x00000065      0x132 drivers/i2c/built-in.o
 .comment       0x00000065       0xcc drivers/mtd/built-in.o
 .comment       0x00000065      0x132 drivers/mtd/spi/built-in.o
 .comment       0x00000065      0x198 drivers/net/built-in.o
 .comment       0x00000065      0x198 drivers/net/phy/built-in.o
 .comment       0x00000065      0x132 drivers/serial/built-in.o
 .comment       0x00000065      0x132 drivers/spi/built-in.o
 .comment       0x00000065      0x330 drivers/usb/gadget/built-in.o
 .comment       0x00000065       0x66 drivers/usb/gadget/udc/built-in.o
 .comment       0x00000065      0x264 drivers/usb/musb-new/built-in.o
 .comment       0x00000065      0x264 env/built-in.o
 .comment       0x00000065      0x85e fs/built-in.o
 .comment       0x00000065     0x1d7c lib/built-in.o
 .comment       0x00000065      0x396 net/built-in.o
 .comment       0x00000065       0x66 arch/arm/lib/lib.a(div0.o)

.note.GNU-stack
                0x00000000        0x0
 .note.GNU-stack
                0x00000000        0x0 board/ti/am335x/built-in.o
 .note.GNU-stack
                0x00000000        0x0 arch/arm/cpu/armv7/built-in.o
 .note.GNU-stack
                0x00000000        0x0 arch/arm/lib/built-in.o
 .note.GNU-stack
                0x00000000        0x0 arch/arm/mach-omap2/built-in.o
 .note.GNU-stack
                0x00000000        0x0 board/ti/common/built-in.o
 .note.GNU-stack
                0x00000000        0x0 cmd/built-in.o
 .note.GNU-stack
                0x00000000        0x0 common/built-in.o
 .note.GNU-stack
                0x00000000        0x0 disk/built-in.o
 .note.GNU-stack
                0x00000000        0x0 drivers/built-in.o
 .note.GNU-stack
                0x00000000        0x0 drivers/gpio/built-in.o
 .note.GNU-stack
                0x00000000        0x0 drivers/i2c/built-in.o
 .note.GNU-stack
                0x00000000        0x0 drivers/mtd/built-in.o
 .note.GNU-stack
                0x00000000        0x0 drivers/mtd/spi/built-in.o
 .note.GNU-stack
                0x00000000        0x0 drivers/net/built-in.o
 .note.GNU-stack
                0x00000000        0x0 drivers/net/phy/built-in.o
 .note.GNU-stack
                0x00000000        0x0 drivers/serial/built-in.o
 .note.GNU-stack
                0x00000000        0x0 drivers/spi/built-in.o
 .note.GNU-stack
                0x00000000        0x0 drivers/usb/gadget/built-in.o
 .note.GNU-stack
                0x00000000        0x0 drivers/usb/gadget/udc/built-in.o
 .note.GNU-stack
                0x00000000        0x0 drivers/usb/musb-new/built-in.o
 .note.GNU-stack
                0x00000000        0x0 env/built-in.o
 .note.GNU-stack
                0x00000000        0x0 fs/built-in.o
 .note.GNU-stack
                0x00000000        0x0 lib/built-in.o
 .note.GNU-stack
                0x00000000        0x0 net/built-in.o
 .note.GNU-stack
                0x00000000        0x0 arch/arm/lib/lib.a(div0.o)

.debug_line     0x00000000    0x9316a
 .debug_line    0x00000000       0x92 arch/arm/cpu/armv7/start.o
 .debug_line    0x00000092     0x1d3f board/ti/am335x/built-in.o
 .debug_line    0x00001dd1      0x613 arch/arm/cpu/armv7/built-in.o
 .debug_line    0x000023e4     0x1a26 arch/arm/lib/built-in.o
 .debug_line    0x00003e0a     0x27b0 arch/arm/mach-omap2/built-in.o
 .debug_line    0x000065ba      0x82b board/ti/common/built-in.o
 .debug_line    0x00006de5    0x10d98 cmd/built-in.o
 .debug_line    0x00017b7d    0x15519 common/built-in.o
 .debug_line    0x0002d096     0x2c63 disk/built-in.o
 .debug_line    0x0002fcf9     0xe79a drivers/built-in.o
 .debug_line    0x0003e493     0x16a6 drivers/gpio/built-in.o
 .debug_line    0x0003fb39     0x242f drivers/i2c/built-in.o
 .debug_line    0x00041f68     0x18d2 drivers/mtd/built-in.o
 .debug_line    0x0004383a     0x188c drivers/mtd/spi/built-in.o
 .debug_line    0x000450c6     0x2936 drivers/net/built-in.o
 .debug_line    0x000479fc     0x2c9d drivers/net/phy/built-in.o
 .debug_line    0x0004a699     0x1272 drivers/serial/built-in.o
 .debug_line    0x0004b90b      0xd45 drivers/spi/built-in.o
 .debug_line    0x0004c650     0x698b drivers/usb/gadget/built-in.o
 .debug_line    0x00052fdb      0x130 drivers/usb/gadget/udc/built-in.o
 .debug_line    0x0005310b     0x77cb drivers/usb/musb-new/built-in.o
 .debug_line    0x0005a8d6     0x1965 env/built-in.o
 .debug_line    0x0005c23b     0xe10f fs/built-in.o
 .debug_line    0x0006a34a    0x23640 lib/built-in.o
 .debug_line    0x0008d98a     0x55f9 net/built-in.o
 .debug_line    0x00092f83       0xf2 arch/arm/lib/lib.a(lib1funcs.o)
 .debug_line    0x00093075       0xae arch/arm/lib/lib.a(uldivmod.o)
 .debug_line    0x00093123       0x47 arch/arm/lib/lib.a(div0.o)

.debug_line_str
                0x00000000       0xef
 .debug_line_str
                0x00000000       0x59 arch/arm/cpu/armv7/start.o
 .debug_line_str
                0x00000059       0x17 arch/arm/cpu/armv7/built-in.o
                                 0xb9 (size before relaxing)
 .debug_line_str
                0x00000070       0x44 arch/arm/lib/built-in.o
                                0x1f9 (size before relaxing)
 .debug_line_str
                0x000000b4       0x24 arch/arm/mach-omap2/built-in.o
                                 0x62 (size before relaxing)
 .debug_line_str
                0x000000d8        0xc arch/arm/lib/lib.a(lib1funcs.o)
                                 0x57 (size before relaxing)
 .debug_line_str
                0x000000e4        0xb arch/arm/lib/lib.a(uldivmod.o)
                                 0x56 (size before relaxing)

.debug_info     0x00000000   0x1bf4f7
 .debug_info    0x00000000       0x4b arch/arm/cpu/armv7/start.o
 .debug_info    0x0000004b     0x666a board/ti/am335x/built-in.o
 .debug_info    0x000066b5      0xaa1 arch/arm/cpu/armv7/built-in.o
 .debug_info    0x00007156     0x5879 arch/arm/lib/built-in.o
 .debug_info    0x0000c9cf     0xb9a0 arch/arm/mach-omap2/built-in.o
 .debug_info    0x0001836f     0x18a4 board/ti/common/built-in.o
 .debug_info    0x00019c13    0x3de1c cmd/built-in.o
 .debug_info    0x00057a2f    0x3dc4d common/built-in.o
 .debug_info    0x0009567c     0x74b9 disk/built-in.o
 .debug_info    0x0009cb35    0x33960 drivers/built-in.o
 .debug_info    0x000d0495     0x49ee drivers/gpio/built-in.o
 .debug_info    0x000d4e83     0x747e drivers/i2c/built-in.o
 .debug_info    0x000dc301     0x46be drivers/mtd/built-in.o
 .debug_info    0x000e09bf     0x6a0a drivers/mtd/spi/built-in.o
 .debug_info    0x000e73c9     0x9613 drivers/net/built-in.o
 .debug_info    0x000f09dc     0xb96c drivers/net/phy/built-in.o
 .debug_info    0x000fc348     0x54a8 drivers/serial/built-in.o
 .debug_info    0x001017f0     0x33c2 drivers/spi/built-in.o
 .debug_info    0x00104bb2    0x13769 drivers/usb/gadget/built-in.o
 .debug_info    0x0011831b      0xc3f drivers/usb/gadget/udc/built-in.o
 .debug_info    0x00118f5a    0x1c184 drivers/usb/musb-new/built-in.o
 .debug_info    0x001350de     0x530f env/built-in.o
 .debug_info    0x0013a3ed    0x2457a fs/built-in.o
 .debug_info    0x0015e967    0x528ba lib/built-in.o
 .debug_info    0x001b1221     0xe1b6 net/built-in.o
 .debug_info    0x001bf3d7       0xa0 arch/arm/lib/lib.a(lib1funcs.o)
 .debug_info    0x001bf477       0x33 arch/arm/lib/lib.a(uldivmod.o)
 .debug_info    0x001bf4aa       0x4d arch/arm/lib/lib.a(div0.o)

.debug_abbrev   0x00000000    0x42572
 .debug_abbrev  0x00000000       0x28 arch/arm/cpu/armv7/start.o
 .debug_abbrev  0x00000028      0xc47 board/ti/am335x/built-in.o
 .debug_abbrev  0x00000c6f      0x51b arch/arm/cpu/armv7/built-in.o
 .debug_abbrev  0x0000118a     0x13de arch/arm/lib/built-in.o
 .debug_abbrev  0x00002568     0x251c arch/arm/mach-omap2/built-in.o
 .debug_abbrev  0x00004a84      0x46b board/ti/common/built-in.o
 .debug_abbrev  0x00004eef     0x9dc8 cmd/built-in.o
 .debug_abbrev  0x0000ecb7     0x8bef common/built-in.o
 .debug_abbrev  0x000178a6     0x1431 disk/built-in.o
 .debug_abbrev  0x00018cd7     0x787f drivers/built-in.o
 .debug_abbrev  0x00020556      0x9dd drivers/gpio/built-in.o
 .debug_abbrev  0x00020f33      0xe11 drivers/i2c/built-in.o
 .debug_abbrev  0x00021d44      0x93b drivers/mtd/built-in.o
 .debug_abbrev  0x0002267f      0xb23 drivers/mtd/spi/built-in.o
 .debug_abbrev  0x000231a2     0x10da drivers/net/built-in.o
 .debug_abbrev  0x0002427c     0x1018 drivers/net/phy/built-in.o
 .debug_abbrev  0x00025294      0xdad drivers/serial/built-in.o
 .debug_abbrev  0x00026041      0x8a7 drivers/spi/built-in.o
 .debug_abbrev  0x000268e8     0x2794 drivers/usb/gadget/built-in.o
 .debug_abbrev  0x0002907c      0x16b drivers/usb/gadget/udc/built-in.o
 .debug_abbrev  0x000291e7     0x26df drivers/usb/musb-new/built-in.o
 .debug_abbrev  0x0002b8c6     0x137c env/built-in.o
 .debug_abbrev  0x0002cc42     0x540e fs/built-in.o
 .debug_abbrev  0x00032050     0xdcae lib/built-in.o
 .debug_abbrev  0x0003fcfe     0x27d7 net/built-in.o
 .debug_abbrev  0x000424d5       0x26 arch/arm/lib/lib.a(lib1funcs.o)
 .debug_abbrev  0x000424fb       0x28 arch/arm/lib/lib.a(uldivmod.o)
 .debug_abbrev  0x00042523       0x4f arch/arm/lib/lib.a(div0.o)

.debug_aranges  0x00000000     0x7440
 .debug_aranges
                0x00000000       0x20 arch/arm/cpu/armv7/start.o
 .debug_aranges
                0x00000020      0x128 board/ti/am335x/built-in.o
 .debug_aranges
                0x00000148      0x140 arch/arm/cpu/armv7/built-in.o
 .debug_aranges
                0x00000288      0x330 arch/arm/lib/built-in.o
 .debug_aranges
                0x000005b8      0x3f8 arch/arm/mach-omap2/built-in.o
 .debug_aranges
                0x000009b0       0xa0 board/ti/common/built-in.o
 .debug_aranges
                0x00000a50      0xbb0 cmd/built-in.o
 .debug_aranges
                0x00001600     0x1210 common/built-in.o
 .debug_aranges
                0x00002810      0x1b0 disk/built-in.o
 .debug_aranges
                0x000029c0      0xd60 drivers/built-in.o
 .debug_aranges
                0x00003720      0x1c8 drivers/gpio/built-in.o
 .debug_aranges
                0x000038e8      0x1a0 drivers/i2c/built-in.o
 .debug_aranges
                0x00003a88      0x1c0 drivers/mtd/built-in.o
 .debug_aranges
                0x00003c48       0xd0 drivers/mtd/spi/built-in.o
 .debug_aranges
                0x00003d18      0x1c0 drivers/net/built-in.o
 .debug_aranges
                0x00003ed8      0x1d0 drivers/net/phy/built-in.o
 .debug_aranges
                0x000040a8      0x180 drivers/serial/built-in.o
 .debug_aranges
                0x00004228       0xa0 drivers/spi/built-in.o
 .debug_aranges
                0x000042c8      0x478 drivers/usb/gadget/built-in.o
 .debug_aranges
                0x00004740       0x18 drivers/usb/gadget/udc/built-in.o
 .debug_aranges
                0x00004758      0x308 drivers/usb/musb-new/built-in.o
 .debug_aranges
                0x00004a60      0x1b0 env/built-in.o
 .debug_aranges
                0x00004c10      0x7d0 fs/built-in.o
 .debug_aranges
                0x000053e0     0x1bc0 lib/built-in.o
 .debug_aranges
                0x00006fa0      0x418 net/built-in.o
 .debug_aranges
                0x000073b8       0x48 arch/arm/lib/lib.a(lib1funcs.o)
 .debug_aranges
                0x00007400       0x20 arch/arm/lib/lib.a(uldivmod.o)
 .debug_aranges
                0x00007420       0x20 arch/arm/lib/lib.a(div0.o)

.debug_str      0x00000000    0x265a8
 .debug_str     0x00000000       0x9b arch/arm/cpu/armv7/start.o
 .debug_str     0x0000009b     0x1721 board/ti/am335x/built-in.o
                               0x3820 (size before relaxing)
 .debug_str     0x000017bc      0x3a8 arch/arm/cpu/armv7/built-in.o
                               0x1071 (size before relaxing)
 .debug_str     0x00001b64     0x15f6 arch/arm/lib/built-in.o
                               0x6446 (size before relaxing)
 .debug_str     0x0000315a     0x33ef arch/arm/mach-omap2/built-in.o
                               0xcde1 (size before relaxing)
 .debug_str     0x00006549      0x24b board/ti/common/built-in.o
                                0xf36 (size before relaxing)
 .debug_str     0x00006794     0x5b18 cmd/built-in.o
                              0x2c44f (size before relaxing)
 .debug_str     0x0000c2ac     0x4765 common/built-in.o
                              0x282a2 (size before relaxing)
 .debug_str     0x00010a11      0x994 disk/built-in.o
                               0x3a62 (size before relaxing)
 .debug_str     0x000113a5     0x34e7 drivers/built-in.o
                              0x21934 (size before relaxing)
 .debug_str     0x0001488c      0x530 drivers/gpio/built-in.o
                               0x274b (size before relaxing)
 .debug_str     0x00014dbc      0x7ab drivers/i2c/built-in.o
                               0x39c7 (size before relaxing)
 .debug_str     0x00015567      0x537 drivers/mtd/built-in.o
                               0x2633 (size before relaxing)
 .debug_str     0x00015a9e      0x8d3 drivers/mtd/spi/built-in.o
                               0x4390 (size before relaxing)
 .debug_str     0x00016371      0xa3a drivers/net/built-in.o
                               0x50f2 (size before relaxing)
 .debug_str     0x00016dab      0x800 drivers/net/phy/built-in.o
                               0x527e (size before relaxing)
 .debug_str     0x000175ab      0x781 drivers/serial/built-in.o
                               0x393e (size before relaxing)
 .debug_str     0x00017d2c      0x18e drivers/spi/built-in.o
                               0x23b5 (size before relaxing)
 .debug_str     0x00017eba     0x1c4d drivers/usb/gadget/built-in.o
                               0xa2f9 (size before relaxing)
 .debug_str     0x00019b07       0x4f drivers/usb/gadget/udc/built-in.o
                                0xe71 (size before relaxing)
 .debug_str     0x00019b56     0x1644 drivers/usb/musb-new/built-in.o
                               0xd760 (size before relaxing)
 .debug_str     0x0001b19a      0x73b env/built-in.o
                               0x4edb (size before relaxing)
 .debug_str     0x0001b8d5     0x3109 fs/built-in.o
                              0x11268 (size before relaxing)
 .debug_str     0x0001e9de     0x67ea lib/built-in.o
                              0x2fe42 (size before relaxing)
 .debug_str     0x000251c8     0x1368 net/built-in.o
                               0xad54 (size before relaxing)
 .debug_str     0x00026530       0x45 arch/arm/lib/lib.a(lib1funcs.o)
                                 0xce (size before relaxing)
 .debug_str     0x00026575       0x18 arch/arm/lib/lib.a(uldivmod.o)
                                 0x76 (size before relaxing)
 .debug_str     0x0002658d       0x1b arch/arm/lib/lib.a(div0.o)
                                0x246 (size before relaxing)

.debug_frame    0x00000000    0x15280
 .debug_frame   0x00000000      0x314 board/ti/am335x/built-in.o
 .debug_frame   0x00000314      0x1ec arch/arm/cpu/armv7/built-in.o
 .debug_frame   0x00000500      0x494 arch/arm/lib/built-in.o
 .debug_frame   0x00000994      0x728 arch/arm/mach-omap2/built-in.o
 .debug_frame   0x000010bc      0x1ac board/ti/common/built-in.o
 .debug_frame   0x00001268     0x211c cmd/built-in.o
 .debug_frame   0x00003384     0x35c8 common/built-in.o
 .debug_frame   0x0000694c      0x65c disk/built-in.o
 .debug_frame   0x00006fa8     0x26e0 drivers/built-in.o
 .debug_frame   0x00009688      0x638 drivers/gpio/built-in.o
 .debug_frame   0x00009cc0      0x568 drivers/i2c/built-in.o
 .debug_frame   0x0000a228      0x6d0 drivers/mtd/built-in.o
 .debug_frame   0x0000a8f8      0x25c drivers/mtd/spi/built-in.o
 .debug_frame   0x0000ab54      0x5d0 drivers/net/built-in.o
 .debug_frame   0x0000b124      0x5d4 drivers/net/phy/built-in.o
 .debug_frame   0x0000b6f8      0x3e0 drivers/serial/built-in.o
 .debug_frame   0x0000bad8      0x168 drivers/spi/built-in.o
 .debug_frame   0x0000bc40      0xc94 drivers/usb/gadget/built-in.o
 .debug_frame   0x0000c8d4      0x980 drivers/usb/musb-new/built-in.o
 .debug_frame   0x0000d254      0x4c0 env/built-in.o
 .debug_frame   0x0000d714     0x19bc fs/built-in.o
 .debug_frame   0x0000f0d0     0x544c lib/built-in.o
 .debug_frame   0x0001451c      0xd44 net/built-in.o
 .debug_frame   0x00015260       0x20 arch/arm/lib/lib.a(div0.o)

.debug_loclists
                0x00000000    0xb1c83
 .debug_loclists
                0x00000000     0x13e0 board/ti/am335x/built-in.o
 .debug_loclists
                0x000013e0      0x3bb arch/arm/cpu/armv7/built-in.o
 .debug_loclists
                0x0000179b      0xc18 arch/arm/lib/built-in.o
 .debug_loclists
                0x000023b3     0x1cc2 arch/arm/mach-omap2/built-in.o
 .debug_loclists
                0x00004075      0x52f board/ti/common/built-in.o
 .debug_loclists
                0x000045a4    0x12384 cmd/built-in.o
 .debug_loclists
                0x00016928    0x14d6c common/built-in.o
 .debug_loclists
                0x0002b694     0x25af disk/built-in.o
 .debug_loclists
                0x0002dc43     0xccd5 drivers/built-in.o
 .debug_loclists
                0x0003a918     0x1859 drivers/gpio/built-in.o
 .debug_loclists
                0x0003c171     0x2b61 drivers/i2c/built-in.o
 .debug_loclists
                0x0003ecd2     0x1eca drivers/mtd/built-in.o
 .debug_loclists
                0x00040b9c     0x14d6 drivers/mtd/spi/built-in.o
 .debug_loclists
                0x00042072     0x2a1b drivers/net/built-in.o
 .debug_loclists
                0x00044a8d     0x45a3 drivers/net/phy/built-in.o
 .debug_loclists
                0x00049030      0xfae drivers/serial/built-in.o
 .debug_loclists
                0x00049fde      0xf73 drivers/spi/built-in.o
 .debug_loclists
                0x0004af51     0x6da3 drivers/usb/gadget/built-in.o
 .debug_loclists
                0x00051cf4     0x8db8 drivers/usb/musb-new/built-in.o
 .debug_loclists
                0x0005aaac     0x12cf env/built-in.o
 .debug_loclists
                0x0005bd7b     0xebaf fs/built-in.o
 .debug_loclists
                0x0006a92a    0x42b8e lib/built-in.o
 .debug_loclists
                0x000ad4b8     0x47cb net/built-in.o

.debug_rnglists
                0x00000000     0xca26
 .debug_rnglists
                0x00000000      0x384 board/ti/am335x/built-in.o
 .debug_rnglists
                0x00000384       0xee arch/arm/cpu/armv7/built-in.o
 .debug_rnglists
                0x00000472      0x2e6 arch/arm/lib/built-in.o
 .debug_rnglists
                0x00000758      0x4df arch/arm/mach-omap2/built-in.o
 .debug_rnglists
                0x00000c37       0x8f board/ti/common/built-in.o
 .debug_rnglists
                0x00000cc6     0x147f cmd/built-in.o
 .debug_rnglists
                0x00002145     0x1a70 common/built-in.o
 .debug_rnglists
                0x00003bb5      0x3e3 disk/built-in.o
 .debug_rnglists
                0x00003f98     0x1511 drivers/built-in.o
 .debug_rnglists
                0x000054a9      0x203 drivers/gpio/built-in.o
 .debug_rnglists
                0x000056ac      0x41f drivers/i2c/built-in.o
 .debug_rnglists
                0x00005acb      0x22d drivers/mtd/built-in.o
 .debug_rnglists
                0x00005cf8      0x285 drivers/mtd/spi/built-in.o
 .debug_rnglists
                0x00005f7d      0x403 drivers/net/built-in.o
 .debug_rnglists
                0x00006380      0x4cb drivers/net/phy/built-in.o
 .debug_rnglists
                0x0000684b      0x181 drivers/serial/built-in.o
 .debug_rnglists
                0x000069cc      0x1d7 drivers/spi/built-in.o
 .debug_rnglists
                0x00006ba3      0x963 drivers/usb/gadget/built-in.o
 .debug_rnglists
                0x00007506      0xcca drivers/usb/musb-new/built-in.o
 .debug_rnglists
                0x000081d0      0x1f5 env/built-in.o
 .debug_rnglists
                0x000083c5     0x10c0 fs/built-in.o
 .debug_rnglists
                0x00009485     0x2d0e lib/built-in.o
 .debug_rnglists
                0x0000c193      0x84b net/built-in.o
 .debug_rnglists
                0x0000c9de       0x35 arch/arm/lib/lib.a(lib1funcs.o)
 .debug_rnglists
                0x0000ca13       0x13 arch/arm/lib/lib.a(div0.o)
